Archive member included to satisfy reference by file (symbol)

/home/joelphilip/Documents/C2S/Trisul32/vega-sdk/bsp/libvega.a(stdlib.o)
                              build/./main.o (printf)
/home/joelphilip/Documents/C2S/Trisul32/vega-sdk/bsp/libvega.a(rawfloat.o)
                              /home/joelphilip/Documents/C2S/Trisul32/vega-sdk/bsp/libvega.a(stdlib.o) (ecvtbuf)
/home/joelphilip/Documents/C2S/Trisul32/vega-sdk/bsp/libvega.a(crt.o)
                              (_start)
/home/joelphilip/Documents/C2S/Trisul32/vega-sdk/bsp/libvega.a(debug_uart.o)
                              /home/joelphilip/Documents/C2S/Trisul32/vega-sdk/bsp/libvega.a(stdlib.o) (tx_uart)
/home/joelphilip/Documents/C2S/Trisul32/vega-sdk/bsp/libvega.a(interrupt.o)
                              /home/joelphilip/Documents/C2S/Trisul32/vega-sdk/bsp/libvega.a(crt.o) (interrupt_handler)
/home/joelphilip/Documents/C2S/Trisul32/vega-tools/toolchain/bin/../lib/gcc/riscv32-vega-elf/14.2.0/../../../../riscv32-vega-elf/lib/libc.a(libc_a-strnlen.o)
                              /home/joelphilip/Documents/C2S/Trisul32/vega-sdk/bsp/libvega.a(stdlib.o) (strnlen)
/home/joelphilip/Documents/C2S/Trisul32/vega-tools/toolchain/bin/../lib/gcc/riscv32-vega-elf/14.2.0/../../../../riscv32-vega-elf/lib/libc.a(libc_a-memset.o)
                              build/./main.o (memset)
/home/joelphilip/Documents/C2S/Trisul32/vega-tools/toolchain/bin/../lib/gcc/riscv32-vega-elf/14.2.0/../../../../riscv32-vega-elf/lib/libc.a(libc_a-memcpy.o)
                              /home/joelphilip/Documents/C2S/Trisul32/vega-sdk/bsp/libvega.a(stdlib.o) (memcpy)
/home/joelphilip/Documents/C2S/Trisul32/vega-tools/toolchain/bin/../lib/gcc/riscv32-vega-elf/14.2.0/../../../../riscv32-vega-elf/lib/libc.a(libm_a-s_modf.o)
                              /home/joelphilip/Documents/C2S/Trisul32/vega-sdk/bsp/libvega.a(rawfloat.o) (modf)
/home/joelphilip/Documents/C2S/Trisul32/vega-tools/toolchain/bin/../lib/gcc/riscv32-vega-elf/14.2.0/../../../../riscv32-vega-elf/lib/libc.a(libm_a-s_fpclassify.o)
                              /home/joelphilip/Documents/C2S/Trisul32/vega-tools/toolchain/bin/../lib/gcc/riscv32-vega-elf/14.2.0/../../../../riscv32-vega-elf/lib/libc.a(libm_a-s_modf.o) (__fpclassifyd)
/home/joelphilip/Documents/C2S/Trisul32/vega-tools/toolchain/bin/../lib/gcc/riscv32-vega-elf/14.2.0/libgcc.a(adddf3.o)
                              /home/joelphilip/Documents/C2S/Trisul32/vega-sdk/bsp/libvega.a(rawfloat.o) (__adddf3)
/home/joelphilip/Documents/C2S/Trisul32/vega-tools/toolchain/bin/../lib/gcc/riscv32-vega-elf/14.2.0/libgcc.a(divdf3.o)
                              /home/joelphilip/Documents/C2S/Trisul32/vega-sdk/bsp/libvega.a(rawfloat.o) (__divdf3)
/home/joelphilip/Documents/C2S/Trisul32/vega-tools/toolchain/bin/../lib/gcc/riscv32-vega-elf/14.2.0/libgcc.a(eqdf2.o)
                              /home/joelphilip/Documents/C2S/Trisul32/vega-sdk/bsp/libvega.a(stdlib.o) (__eqdf2)
/home/joelphilip/Documents/C2S/Trisul32/vega-tools/toolchain/bin/../lib/gcc/riscv32-vega-elf/14.2.0/libgcc.a(gedf2.o)
                              /home/joelphilip/Documents/C2S/Trisul32/vega-sdk/bsp/libvega.a(rawfloat.o) (__gtdf2)
/home/joelphilip/Documents/C2S/Trisul32/vega-tools/toolchain/bin/../lib/gcc/riscv32-vega-elf/14.2.0/libgcc.a(ledf2.o)
                              build/./soft_uart.o (__ltdf2)
/home/joelphilip/Documents/C2S/Trisul32/vega-tools/toolchain/bin/../lib/gcc/riscv32-vega-elf/14.2.0/libgcc.a(muldf3.o)
                              build/./soft_uart.o (__muldf3)
/home/joelphilip/Documents/C2S/Trisul32/vega-tools/toolchain/bin/../lib/gcc/riscv32-vega-elf/14.2.0/libgcc.a(subdf3.o)
                              /home/joelphilip/Documents/C2S/Trisul32/vega-tools/toolchain/bin/../lib/gcc/riscv32-vega-elf/14.2.0/../../../../riscv32-vega-elf/lib/libc.a(libm_a-s_modf.o) (__subdf3)
/home/joelphilip/Documents/C2S/Trisul32/vega-tools/toolchain/bin/../lib/gcc/riscv32-vega-elf/14.2.0/libgcc.a(fixdfsi.o)
                              /home/joelphilip/Documents/C2S/Trisul32/vega-sdk/bsp/libvega.a(rawfloat.o) (__fixdfsi)
/home/joelphilip/Documents/C2S/Trisul32/vega-tools/toolchain/bin/../lib/gcc/riscv32-vega-elf/14.2.0/libgcc.a(floatunsidf.o)
                              build/./soft_uart.o (__floatunsidf)
/home/joelphilip/Documents/C2S/Trisul32/vega-tools/toolchain/bin/../lib/gcc/riscv32-vega-elf/14.2.0/libgcc.a(addsf3.o)
                              /home/joelphilip/Documents/C2S/Trisul32/vega-sdk/bsp/libvega.a(stdlib.o) (__addsf3)
/home/joelphilip/Documents/C2S/Trisul32/vega-tools/toolchain/bin/../lib/gcc/riscv32-vega-elf/14.2.0/libgcc.a(divsf3.o)
                              /home/joelphilip/Documents/C2S/Trisul32/vega-sdk/bsp/libvega.a(stdlib.o) (__divsf3)
/home/joelphilip/Documents/C2S/Trisul32/vega-tools/toolchain/bin/../lib/gcc/riscv32-vega-elf/14.2.0/libgcc.a(mulsf3.o)
                              /home/joelphilip/Documents/C2S/Trisul32/vega-sdk/bsp/libvega.a(stdlib.o) (__mulsf3)
/home/joelphilip/Documents/C2S/Trisul32/vega-tools/toolchain/bin/../lib/gcc/riscv32-vega-elf/14.2.0/libgcc.a(floatsisf.o)
                              /home/joelphilip/Documents/C2S/Trisul32/vega-sdk/bsp/libvega.a(stdlib.o) (__floatsisf)
/home/joelphilip/Documents/C2S/Trisul32/vega-tools/toolchain/bin/../lib/gcc/riscv32-vega-elf/14.2.0/libgcc.a(_clzsi2.o)
                              /home/joelphilip/Documents/C2S/Trisul32/vega-tools/toolchain/bin/../lib/gcc/riscv32-vega-elf/14.2.0/libgcc.a(adddf3.o) (__clzsi2)
/home/joelphilip/Documents/C2S/Trisul32/vega-tools/toolchain/bin/../lib/gcc/riscv32-vega-elf/14.2.0/libgcc.a(_clz.o)
                              /home/joelphilip/Documents/C2S/Trisul32/vega-tools/toolchain/bin/../lib/gcc/riscv32-vega-elf/14.2.0/libgcc.a(_clzsi2.o) (__clz_tab)

Discarded input sections

 .text          0x00000000        0x0 build/./main.o
 .data          0x00000000        0x0 build/./main.o
 .bss           0x00000000        0x0 build/./main.o
 .text          0x00000000        0x0 build/./soft_uart.o
 .data          0x00000000        0x0 build/./soft_uart.o
 .bss           0x00000000        0x0 build/./soft_uart.o
 .data          0x00000000        0x0 /home/joelphilip/Documents/C2S/Trisul32/vega-sdk/bsp/libvega.a(stdlib.o)
 .bss           0x00000000       0x10 /home/joelphilip/Documents/C2S/Trisul32/vega-sdk/bsp/libvega.a(stdlib.o)
 .data          0x00000000        0x0 /home/joelphilip/Documents/C2S/Trisul32/vega-sdk/bsp/libvega.a(rawfloat.o)
 .text          0x00000000        0x0 /home/joelphilip/Documents/C2S/Trisul32/vega-sdk/bsp/libvega.a(crt.o)
 .data          0x00000000        0x0 /home/joelphilip/Documents/C2S/Trisul32/vega-sdk/bsp/libvega.a(crt.o)
 .bss           0x00000000        0x0 /home/joelphilip/Documents/C2S/Trisul32/vega-sdk/bsp/libvega.a(crt.o)
 .INTERRUPT_isr_sect_0
                0x00000000      0x108 /home/joelphilip/Documents/C2S/Trisul32/vega-sdk/bsp/libvega.a(crt.o)
 .data          0x00000000        0x0 /home/joelphilip/Documents/C2S/Trisul32/vega-sdk/bsp/libvega.a(debug_uart.o)
 .bss           0x00000000        0x0 /home/joelphilip/Documents/C2S/Trisul32/vega-sdk/bsp/libvega.a(debug_uart.o)
 .text          0x00000000      0x2c8 /home/joelphilip/Documents/C2S/Trisul32/vega-sdk/bsp/libvega.a(interrupt.o)
 .data          0x00000000        0x0 /home/joelphilip/Documents/C2S/Trisul32/vega-sdk/bsp/libvega.a(interrupt.o)
 .bss           0x00000000      0x100 /home/joelphilip/Documents/C2S/Trisul32/vega-sdk/bsp/libvega.a(interrupt.o)
 .sbss          0x00000000        0x4 /home/joelphilip/Documents/C2S/Trisul32/vega-sdk/bsp/libvega.a(interrupt.o)
 .comment       0x00000000       0x1a /home/joelphilip/Documents/C2S/Trisul32/vega-sdk/bsp/libvega.a(interrupt.o)
 .note.GNU-stack
                0x00000000        0x0 /home/joelphilip/Documents/C2S/Trisul32/vega-sdk/bsp/libvega.a(interrupt.o)
 .riscv.attributes
                0x00000000       0x4f /home/joelphilip/Documents/C2S/Trisul32/vega-sdk/bsp/libvega.a(interrupt.o)
 .text          0x00000000        0x0 /home/joelphilip/Documents/C2S/Trisul32/vega-tools/toolchain/bin/../lib/gcc/riscv32-vega-elf/14.2.0/../../../../riscv32-vega-elf/lib/libc.a(libc_a-strnlen.o)
 .data          0x00000000        0x0 /home/joelphilip/Documents/C2S/Trisul32/vega-tools/toolchain/bin/../lib/gcc/riscv32-vega-elf/14.2.0/../../../../riscv32-vega-elf/lib/libc.a(libc_a-strnlen.o)
 .bss           0x00000000        0x0 /home/joelphilip/Documents/C2S/Trisul32/vega-tools/toolchain/bin/../lib/gcc/riscv32-vega-elf/14.2.0/../../../../riscv32-vega-elf/lib/libc.a(libc_a-strnlen.o)
 .data          0x00000000        0x0 /home/joelphilip/Documents/C2S/Trisul32/vega-tools/toolchain/bin/../lib/gcc/riscv32-vega-elf/14.2.0/../../../../riscv32-vega-elf/lib/libc.a(libc_a-memset.o)
 .bss           0x00000000        0x0 /home/joelphilip/Documents/C2S/Trisul32/vega-tools/toolchain/bin/../lib/gcc/riscv32-vega-elf/14.2.0/../../../../riscv32-vega-elf/lib/libc.a(libc_a-memset.o)
 .text          0x00000000        0x0 /home/joelphilip/Documents/C2S/Trisul32/vega-tools/toolchain/bin/../lib/gcc/riscv32-vega-elf/14.2.0/../../../../riscv32-vega-elf/lib/libc.a(libc_a-memcpy.o)
 .data          0x00000000        0x0 /home/joelphilip/Documents/C2S/Trisul32/vega-tools/toolchain/bin/../lib/gcc/riscv32-vega-elf/14.2.0/../../../../riscv32-vega-elf/lib/libc.a(libc_a-memcpy.o)
 .bss           0x00000000        0x0 /home/joelphilip/Documents/C2S/Trisul32/vega-tools/toolchain/bin/../lib/gcc/riscv32-vega-elf/14.2.0/../../../../riscv32-vega-elf/lib/libc.a(libc_a-memcpy.o)
 .text          0x00000000        0x0 /home/joelphilip/Documents/C2S/Trisul32/vega-tools/toolchain/bin/../lib/gcc/riscv32-vega-elf/14.2.0/../../../../riscv32-vega-elf/lib/libc.a(libm_a-s_modf.o)
 .data          0x00000000        0x0 /home/joelphilip/Documents/C2S/Trisul32/vega-tools/toolchain/bin/../lib/gcc/riscv32-vega-elf/14.2.0/../../../../riscv32-vega-elf/lib/libc.a(libm_a-s_modf.o)
 .bss           0x00000000        0x0 /home/joelphilip/Documents/C2S/Trisul32/vega-tools/toolchain/bin/../lib/gcc/riscv32-vega-elf/14.2.0/../../../../riscv32-vega-elf/lib/libc.a(libm_a-s_modf.o)
 .text          0x00000000        0x0 /home/joelphilip/Documents/C2S/Trisul32/vega-tools/toolchain/bin/../lib/gcc/riscv32-vega-elf/14.2.0/../../../../riscv32-vega-elf/lib/libc.a(libm_a-s_fpclassify.o)
 .data          0x00000000        0x0 /home/joelphilip/Documents/C2S/Trisul32/vega-tools/toolchain/bin/../lib/gcc/riscv32-vega-elf/14.2.0/../../../../riscv32-vega-elf/lib/libc.a(libm_a-s_fpclassify.o)
 .bss           0x00000000        0x0 /home/joelphilip/Documents/C2S/Trisul32/vega-tools/toolchain/bin/../lib/gcc/riscv32-vega-elf/14.2.0/../../../../riscv32-vega-elf/lib/libc.a(libm_a-s_fpclassify.o)
 .data          0x00000000        0x0 /home/joelphilip/Documents/C2S/Trisul32/vega-tools/toolchain/bin/../lib/gcc/riscv32-vega-elf/14.2.0/libgcc.a(adddf3.o)
 .bss           0x00000000        0x0 /home/joelphilip/Documents/C2S/Trisul32/vega-tools/toolchain/bin/../lib/gcc/riscv32-vega-elf/14.2.0/libgcc.a(adddf3.o)
 .data          0x00000000        0x0 /home/joelphilip/Documents/C2S/Trisul32/vega-tools/toolchain/bin/../lib/gcc/riscv32-vega-elf/14.2.0/libgcc.a(divdf3.o)
 .bss           0x00000000        0x0 /home/joelphilip/Documents/C2S/Trisul32/vega-tools/toolchain/bin/../lib/gcc/riscv32-vega-elf/14.2.0/libgcc.a(divdf3.o)
 .data          0x00000000        0x0 /home/joelphilip/Documents/C2S/Trisul32/vega-tools/toolchain/bin/../lib/gcc/riscv32-vega-elf/14.2.0/libgcc.a(eqdf2.o)
 .bss           0x00000000        0x0 /home/joelphilip/Documents/C2S/Trisul32/vega-tools/toolchain/bin/../lib/gcc/riscv32-vega-elf/14.2.0/libgcc.a(eqdf2.o)
 .data          0x00000000        0x0 /home/joelphilip/Documents/C2S/Trisul32/vega-tools/toolchain/bin/../lib/gcc/riscv32-vega-elf/14.2.0/libgcc.a(gedf2.o)
 .bss           0x00000000        0x0 /home/joelphilip/Documents/C2S/Trisul32/vega-tools/toolchain/bin/../lib/gcc/riscv32-vega-elf/14.2.0/libgcc.a(gedf2.o)
 .data          0x00000000        0x0 /home/joelphilip/Documents/C2S/Trisul32/vega-tools/toolchain/bin/../lib/gcc/riscv32-vega-elf/14.2.0/libgcc.a(ledf2.o)
 .bss           0x00000000        0x0 /home/joelphilip/Documents/C2S/Trisul32/vega-tools/toolchain/bin/../lib/gcc/riscv32-vega-elf/14.2.0/libgcc.a(ledf2.o)
 .data          0x00000000        0x0 /home/joelphilip/Documents/C2S/Trisul32/vega-tools/toolchain/bin/../lib/gcc/riscv32-vega-elf/14.2.0/libgcc.a(muldf3.o)
 .bss           0x00000000        0x0 /home/joelphilip/Documents/C2S/Trisul32/vega-tools/toolchain/bin/../lib/gcc/riscv32-vega-elf/14.2.0/libgcc.a(muldf3.o)
 .data          0x00000000        0x0 /home/joelphilip/Documents/C2S/Trisul32/vega-tools/toolchain/bin/../lib/gcc/riscv32-vega-elf/14.2.0/libgcc.a(subdf3.o)
 .bss           0x00000000        0x0 /home/joelphilip/Documents/C2S/Trisul32/vega-tools/toolchain/bin/../lib/gcc/riscv32-vega-elf/14.2.0/libgcc.a(subdf3.o)
 .data          0x00000000        0x0 /home/joelphilip/Documents/C2S/Trisul32/vega-tools/toolchain/bin/../lib/gcc/riscv32-vega-elf/14.2.0/libgcc.a(fixdfsi.o)
 .bss           0x00000000        0x0 /home/joelphilip/Documents/C2S/Trisul32/vega-tools/toolchain/bin/../lib/gcc/riscv32-vega-elf/14.2.0/libgcc.a(fixdfsi.o)
 .data          0x00000000        0x0 /home/joelphilip/Documents/C2S/Trisul32/vega-tools/toolchain/bin/../lib/gcc/riscv32-vega-elf/14.2.0/libgcc.a(floatunsidf.o)
 .bss           0x00000000        0x0 /home/joelphilip/Documents/C2S/Trisul32/vega-tools/toolchain/bin/../lib/gcc/riscv32-vega-elf/14.2.0/libgcc.a(floatunsidf.o)
 .data          0x00000000        0x0 /home/joelphilip/Documents/C2S/Trisul32/vega-tools/toolchain/bin/../lib/gcc/riscv32-vega-elf/14.2.0/libgcc.a(addsf3.o)
 .bss           0x00000000        0x0 /home/joelphilip/Documents/C2S/Trisul32/vega-tools/toolchain/bin/../lib/gcc/riscv32-vega-elf/14.2.0/libgcc.a(addsf3.o)
 .data          0x00000000        0x0 /home/joelphilip/Documents/C2S/Trisul32/vega-tools/toolchain/bin/../lib/gcc/riscv32-vega-elf/14.2.0/libgcc.a(divsf3.o)
 .bss           0x00000000        0x0 /home/joelphilip/Documents/C2S/Trisul32/vega-tools/toolchain/bin/../lib/gcc/riscv32-vega-elf/14.2.0/libgcc.a(divsf3.o)
 .data          0x00000000        0x0 /home/joelphilip/Documents/C2S/Trisul32/vega-tools/toolchain/bin/../lib/gcc/riscv32-vega-elf/14.2.0/libgcc.a(mulsf3.o)
 .bss           0x00000000        0x0 /home/joelphilip/Documents/C2S/Trisul32/vega-tools/toolchain/bin/../lib/gcc/riscv32-vega-elf/14.2.0/libgcc.a(mulsf3.o)
 .data          0x00000000        0x0 /home/joelphilip/Documents/C2S/Trisul32/vega-tools/toolchain/bin/../lib/gcc/riscv32-vega-elf/14.2.0/libgcc.a(floatsisf.o)
 .bss           0x00000000        0x0 /home/joelphilip/Documents/C2S/Trisul32/vega-tools/toolchain/bin/../lib/gcc/riscv32-vega-elf/14.2.0/libgcc.a(floatsisf.o)
 .data          0x00000000        0x0 /home/joelphilip/Documents/C2S/Trisul32/vega-tools/toolchain/bin/../lib/gcc/riscv32-vega-elf/14.2.0/libgcc.a(_clzsi2.o)
 .bss           0x00000000        0x0 /home/joelphilip/Documents/C2S/Trisul32/vega-tools/toolchain/bin/../lib/gcc/riscv32-vega-elf/14.2.0/libgcc.a(_clzsi2.o)
 .text          0x00000000        0x0 /home/joelphilip/Documents/C2S/Trisul32/vega-tools/toolchain/bin/../lib/gcc/riscv32-vega-elf/14.2.0/libgcc.a(_clz.o)
 .data          0x00000000        0x0 /home/joelphilip/Documents/C2S/Trisul32/vega-tools/toolchain/bin/../lib/gcc/riscv32-vega-elf/14.2.0/libgcc.a(_clz.o)
 .bss           0x00000000        0x0 /home/joelphilip/Documents/C2S/Trisul32/vega-tools/toolchain/bin/../lib/gcc/riscv32-vega-elf/14.2.0/libgcc.a(_clz.o)

Memory Configuration

Name             Origin             Length             Attributes
*default*        0x00000000         0xffffffff

Linker script and memory map

LOAD build/./main.o
LOAD build/./soft_uart.o
START GROUP
LOAD /home/joelphilip/Documents/C2S/Trisul32/vega-sdk/bsp/libvega.a
LOAD /home/joelphilip/Documents/C2S/Trisul32/vega-tools/toolchain/bin/../lib/gcc/riscv32-vega-elf/14.2.0/../../../../riscv32-vega-elf/lib/libc.a
LOAD /home/joelphilip/Documents/C2S/Trisul32/vega-tools/toolchain/bin/../lib/gcc/riscv32-vega-elf/14.2.0/libgcc.a
LOAD /home/joelphilip/Documents/C2S/Trisul32/vega-tools/toolchain/bin/../lib/gcc/riscv32-vega-elf/14.2.0/../../../../riscv32-vega-elf/lib/libm.a
END GROUP
LOAD /home/joelphilip/Documents/C2S/Trisul32/vega-tools/toolchain/bin/../lib/gcc/riscv32-vega-elf/14.2.0/libgcc.a
START GROUP
LOAD /home/joelphilip/Documents/C2S/Trisul32/vega-tools/toolchain/bin/../lib/gcc/riscv32-vega-elf/14.2.0/../../../../riscv32-vega-elf/lib/libc.a
LOAD /home/joelphilip/Documents/C2S/Trisul32/vega-tools/toolchain/bin/../lib/gcc/riscv32-vega-elf/14.2.0/../../../../riscv32-vega-elf/lib/libgloss.a
END GROUP
LOAD /home/joelphilip/Documents/C2S/Trisul32/vega-tools/toolchain/bin/../lib/gcc/riscv32-vega-elf/14.2.0/libgcc.a
                0x00002000                        __heap_size = 0x2000
                0x00020000                        . = 0x20000

.text.init      0x00020000      0x210
 *(.text.init)
 .text.init     0x00020000      0x210 /home/joelphilip/Documents/C2S/Trisul32/vega-sdk/bsp/libvega.a(crt.o)
                0x00020000                _start
                0x000200ec                trap_entry

.text           0x00020210     0x5ca8
 *(.text)
 .text          0x00020210     0x244c /home/joelphilip/Documents/C2S/Trisul32/vega-sdk/bsp/libvega.a(stdlib.o)
                0x00020210                handle_trap
                0x000202c0                exit
                0x000202e4                abort
                0x00020314                printstr
                0x00020348                thread_entry
                0x0002045c                _init
                0x0002049c                putchar
                0x000204ec                printhex
                0x0002079c                atoi
                0x00020828                atof
                0x0002096c                _usleep
                0x000209d8                udelay
                0x00020a38                usleep
                0x00020aac                get_time
                0x00022408                puts
                0x00022490                printf
                0x00022548                sprintf
                0x000225bc                _sbrk
 .text          0x0002265c      0x654 /home/joelphilip/Documents/C2S/Trisul32/vega-sdk/bsp/libvega.a(rawfloat.o)
                0x00022b30                ecvt
                0x00022b90                ecvtbuf
                0x00022bf0                fcvt
                0x00022c50                fcvtbuf
 .text          0x00022cb0      0x66c /home/joelphilip/Documents/C2S/Trisul32/vega-sdk/bsp/libvega.a(debug_uart.o)
                0x00022cb0                init_uart
                0x00022d0c                tx_uart
                0x00022d74                rx_uart
                0x00022dc8                get_decimal
                0x00022fe8                get_long_int
                0x0002319c                get_hex
 .text          0x0002331c       0xdc /home/joelphilip/Documents/C2S/Trisul32/vega-tools/toolchain/bin/../lib/gcc/riscv32-vega-elf/14.2.0/../../../../riscv32-vega-elf/lib/libc.a(libc_a-memset.o)
                0x0002331c                memset
 .text          0x000233f8      0x780 /home/joelphilip/Documents/C2S/Trisul32/vega-tools/toolchain/bin/../lib/gcc/riscv32-vega-elf/14.2.0/libgcc.a(adddf3.o)
                0x000233f8                __adddf3
 .text          0x00023b78      0x6bc /home/joelphilip/Documents/C2S/Trisul32/vega-tools/toolchain/bin/../lib/gcc/riscv32-vega-elf/14.2.0/libgcc.a(divdf3.o)
                0x00023b78                __divdf3
 .text          0x00024234       0x8c /home/joelphilip/Documents/C2S/Trisul32/vega-tools/toolchain/bin/../lib/gcc/riscv32-vega-elf/14.2.0/libgcc.a(eqdf2.o)
                0x00024234                __eqdf2
                0x00024234                __nedf2
 .text          0x000242c0       0xd0 /home/joelphilip/Documents/C2S/Trisul32/vega-tools/toolchain/bin/../lib/gcc/riscv32-vega-elf/14.2.0/libgcc.a(gedf2.o)
                0x000242c0                __gtdf2
                0x000242c0                __gedf2
 .text          0x00024390       0xd0 /home/joelphilip/Documents/C2S/Trisul32/vega-tools/toolchain/bin/../lib/gcc/riscv32-vega-elf/14.2.0/libgcc.a(ledf2.o)
                0x00024390                __ltdf2
                0x00024390                __ledf2
 .text          0x00024460      0x5f4 /home/joelphilip/Documents/C2S/Trisul32/vega-tools/toolchain/bin/../lib/gcc/riscv32-vega-elf/14.2.0/libgcc.a(muldf3.o)
                0x00024460                __muldf3
 .text          0x00024a54      0x790 /home/joelphilip/Documents/C2S/Trisul32/vega-tools/toolchain/bin/../lib/gcc/riscv32-vega-elf/14.2.0/libgcc.a(subdf3.o)
                0x00024a54                __subdf3
 .text          0x000251e4       0x80 /home/joelphilip/Documents/C2S/Trisul32/vega-tools/toolchain/bin/../lib/gcc/riscv32-vega-elf/14.2.0/libgcc.a(fixdfsi.o)
                0x000251e4                __fixdfsi
 .text          0x00025264       0x90 /home/joelphilip/Documents/C2S/Trisul32/vega-tools/toolchain/bin/../lib/gcc/riscv32-vega-elf/14.2.0/libgcc.a(floatunsidf.o)
                0x00025264                __floatunsidf
 .text          0x000252f4      0x430 /home/joelphilip/Documents/C2S/Trisul32/vega-tools/toolchain/bin/../lib/gcc/riscv32-vega-elf/14.2.0/libgcc.a(addsf3.o)
                0x000252f4                __addsf3
 .text          0x00025724      0x31c /home/joelphilip/Documents/C2S/Trisul32/vega-tools/toolchain/bin/../lib/gcc/riscv32-vega-elf/14.2.0/libgcc.a(divsf3.o)
                0x00025724                __divsf3
 .text          0x00025a40      0x31c /home/joelphilip/Documents/C2S/Trisul32/vega-tools/toolchain/bin/../lib/gcc/riscv32-vega-elf/14.2.0/libgcc.a(mulsf3.o)
                0x00025a40                __mulsf3
 .text          0x00025d5c      0x110 /home/joelphilip/Documents/C2S/Trisul32/vega-tools/toolchain/bin/../lib/gcc/riscv32-vega-elf/14.2.0/libgcc.a(floatsisf.o)
                0x00025d5c                __floatsisf
 .text          0x00025e6c       0x4c /home/joelphilip/Documents/C2S/Trisul32/vega-tools/toolchain/bin/../lib/gcc/riscv32-vega-elf/14.2.0/libgcc.a(_clzsi2.o)
                0x00025e6c                __clzsi2

.text.main      0x00025eb8       0x88
 .text.main     0x00025eb8       0x88 build/./main.o
                0x00025eb8                main

.text.tunedDelay
                0x00025f40       0xc8
 .text.tunedDelay
                0x00025f40       0xc8 build/./soft_uart.o
                0x00025f40                tunedDelay

.text.setWireInput
                0x00026008      0x100
 .text.setWireInput
                0x00026008      0x100 build/./soft_uart.o
                0x00026008                setWireInput

.text.setWireOutput
                0x00026108       0xe0
 .text.setWireOutput
                0x00026108       0xe0 build/./soft_uart.o
                0x00026108                setWireOutput

.text.setGpioPin
                0x000261e8       0xc0
 .text.setGpioPin
                0x000261e8       0xc0 build/./soft_uart.o
                0x000261e8                setGpioPin

.text.getGpioPin
                0x000262a8      0x110
 .text.getGpioPin
                0x000262a8      0x110 build/./soft_uart.o
                0x000262a8                getGpioPin

.text.soft_uart1
                0x000263b8       0x7c
 .text.soft_uart1
                0x000263b8       0x7c build/./soft_uart.o
                0x000263b8                soft_uart1

.text.soft_uart_getchar
                0x00026434      0x118
 .text.soft_uart_getchar
                0x00026434      0x118 build/./soft_uart.o
                0x00026434                soft_uart_getchar

.text.soft_uart_putchar
                0x0002654c       0xd4
 .text.soft_uart_putchar
                0x0002654c       0xd4 build/./soft_uart.o
                0x0002654c                soft_uart_putchar

.text.soft_uart_send
                0x00026620       0x58
 .text.soft_uart_send
                0x00026620       0x58 build/./soft_uart.o
                0x00026620                soft_uart_send

.text.soft_uart_receive
                0x00026678       0x5c
 .text.soft_uart_receive
                0x00026678       0x5c build/./soft_uart.o
                0x00026678                soft_uart_receive

.text.strnlen   0x000266d4       0x30
 .text.strnlen  0x000266d4       0x30 /home/joelphilip/Documents/C2S/Trisul32/vega-tools/toolchain/bin/../lib/gcc/riscv32-vega-elf/14.2.0/../../../../riscv32-vega-elf/lib/libc.a(libc_a-strnlen.o)
                0x000266d4                strnlen

.text.memcpy    0x00026704      0x128
 .text.memcpy   0x00026704      0x128 /home/joelphilip/Documents/C2S/Trisul32/vega-tools/toolchain/bin/../lib/gcc/riscv32-vega-elf/14.2.0/../../../../riscv32-vega-elf/lib/libc.a(libc_a-memcpy.o)
                0x00026704                memcpy

.text.modf      0x0002682c      0x1b8
 .text.modf     0x0002682c      0x1b8 /home/joelphilip/Documents/C2S/Trisul32/vega-tools/toolchain/bin/../lib/gcc/riscv32-vega-elf/14.2.0/../../../../riscv32-vega-elf/lib/libc.a(libm_a-s_modf.o)
                0x0002682c                modf

.text.__fpclassifyd
                0x000269e4       0x70
 .text.__fpclassifyd
                0x000269e4       0x70 /home/joelphilip/Documents/C2S/Trisul32/vega-tools/toolchain/bin/../lib/gcc/riscv32-vega-elf/14.2.0/../../../../riscv32-vega-elf/lib/libc.a(libm_a-s_fpclassify.o)
                0x000269e4                __fpclassifyd

.rodata         0x00026a58      0x4c8
 .rodata        0x00026a58       0xf9 build/./main.o
 *fill*         0x00026b51        0x7 
 .rodata        0x00026b58       0x28 build/./soft_uart.o
 .rodata        0x00026b80      0x20c /home/joelphilip/Documents/C2S/Trisul32/vega-sdk/bsp/libvega.a(stdlib.o)
 *fill*         0x00026d8c        0x4 
 .rodata        0x00026d90       0x18 /home/joelphilip/Documents/C2S/Trisul32/vega-sdk/bsp/libvega.a(rawfloat.o)
 .rodata        0x00026da8       0x3c /home/joelphilip/Documents/C2S/Trisul32/vega-tools/toolchain/bin/../lib/gcc/riscv32-vega-elf/14.2.0/libgcc.a(divdf3.o)
 .rodata        0x00026de4       0x3c /home/joelphilip/Documents/C2S/Trisul32/vega-tools/toolchain/bin/../lib/gcc/riscv32-vega-elf/14.2.0/libgcc.a(divsf3.o)
 .rodata        0x00026e20      0x100 /home/joelphilip/Documents/C2S/Trisul32/vega-tools/toolchain/bin/../lib/gcc/riscv32-vega-elf/14.2.0/libgcc.a(_clz.o)
                0x00026e20                __clz_tab

.rela.dyn       0x00026f20        0x0
 .rela.got      0x00026f20        0x0 build/./main.o
 .rela.text     0x00026f20        0x0 build/./main.o
 .rela.sdata    0x00026f20        0x0 build/./main.o
 .rela.text.init
                0x00026f20        0x0 build/./main.o

.data
 *(.data)

.got            0x00026f20       0x10
 .got           0x00026f20       0x10 build/./main.o
                0x00026f20                _GLOBAL_OFFSET_TABLE_

.got.plt        0x00026f30        0x8
 .got.plt       0x00026f30        0x8 build/./main.o

.sdata          0x00026f38       0x14
                0x00027738                        __global_pointer$ = (. + 0x800)
 *(.srodata.cst16)
 *(.srodata.cst8)
 *(.srodata.cst4)
 *(.srodata.cst2)
 *(.srodata*)
 *(.sdata .sdata.* .gnu.linkonce.s.*)
 .sdata.gpioDirAddr1
                0x00026f38        0x4 build/./soft_uart.o
                0x00026f38                gpioDirAddr1
 .sdata.gpioDirAddr2
                0x00026f3c        0x4 build/./soft_uart.o
                0x00026f3c                gpioDirAddr2
 .sdata         0x00026f40        0xc /home/joelphilip/Documents/C2S/Trisul32/vega-sdk/bsp/libvega.a(stdlib.o)
                0x00026f4c                        _bss_start = .

.sbss           0x00026f4c        0x8
 *(.sbss .sbss.* .gnu.linkonce.sb.*)
 .sbss.TX       0x00026f4c        0x1 build/./soft_uart.o
                0x00026f4c                TX
 .sbss.RX       0x00026f4d        0x1 build/./soft_uart.o
                0x00026f4d                RX
 *fill*         0x00026f4e        0x2 
 .sbss          0x00026f50        0x4 /home/joelphilip/Documents/C2S/Trisul32/vega-sdk/bsp/libvega.a(stdlib.o)
                0x00026f50                loop_count
 *(.scommon)

.bss            0x00026f54       0x50
 *(.bss)
 .bss           0x00026f54       0x50 /home/joelphilip/Documents/C2S/Trisul32/vega-sdk/bsp/libvega.a(rawfloat.o)
                0x00026fa4                        _bss_end = .

.tdata          0x00026fa4        0x0
                0x00026fa4                        _tls_data = .
 *(.tdata.begin)
 .tdata.begin   0x00026fa4        0x0 /home/joelphilip/Documents/C2S/Trisul32/vega-sdk/bsp/libvega.a(crt.o)
 *(.tdata)
 *(.tdata.end)
 .tdata.end     0x00026fa4        0x0 /home/joelphilip/Documents/C2S/Trisul32/vega-sdk/bsp/libvega.a(crt.o)

.tbss           0x00026fa4        0x0
 *(.tbss)
 *(.tbss.end)
 .tbss.end      0x00026fa4        0x0 /home/joelphilip/Documents/C2S/Trisul32/vega-sdk/bsp/libvega.a(crt.o)

.heap           0x00026fa4        0x0
                0x00028fa4                        PROVIDE (_heap_end = (. + __heap_size))
                0x00026fa4                        _end = .
OUTPUT(build/software_serial.elf elf32-littleriscv)

.comment        0x00000000       0x2b
 .comment       0x00000000       0x2b build/./main.o
                                 0x1a (size before relaxing)
 .comment       0x0000002b       0x1a build/./soft_uart.o
 .comment       0x0000002b       0x1a /home/joelphilip/Documents/C2S/Trisul32/vega-sdk/bsp/libvega.a(stdlib.o)
 .comment       0x0000002b       0x1a /home/joelphilip/Documents/C2S/Trisul32/vega-sdk/bsp/libvega.a(rawfloat.o)
 .comment       0x0000002b       0x1a /home/joelphilip/Documents/C2S/Trisul32/vega-sdk/bsp/libvega.a(debug_uart.o)
 .comment       0x0000002b       0x13 /home/joelphilip/Documents/C2S/Trisul32/vega-tools/toolchain/bin/../lib/gcc/riscv32-vega-elf/14.2.0/../../../../riscv32-vega-elf/lib/libc.a(libc_a-strnlen.o)
 .comment       0x0000002b       0x13 /home/joelphilip/Documents/C2S/Trisul32/vega-tools/toolchain/bin/../lib/gcc/riscv32-vega-elf/14.2.0/../../../../riscv32-vega-elf/lib/libc.a(libc_a-memcpy.o)
 .comment       0x0000002b       0x13 /home/joelphilip/Documents/C2S/Trisul32/vega-tools/toolchain/bin/../lib/gcc/riscv32-vega-elf/14.2.0/../../../../riscv32-vega-elf/lib/libc.a(libm_a-s_modf.o)
 .comment       0x0000002b       0x13 /home/joelphilip/Documents/C2S/Trisul32/vega-tools/toolchain/bin/../lib/gcc/riscv32-vega-elf/14.2.0/../../../../riscv32-vega-elf/lib/libc.a(libm_a-s_fpclassify.o)
 .comment       0x0000002b       0x1a /home/joelphilip/Documents/C2S/Trisul32/vega-tools/toolchain/bin/../lib/gcc/riscv32-vega-elf/14.2.0/libgcc.a(adddf3.o)
 .comment       0x0000002b       0x1a /home/joelphilip/Documents/C2S/Trisul32/vega-tools/toolchain/bin/../lib/gcc/riscv32-vega-elf/14.2.0/libgcc.a(divdf3.o)
 .comment       0x0000002b       0x1a /home/joelphilip/Documents/C2S/Trisul32/vega-tools/toolchain/bin/../lib/gcc/riscv32-vega-elf/14.2.0/libgcc.a(eqdf2.o)
 .comment       0x0000002b       0x1a /home/joelphilip/Documents/C2S/Trisul32/vega-tools/toolchain/bin/../lib/gcc/riscv32-vega-elf/14.2.0/libgcc.a(gedf2.o)
 .comment       0x0000002b       0x1a /home/joelphilip/Documents/C2S/Trisul32/vega-tools/toolchain/bin/../lib/gcc/riscv32-vega-elf/14.2.0/libgcc.a(ledf2.o)
 .comment       0x0000002b       0x1a /home/joelphilip/Documents/C2S/Trisul32/vega-tools/toolchain/bin/../lib/gcc/riscv32-vega-elf/14.2.0/libgcc.a(muldf3.o)
 .comment       0x0000002b       0x1a /home/joelphilip/Documents/C2S/Trisul32/vega-tools/toolchain/bin/../lib/gcc/riscv32-vega-elf/14.2.0/libgcc.a(subdf3.o)
 .comment       0x0000002b       0x1a /home/joelphilip/Documents/C2S/Trisul32/vega-tools/toolchain/bin/../lib/gcc/riscv32-vega-elf/14.2.0/libgcc.a(fixdfsi.o)
 .comment       0x0000002b       0x1a /home/joelphilip/Documents/C2S/Trisul32/vega-tools/toolchain/bin/../lib/gcc/riscv32-vega-elf/14.2.0/libgcc.a(floatunsidf.o)
 .comment       0x0000002b       0x1a /home/joelphilip/Documents/C2S/Trisul32/vega-tools/toolchain/bin/../lib/gcc/riscv32-vega-elf/14.2.0/libgcc.a(addsf3.o)
 .comment       0x0000002b       0x1a /home/joelphilip/Documents/C2S/Trisul32/vega-tools/toolchain/bin/../lib/gcc/riscv32-vega-elf/14.2.0/libgcc.a(divsf3.o)
 .comment       0x0000002b       0x1a /home/joelphilip/Documents/C2S/Trisul32/vega-tools/toolchain/bin/../lib/gcc/riscv32-vega-elf/14.2.0/libgcc.a(mulsf3.o)
 .comment       0x0000002b       0x1a /home/joelphilip/Documents/C2S/Trisul32/vega-tools/toolchain/bin/../lib/gcc/riscv32-vega-elf/14.2.0/libgcc.a(floatsisf.o)
 .comment       0x0000002b       0x1a /home/joelphilip/Documents/C2S/Trisul32/vega-tools/toolchain/bin/../lib/gcc/riscv32-vega-elf/14.2.0/libgcc.a(_clzsi2.o)
 .comment       0x0000002b       0x1a /home/joelphilip/Documents/C2S/Trisul32/vega-tools/toolchain/bin/../lib/gcc/riscv32-vega-elf/14.2.0/libgcc.a(_clz.o)

.note.GNU-stack
                0x00000000        0x0
 .note.GNU-stack
                0x00000000        0x0 build/./main.o
 .note.GNU-stack
                0x00000000        0x0 build/./soft_uart.o
 .note.GNU-stack
                0x00000000        0x0 /home/joelphilip/Documents/C2S/Trisul32/vega-sdk/bsp/libvega.a(stdlib.o)
 .note.GNU-stack
                0x00000000        0x0 /home/joelphilip/Documents/C2S/Trisul32/vega-sdk/bsp/libvega.a(rawfloat.o)
 .note.GNU-stack
                0x00000000        0x0 /home/joelphilip/Documents/C2S/Trisul32/vega-sdk/bsp/libvega.a(debug_uart.o)
 .note.GNU-stack
                0x00000000        0x0 /home/joelphilip/Documents/C2S/Trisul32/vega-tools/toolchain/bin/../lib/gcc/riscv32-vega-elf/14.2.0/../../../../riscv32-vega-elf/lib/libc.a(libc_a-strnlen.o)
 .note.GNU-stack
                0x00000000        0x0 /home/joelphilip/Documents/C2S/Trisul32/vega-tools/toolchain/bin/../lib/gcc/riscv32-vega-elf/14.2.0/../../../../riscv32-vega-elf/lib/libc.a(libc_a-memcpy.o)
 .note.GNU-stack
                0x00000000        0x0 /home/joelphilip/Documents/C2S/Trisul32/vega-tools/toolchain/bin/../lib/gcc/riscv32-vega-elf/14.2.0/../../../../riscv32-vega-elf/lib/libc.a(libm_a-s_modf.o)
 .note.GNU-stack
                0x00000000        0x0 /home/joelphilip/Documents/C2S/Trisul32/vega-tools/toolchain/bin/../lib/gcc/riscv32-vega-elf/14.2.0/../../../../riscv32-vega-elf/lib/libc.a(libm_a-s_fpclassify.o)
 .note.GNU-stack
                0x00000000        0x0 /home/joelphilip/Documents/C2S/Trisul32/vega-tools/toolchain/bin/../lib/gcc/riscv32-vega-elf/14.2.0/libgcc.a(adddf3.o)
 .note.GNU-stack
                0x00000000        0x0 /home/joelphilip/Documents/C2S/Trisul32/vega-tools/toolchain/bin/../lib/gcc/riscv32-vega-elf/14.2.0/libgcc.a(divdf3.o)
 .note.GNU-stack
                0x00000000        0x0 /home/joelphilip/Documents/C2S/Trisul32/vega-tools/toolchain/bin/../lib/gcc/riscv32-vega-elf/14.2.0/libgcc.a(eqdf2.o)
 .note.GNU-stack
                0x00000000        0x0 /home/joelphilip/Documents/C2S/Trisul32/vega-tools/toolchain/bin/../lib/gcc/riscv32-vega-elf/14.2.0/libgcc.a(gedf2.o)
 .note.GNU-stack
                0x00000000        0x0 /home/joelphilip/Documents/C2S/Trisul32/vega-tools/toolchain/bin/../lib/gcc/riscv32-vega-elf/14.2.0/libgcc.a(ledf2.o)
 .note.GNU-stack
                0x00000000        0x0 /home/joelphilip/Documents/C2S/Trisul32/vega-tools/toolchain/bin/../lib/gcc/riscv32-vega-elf/14.2.0/libgcc.a(muldf3.o)
 .note.GNU-stack
                0x00000000        0x0 /home/joelphilip/Documents/C2S/Trisul32/vega-tools/toolchain/bin/../lib/gcc/riscv32-vega-elf/14.2.0/libgcc.a(subdf3.o)
 .note.GNU-stack
                0x00000000        0x0 /home/joelphilip/Documents/C2S/Trisul32/vega-tools/toolchain/bin/../lib/gcc/riscv32-vega-elf/14.2.0/libgcc.a(fixdfsi.o)
 .note.GNU-stack
                0x00000000        0x0 /home/joelphilip/Documents/C2S/Trisul32/vega-tools/toolchain/bin/../lib/gcc/riscv32-vega-elf/14.2.0/libgcc.a(floatunsidf.o)
 .note.GNU-stack
                0x00000000        0x0 /home/joelphilip/Documents/C2S/Trisul32/vega-tools/toolchain/bin/../lib/gcc/riscv32-vega-elf/14.2.0/libgcc.a(addsf3.o)
 .note.GNU-stack
                0x00000000        0x0 /home/joelphilip/Documents/C2S/Trisul32/vega-tools/toolchain/bin/../lib/gcc/riscv32-vega-elf/14.2.0/libgcc.a(divsf3.o)
 .note.GNU-stack
                0x00000000        0x0 /home/joelphilip/Documents/C2S/Trisul32/vega-tools/toolchain/bin/../lib/gcc/riscv32-vega-elf/14.2.0/libgcc.a(mulsf3.o)
 .note.GNU-stack
                0x00000000        0x0 /home/joelphilip/Documents/C2S/Trisul32/vega-tools/toolchain/bin/../lib/gcc/riscv32-vega-elf/14.2.0/libgcc.a(floatsisf.o)
 .note.GNU-stack
                0x00000000        0x0 /home/joelphilip/Documents/C2S/Trisul32/vega-tools/toolchain/bin/../lib/gcc/riscv32-vega-elf/14.2.0/libgcc.a(_clzsi2.o)
 .note.GNU-stack
                0x00000000        0x0 /home/joelphilip/Documents/C2S/Trisul32/vega-tools/toolchain/bin/../lib/gcc/riscv32-vega-elf/14.2.0/libgcc.a(_clz.o)

.riscv.attributes
                0x00000000       0x4f
 .riscv.attributes
                0x00000000       0x4b build/./main.o
 .riscv.attributes
                0x0000004b       0x4f build/./soft_uart.o
 .riscv.attributes
                0x0000009a       0x4f /home/joelphilip/Documents/C2S/Trisul32/vega-sdk/bsp/libvega.a(stdlib.o)
 .riscv.attributes
                0x000000e9       0x4b /home/joelphilip/Documents/C2S/Trisul32/vega-sdk/bsp/libvega.a(rawfloat.o)
 .riscv.attributes
                0x00000134       0x4d /home/joelphilip/Documents/C2S/Trisul32/vega-sdk/bsp/libvega.a(crt.o)
 .riscv.attributes
                0x00000181       0x4b /home/joelphilip/Documents/C2S/Trisul32/vega-sdk/bsp/libvega.a(debug_uart.o)
 .riscv.attributes
                0x000001cc       0x4b /home/joelphilip/Documents/C2S/Trisul32/vega-tools/toolchain/bin/../lib/gcc/riscv32-vega-elf/14.2.0/../../../../riscv32-vega-elf/lib/libc.a(libc_a-strnlen.o)
 .riscv.attributes
                0x00000217       0x49 /home/joelphilip/Documents/C2S/Trisul32/vega-tools/toolchain/bin/../lib/gcc/riscv32-vega-elf/14.2.0/../../../../riscv32-vega-elf/lib/libc.a(libc_a-memset.o)
 .riscv.attributes
                0x00000260       0x4b /home/joelphilip/Documents/C2S/Trisul32/vega-tools/toolchain/bin/../lib/gcc/riscv32-vega-elf/14.2.0/../../../../riscv32-vega-elf/lib/libc.a(libc_a-memcpy.o)
 .riscv.attributes
                0x000002ab       0x4b /home/joelphilip/Documents/C2S/Trisul32/vega-tools/toolchain/bin/../lib/gcc/riscv32-vega-elf/14.2.0/../../../../riscv32-vega-elf/lib/libc.a(libm_a-s_modf.o)
 .riscv.attributes
                0x000002f6       0x4b /home/joelphilip/Documents/C2S/Trisul32/vega-tools/toolchain/bin/../lib/gcc/riscv32-vega-elf/14.2.0/../../../../riscv32-vega-elf/lib/libc.a(libm_a-s_fpclassify.o)
 .riscv.attributes
                0x00000341       0x4b /home/joelphilip/Documents/C2S/Trisul32/vega-tools/toolchain/bin/../lib/gcc/riscv32-vega-elf/14.2.0/libgcc.a(adddf3.o)
 .riscv.attributes
                0x0000038c       0x4b /home/joelphilip/Documents/C2S/Trisul32/vega-tools/toolchain/bin/../lib/gcc/riscv32-vega-elf/14.2.0/libgcc.a(divdf3.o)
 .riscv.attributes
                0x000003d7       0x4b /home/joelphilip/Documents/C2S/Trisul32/vega-tools/toolchain/bin/../lib/gcc/riscv32-vega-elf/14.2.0/libgcc.a(eqdf2.o)
 .riscv.attributes
                0x00000422       0x4b /home/joelphilip/Documents/C2S/Trisul32/vega-tools/toolchain/bin/../lib/gcc/riscv32-vega-elf/14.2.0/libgcc.a(gedf2.o)
 .riscv.attributes
                0x0000046d       0x4b /home/joelphilip/Documents/C2S/Trisul32/vega-tools/toolchain/bin/../lib/gcc/riscv32-vega-elf/14.2.0/libgcc.a(ledf2.o)
 .riscv.attributes
                0x000004b8       0x4b /home/joelphilip/Documents/C2S/Trisul32/vega-tools/toolchain/bin/../lib/gcc/riscv32-vega-elf/14.2.0/libgcc.a(muldf3.o)
 .riscv.attributes
                0x00000503       0x4b /home/joelphilip/Documents/C2S/Trisul32/vega-tools/toolchain/bin/../lib/gcc/riscv32-vega-elf/14.2.0/libgcc.a(subdf3.o)
 .riscv.attributes
                0x0000054e       0x4b /home/joelphilip/Documents/C2S/Trisul32/vega-tools/toolchain/bin/../lib/gcc/riscv32-vega-elf/14.2.0/libgcc.a(fixdfsi.o)
 .riscv.attributes
                0x00000599       0x4b /home/joelphilip/Documents/C2S/Trisul32/vega-tools/toolchain/bin/../lib/gcc/riscv32-vega-elf/14.2.0/libgcc.a(floatunsidf.o)
 .riscv.attributes
                0x000005e4       0x4b /home/joelphilip/Documents/C2S/Trisul32/vega-tools/toolchain/bin/../lib/gcc/riscv32-vega-elf/14.2.0/libgcc.a(addsf3.o)
 .riscv.attributes
                0x0000062f       0x4b /home/joelphilip/Documents/C2S/Trisul32/vega-tools/toolchain/bin/../lib/gcc/riscv32-vega-elf/14.2.0/libgcc.a(divsf3.o)
 .riscv.attributes
                0x0000067a       0x4b /home/joelphilip/Documents/C2S/Trisul32/vega-tools/toolchain/bin/../lib/gcc/riscv32-vega-elf/14.2.0/libgcc.a(mulsf3.o)
 .riscv.attributes
                0x000006c5       0x4b /home/joelphilip/Documents/C2S/Trisul32/vega-tools/toolchain/bin/../lib/gcc/riscv32-vega-elf/14.2.0/libgcc.a(floatsisf.o)
 .riscv.attributes
                0x00000710       0x4b /home/joelphilip/Documents/C2S/Trisul32/vega-tools/toolchain/bin/../lib/gcc/riscv32-vega-elf/14.2.0/libgcc.a(_clzsi2.o)
 .riscv.attributes
                0x0000075b       0x4b /home/joelphilip/Documents/C2S/Trisul32/vega-tools/toolchain/bin/../lib/gcc/riscv32-vega-elf/14.2.0/libgcc.a(_clz.o)

.debug_info     0x00000000     0x2f86
 .debug_info    0x00000000      0x4f6 /home/joelphilip/Documents/C2S/Trisul32/vega-tools/toolchain/bin/../lib/gcc/riscv32-vega-elf/14.2.0/libgcc.a(adddf3.o)
 .debug_info    0x000004f6      0x683 /home/joelphilip/Documents/C2S/Trisul32/vega-tools/toolchain/bin/../lib/gcc/riscv32-vega-elf/14.2.0/libgcc.a(divdf3.o)
 .debug_info    0x00000b79      0x221 /home/joelphilip/Documents/C2S/Trisul32/vega-tools/toolchain/bin/../lib/gcc/riscv32-vega-elf/14.2.0/libgcc.a(eqdf2.o)
 .debug_info    0x00000d9a      0x220 /home/joelphilip/Documents/C2S/Trisul32/vega-tools/toolchain/bin/../lib/gcc/riscv32-vega-elf/14.2.0/libgcc.a(gedf2.o)
 .debug_info    0x00000fba      0x220 /home/joelphilip/Documents/C2S/Trisul32/vega-tools/toolchain/bin/../lib/gcc/riscv32-vega-elf/14.2.0/libgcc.a(ledf2.o)
 .debug_info    0x000011da      0x6ac /home/joelphilip/Documents/C2S/Trisul32/vega-tools/toolchain/bin/../lib/gcc/riscv32-vega-elf/14.2.0/libgcc.a(muldf3.o)
 .debug_info    0x00001886      0x4f2 /home/joelphilip/Documents/C2S/Trisul32/vega-tools/toolchain/bin/../lib/gcc/riscv32-vega-elf/14.2.0/libgcc.a(subdf3.o)
 .debug_info    0x00001d78      0x1c2 /home/joelphilip/Documents/C2S/Trisul32/vega-tools/toolchain/bin/../lib/gcc/riscv32-vega-elf/14.2.0/libgcc.a(fixdfsi.o)
 .debug_info    0x00001f3a      0x25d /home/joelphilip/Documents/C2S/Trisul32/vega-tools/toolchain/bin/../lib/gcc/riscv32-vega-elf/14.2.0/libgcc.a(floatunsidf.o)
 .debug_info    0x00002197      0x2e8 /home/joelphilip/Documents/C2S/Trisul32/vega-tools/toolchain/bin/../lib/gcc/riscv32-vega-elf/14.2.0/libgcc.a(addsf3.o)
 .debug_info    0x0000247f      0x360 /home/joelphilip/Documents/C2S/Trisul32/vega-tools/toolchain/bin/../lib/gcc/riscv32-vega-elf/14.2.0/libgcc.a(divsf3.o)
 .debug_info    0x000027df      0x350 /home/joelphilip/Documents/C2S/Trisul32/vega-tools/toolchain/bin/../lib/gcc/riscv32-vega-elf/14.2.0/libgcc.a(mulsf3.o)
 .debug_info    0x00002b2f      0x213 /home/joelphilip/Documents/C2S/Trisul32/vega-tools/toolchain/bin/../lib/gcc/riscv32-vega-elf/14.2.0/libgcc.a(floatsisf.o)
 .debug_info    0x00002d42      0x157 /home/joelphilip/Documents/C2S/Trisul32/vega-tools/toolchain/bin/../lib/gcc/riscv32-vega-elf/14.2.0/libgcc.a(_clzsi2.o)
 .debug_info    0x00002e99       0xed /home/joelphilip/Documents/C2S/Trisul32/vega-tools/toolchain/bin/../lib/gcc/riscv32-vega-elf/14.2.0/libgcc.a(_clz.o)

.debug_abbrev   0x00000000     0x13bd
 .debug_abbrev  0x00000000      0x186 /home/joelphilip/Documents/C2S/Trisul32/vega-tools/toolchain/bin/../lib/gcc/riscv32-vega-elf/14.2.0/libgcc.a(adddf3.o)
 .debug_abbrev  0x00000186      0x17c /home/joelphilip/Documents/C2S/Trisul32/vega-tools/toolchain/bin/../lib/gcc/riscv32-vega-elf/14.2.0/libgcc.a(divdf3.o)
 .debug_abbrev  0x00000302      0x153 /home/joelphilip/Documents/C2S/Trisul32/vega-tools/toolchain/bin/../lib/gcc/riscv32-vega-elf/14.2.0/libgcc.a(eqdf2.o)
 .debug_abbrev  0x00000455      0x168 /home/joelphilip/Documents/C2S/Trisul32/vega-tools/toolchain/bin/../lib/gcc/riscv32-vega-elf/14.2.0/libgcc.a(gedf2.o)
 .debug_abbrev  0x000005bd      0x168 /home/joelphilip/Documents/C2S/Trisul32/vega-tools/toolchain/bin/../lib/gcc/riscv32-vega-elf/14.2.0/libgcc.a(ledf2.o)
 .debug_abbrev  0x00000725      0x185 /home/joelphilip/Documents/C2S/Trisul32/vega-tools/toolchain/bin/../lib/gcc/riscv32-vega-elf/14.2.0/libgcc.a(muldf3.o)
 .debug_abbrev  0x000008aa      0x186 /home/joelphilip/Documents/C2S/Trisul32/vega-tools/toolchain/bin/../lib/gcc/riscv32-vega-elf/14.2.0/libgcc.a(subdf3.o)
 .debug_abbrev  0x00000a30      0x15f /home/joelphilip/Documents/C2S/Trisul32/vega-tools/toolchain/bin/../lib/gcc/riscv32-vega-elf/14.2.0/libgcc.a(fixdfsi.o)
 .debug_abbrev  0x00000b8f      0x163 /home/joelphilip/Documents/C2S/Trisul32/vega-tools/toolchain/bin/../lib/gcc/riscv32-vega-elf/14.2.0/libgcc.a(floatunsidf.o)
 .debug_abbrev  0x00000cf2      0x17d /home/joelphilip/Documents/C2S/Trisul32/vega-tools/toolchain/bin/../lib/gcc/riscv32-vega-elf/14.2.0/libgcc.a(addsf3.o)
 .debug_abbrev  0x00000e6f      0x14c /home/joelphilip/Documents/C2S/Trisul32/vega-tools/toolchain/bin/../lib/gcc/riscv32-vega-elf/14.2.0/libgcc.a(divsf3.o)
 .debug_abbrev  0x00000fbb      0x15b /home/joelphilip/Documents/C2S/Trisul32/vega-tools/toolchain/bin/../lib/gcc/riscv32-vega-elf/14.2.0/libgcc.a(mulsf3.o)
 .debug_abbrev  0x00001116      0x16d /home/joelphilip/Documents/C2S/Trisul32/vega-tools/toolchain/bin/../lib/gcc/riscv32-vega-elf/14.2.0/libgcc.a(floatsisf.o)
 .debug_abbrev  0x00001283       0xca /home/joelphilip/Documents/C2S/Trisul32/vega-tools/toolchain/bin/../lib/gcc/riscv32-vega-elf/14.2.0/libgcc.a(_clzsi2.o)
 .debug_abbrev  0x0000134d       0x70 /home/joelphilip/Documents/C2S/Trisul32/vega-tools/toolchain/bin/../lib/gcc/riscv32-vega-elf/14.2.0/libgcc.a(_clz.o)

.debug_loclists
                0x00000000     0x3c60
 .debug_loclists
                0x00000000      0xa8e /home/joelphilip/Documents/C2S/Trisul32/vega-tools/toolchain/bin/../lib/gcc/riscv32-vega-elf/14.2.0/libgcc.a(adddf3.o)
 .debug_loclists
                0x00000a8e      0xa17 /home/joelphilip/Documents/C2S/Trisul32/vega-tools/toolchain/bin/../lib/gcc/riscv32-vega-elf/14.2.0/libgcc.a(divdf3.o)
 .debug_loclists
                0x000014a5       0x6f /home/joelphilip/Documents/C2S/Trisul32/vega-tools/toolchain/bin/../lib/gcc/riscv32-vega-elf/14.2.0/libgcc.a(eqdf2.o)
 .debug_loclists
                0x00001514      0x117 /home/joelphilip/Documents/C2S/Trisul32/vega-tools/toolchain/bin/../lib/gcc/riscv32-vega-elf/14.2.0/libgcc.a(gedf2.o)
 .debug_loclists
                0x0000162b      0x117 /home/joelphilip/Documents/C2S/Trisul32/vega-tools/toolchain/bin/../lib/gcc/riscv32-vega-elf/14.2.0/libgcc.a(ledf2.o)
 .debug_loclists
                0x00001742      0x7bb /home/joelphilip/Documents/C2S/Trisul32/vega-tools/toolchain/bin/../lib/gcc/riscv32-vega-elf/14.2.0/libgcc.a(muldf3.o)
 .debug_loclists
                0x00001efd      0xafd /home/joelphilip/Documents/C2S/Trisul32/vega-tools/toolchain/bin/../lib/gcc/riscv32-vega-elf/14.2.0/libgcc.a(subdf3.o)
 .debug_loclists
                0x000029fa       0xac /home/joelphilip/Documents/C2S/Trisul32/vega-tools/toolchain/bin/../lib/gcc/riscv32-vega-elf/14.2.0/libgcc.a(fixdfsi.o)
 .debug_loclists
                0x00002aa6       0xc4 /home/joelphilip/Documents/C2S/Trisul32/vega-tools/toolchain/bin/../lib/gcc/riscv32-vega-elf/14.2.0/libgcc.a(floatunsidf.o)
 .debug_loclists
                0x00002b6a      0x828 /home/joelphilip/Documents/C2S/Trisul32/vega-tools/toolchain/bin/../lib/gcc/riscv32-vega-elf/14.2.0/libgcc.a(addsf3.o)
 .debug_loclists
                0x00003392      0x3c2 /home/joelphilip/Documents/C2S/Trisul32/vega-tools/toolchain/bin/../lib/gcc/riscv32-vega-elf/14.2.0/libgcc.a(divsf3.o)
 .debug_loclists
                0x00003754      0x337 /home/joelphilip/Documents/C2S/Trisul32/vega-tools/toolchain/bin/../lib/gcc/riscv32-vega-elf/14.2.0/libgcc.a(mulsf3.o)
 .debug_loclists
                0x00003a8b      0x191 /home/joelphilip/Documents/C2S/Trisul32/vega-tools/toolchain/bin/../lib/gcc/riscv32-vega-elf/14.2.0/libgcc.a(floatsisf.o)
 .debug_loclists
                0x00003c1c       0x44 /home/joelphilip/Documents/C2S/Trisul32/vega-tools/toolchain/bin/../lib/gcc/riscv32-vega-elf/14.2.0/libgcc.a(_clzsi2.o)

.debug_aranges  0x00000000      0x1d8
 .debug_aranges
                0x00000000       0x20 /home/joelphilip/Documents/C2S/Trisul32/vega-tools/toolchain/bin/../lib/gcc/riscv32-vega-elf/14.2.0/libgcc.a(adddf3.o)
 .debug_aranges
                0x00000020       0x20 /home/joelphilip/Documents/C2S/Trisul32/vega-tools/toolchain/bin/../lib/gcc/riscv32-vega-elf/14.2.0/libgcc.a(divdf3.o)
 .debug_aranges
                0x00000040       0x20 /home/joelphilip/Documents/C2S/Trisul32/vega-tools/toolchain/bin/../lib/gcc/riscv32-vega-elf/14.2.0/libgcc.a(eqdf2.o)
 .debug_aranges
                0x00000060       0x20 /home/joelphilip/Documents/C2S/Trisul32/vega-tools/toolchain/bin/../lib/gcc/riscv32-vega-elf/14.2.0/libgcc.a(gedf2.o)
 .debug_aranges
                0x00000080       0x20 /home/joelphilip/Documents/C2S/Trisul32/vega-tools/toolchain/bin/../lib/gcc/riscv32-vega-elf/14.2.0/libgcc.a(ledf2.o)
 .debug_aranges
                0x000000a0       0x20 /home/joelphilip/Documents/C2S/Trisul32/vega-tools/toolchain/bin/../lib/gcc/riscv32-vega-elf/14.2.0/libgcc.a(muldf3.o)
 .debug_aranges
                0x000000c0       0x20 /home/joelphilip/Documents/C2S/Trisul32/vega-tools/toolchain/bin/../lib/gcc/riscv32-vega-elf/14.2.0/libgcc.a(subdf3.o)
 .debug_aranges
                0x000000e0       0x20 /home/joelphilip/Documents/C2S/Trisul32/vega-tools/toolchain/bin/../lib/gcc/riscv32-vega-elf/14.2.0/libgcc.a(fixdfsi.o)
 .debug_aranges
                0x00000100       0x20 /home/joelphilip/Documents/C2S/Trisul32/vega-tools/toolchain/bin/../lib/gcc/riscv32-vega-elf/14.2.0/libgcc.a(floatunsidf.o)
 .debug_aranges
                0x00000120       0x20 /home/joelphilip/Documents/C2S/Trisul32/vega-tools/toolchain/bin/../lib/gcc/riscv32-vega-elf/14.2.0/libgcc.a(addsf3.o)
 .debug_aranges
                0x00000140       0x20 /home/joelphilip/Documents/C2S/Trisul32/vega-tools/toolchain/bin/../lib/gcc/riscv32-vega-elf/14.2.0/libgcc.a(divsf3.o)
 .debug_aranges
                0x00000160       0x20 /home/joelphilip/Documents/C2S/Trisul32/vega-tools/toolchain/bin/../lib/gcc/riscv32-vega-elf/14.2.0/libgcc.a(mulsf3.o)
 .debug_aranges
                0x00000180       0x20 /home/joelphilip/Documents/C2S/Trisul32/vega-tools/toolchain/bin/../lib/gcc/riscv32-vega-elf/14.2.0/libgcc.a(floatsisf.o)
 .debug_aranges
                0x000001a0       0x20 /home/joelphilip/Documents/C2S/Trisul32/vega-tools/toolchain/bin/../lib/gcc/riscv32-vega-elf/14.2.0/libgcc.a(_clzsi2.o)
 .debug_aranges
                0x000001c0       0x18 /home/joelphilip/Documents/C2S/Trisul32/vega-tools/toolchain/bin/../lib/gcc/riscv32-vega-elf/14.2.0/libgcc.a(_clz.o)

.debug_rnglists
                0x00000000      0x6bc
 .debug_rnglists
                0x00000000       0xf2 /home/joelphilip/Documents/C2S/Trisul32/vega-tools/toolchain/bin/../lib/gcc/riscv32-vega-elf/14.2.0/libgcc.a(adddf3.o)
 .debug_rnglists
                0x000000f2       0xce /home/joelphilip/Documents/C2S/Trisul32/vega-tools/toolchain/bin/../lib/gcc/riscv32-vega-elf/14.2.0/libgcc.a(divdf3.o)
 .debug_rnglists
                0x000001c0       0x23 /home/joelphilip/Documents/C2S/Trisul32/vega-tools/toolchain/bin/../lib/gcc/riscv32-vega-elf/14.2.0/libgcc.a(eqdf2.o)
 .debug_rnglists
                0x000001e3       0x33 /home/joelphilip/Documents/C2S/Trisul32/vega-tools/toolchain/bin/../lib/gcc/riscv32-vega-elf/14.2.0/libgcc.a(gedf2.o)
 .debug_rnglists
                0x00000216       0x33 /home/joelphilip/Documents/C2S/Trisul32/vega-tools/toolchain/bin/../lib/gcc/riscv32-vega-elf/14.2.0/libgcc.a(ledf2.o)
 .debug_rnglists
                0x00000249      0x149 /home/joelphilip/Documents/C2S/Trisul32/vega-tools/toolchain/bin/../lib/gcc/riscv32-vega-elf/14.2.0/libgcc.a(muldf3.o)
 .debug_rnglists
                0x00000392       0xf2 /home/joelphilip/Documents/C2S/Trisul32/vega-tools/toolchain/bin/../lib/gcc/riscv32-vega-elf/14.2.0/libgcc.a(subdf3.o)
 .debug_rnglists
                0x00000484       0x13 /home/joelphilip/Documents/C2S/Trisul32/vega-tools/toolchain/bin/../lib/gcc/riscv32-vega-elf/14.2.0/libgcc.a(fixdfsi.o)
 .debug_rnglists
                0x00000497       0x2d /home/joelphilip/Documents/C2S/Trisul32/vega-tools/toolchain/bin/../lib/gcc/riscv32-vega-elf/14.2.0/libgcc.a(floatunsidf.o)
 .debug_rnglists
                0x000004c4       0xce /home/joelphilip/Documents/C2S/Trisul32/vega-tools/toolchain/bin/../lib/gcc/riscv32-vega-elf/14.2.0/libgcc.a(addsf3.o)
 .debug_rnglists
                0x00000592       0x68 /home/joelphilip/Documents/C2S/Trisul32/vega-tools/toolchain/bin/../lib/gcc/riscv32-vega-elf/14.2.0/libgcc.a(divsf3.o)
 .debug_rnglists
                0x000005fa       0x63 /home/joelphilip/Documents/C2S/Trisul32/vega-tools/toolchain/bin/../lib/gcc/riscv32-vega-elf/14.2.0/libgcc.a(mulsf3.o)
 .debug_rnglists
                0x0000065d       0x49 /home/joelphilip/Documents/C2S/Trisul32/vega-tools/toolchain/bin/../lib/gcc/riscv32-vega-elf/14.2.0/libgcc.a(floatsisf.o)
 .debug_rnglists
                0x000006a6       0x16 /home/joelphilip/Documents/C2S/Trisul32/vega-tools/toolchain/bin/../lib/gcc/riscv32-vega-elf/14.2.0/libgcc.a(_clzsi2.o)

.debug_line     0x00000000     0x76cf
 .debug_line    0x00000000     0x1377 /home/joelphilip/Documents/C2S/Trisul32/vega-tools/toolchain/bin/../lib/gcc/riscv32-vega-elf/14.2.0/libgcc.a(adddf3.o)
 .debug_line    0x00001377     0x110e /home/joelphilip/Documents/C2S/Trisul32/vega-tools/toolchain/bin/../lib/gcc/riscv32-vega-elf/14.2.0/libgcc.a(divdf3.o)
 .debug_line    0x00002485      0x277 /home/joelphilip/Documents/C2S/Trisul32/vega-tools/toolchain/bin/../lib/gcc/riscv32-vega-elf/14.2.0/libgcc.a(eqdf2.o)
 .debug_line    0x000026fc      0x347 /home/joelphilip/Documents/C2S/Trisul32/vega-tools/toolchain/bin/../lib/gcc/riscv32-vega-elf/14.2.0/libgcc.a(gedf2.o)
 .debug_line    0x00002a43      0x347 /home/joelphilip/Documents/C2S/Trisul32/vega-tools/toolchain/bin/../lib/gcc/riscv32-vega-elf/14.2.0/libgcc.a(ledf2.o)
 .debug_line    0x00002d8a      0xf02 /home/joelphilip/Documents/C2S/Trisul32/vega-tools/toolchain/bin/../lib/gcc/riscv32-vega-elf/14.2.0/libgcc.a(muldf3.o)
 .debug_line    0x00003c8c     0x1384 /home/joelphilip/Documents/C2S/Trisul32/vega-tools/toolchain/bin/../lib/gcc/riscv32-vega-elf/14.2.0/libgcc.a(subdf3.o)
 .debug_line    0x00005010      0x1df /home/joelphilip/Documents/C2S/Trisul32/vega-tools/toolchain/bin/../lib/gcc/riscv32-vega-elf/14.2.0/libgcc.a(fixdfsi.o)
 .debug_line    0x000051ef      0x223 /home/joelphilip/Documents/C2S/Trisul32/vega-tools/toolchain/bin/../lib/gcc/riscv32-vega-elf/14.2.0/libgcc.a(floatunsidf.o)
 .debug_line    0x00005412      0xd4c /home/joelphilip/Documents/C2S/Trisul32/vega-tools/toolchain/bin/../lib/gcc/riscv32-vega-elf/14.2.0/libgcc.a(addsf3.o)
 .debug_line    0x0000615e      0x8cd /home/joelphilip/Documents/C2S/Trisul32/vega-tools/toolchain/bin/../lib/gcc/riscv32-vega-elf/14.2.0/libgcc.a(divsf3.o)
 .debug_line    0x00006a2b      0x810 /home/joelphilip/Documents/C2S/Trisul32/vega-tools/toolchain/bin/../lib/gcc/riscv32-vega-elf/14.2.0/libgcc.a(mulsf3.o)
 .debug_line    0x0000723b      0x37a /home/joelphilip/Documents/C2S/Trisul32/vega-tools/toolchain/bin/../lib/gcc/riscv32-vega-elf/14.2.0/libgcc.a(floatsisf.o)
 .debug_line    0x000075b5       0xdb /home/joelphilip/Documents/C2S/Trisul32/vega-tools/toolchain/bin/../lib/gcc/riscv32-vega-elf/14.2.0/libgcc.a(_clzsi2.o)
 .debug_line    0x00007690       0x3f /home/joelphilip/Documents/C2S/Trisul32/vega-tools/toolchain/bin/../lib/gcc/riscv32-vega-elf/14.2.0/libgcc.a(_clz.o)

.debug_str      0x00000000      0x7cd
 .debug_str     0x00000000      0x7cd /home/joelphilip/Documents/C2S/Trisul32/vega-tools/toolchain/bin/../lib/gcc/riscv32-vega-elf/14.2.0/libgcc.a(adddf3.o)
                                0x2ae (size before relaxing)
 .debug_str     0x000007cd      0x370 /home/joelphilip/Documents/C2S/Trisul32/vega-tools/toolchain/bin/../lib/gcc/riscv32-vega-elf/14.2.0/libgcc.a(divdf3.o)
 .debug_str     0x000007cd      0x1c0 /home/joelphilip/Documents/C2S/Trisul32/vega-tools/toolchain/bin/../lib/gcc/riscv32-vega-elf/14.2.0/libgcc.a(eqdf2.o)
 .debug_str     0x000007cd      0x1e4 /home/joelphilip/Documents/C2S/Trisul32/vega-tools/toolchain/bin/../lib/gcc/riscv32-vega-elf/14.2.0/libgcc.a(gedf2.o)
 .debug_str     0x000007cd      0x1e4 /home/joelphilip/Documents/C2S/Trisul32/vega-tools/toolchain/bin/../lib/gcc/riscv32-vega-elf/14.2.0/libgcc.a(ledf2.o)
 .debug_str     0x000007cd      0x3c8 /home/joelphilip/Documents/C2S/Trisul32/vega-tools/toolchain/bin/../lib/gcc/riscv32-vega-elf/14.2.0/libgcc.a(muldf3.o)
 .debug_str     0x000007cd      0x2ae /home/joelphilip/Documents/C2S/Trisul32/vega-tools/toolchain/bin/../lib/gcc/riscv32-vega-elf/14.2.0/libgcc.a(subdf3.o)
 .debug_str     0x000007cd      0x1bb /home/joelphilip/Documents/C2S/Trisul32/vega-tools/toolchain/bin/../lib/gcc/riscv32-vega-elf/14.2.0/libgcc.a(fixdfsi.o)
 .debug_str     0x000007cd      0x253 /home/joelphilip/Documents/C2S/Trisul32/vega-tools/toolchain/bin/../lib/gcc/riscv32-vega-elf/14.2.0/libgcc.a(floatunsidf.o)
 .debug_str     0x000007cd      0x271 /home/joelphilip/Documents/C2S/Trisul32/vega-tools/toolchain/bin/../lib/gcc/riscv32-vega-elf/14.2.0/libgcc.a(addsf3.o)
 .debug_str     0x000007cd      0x2db /home/joelphilip/Documents/C2S/Trisul32/vega-tools/toolchain/bin/../lib/gcc/riscv32-vega-elf/14.2.0/libgcc.a(divsf3.o)
 .debug_str     0x000007cd      0x296 /home/joelphilip/Documents/C2S/Trisul32/vega-tools/toolchain/bin/../lib/gcc/riscv32-vega-elf/14.2.0/libgcc.a(mulsf3.o)
 .debug_str     0x000007cd      0x239 /home/joelphilip/Documents/C2S/Trisul32/vega-tools/toolchain/bin/../lib/gcc/riscv32-vega-elf/14.2.0/libgcc.a(floatsisf.o)
 .debug_str     0x000007cd      0x1de /home/joelphilip/Documents/C2S/Trisul32/vega-tools/toolchain/bin/../lib/gcc/riscv32-vega-elf/14.2.0/libgcc.a(_clzsi2.o)
 .debug_str     0x000007cd      0x1c1 /home/joelphilip/Documents/C2S/Trisul32/vega-tools/toolchain/bin/../lib/gcc/riscv32-vega-elf/14.2.0/libgcc.a(_clz.o)

.debug_line_str
                0x00000000      0x2d4
 .debug_line_str
                0x00000000      0x2d4 /home/joelphilip/Documents/C2S/Trisul32/vega-tools/toolchain/bin/../lib/gcc/riscv32-vega-elf/14.2.0/libgcc.a(adddf3.o)
                                 0xf2 (size before relaxing)
 .debug_line_str
                0x000002d4       0xfc /home/joelphilip/Documents/C2S/Trisul32/vega-tools/toolchain/bin/../lib/gcc/riscv32-vega-elf/14.2.0/libgcc.a(divdf3.o)
 .debug_line_str
                0x000002d4       0xff /home/joelphilip/Documents/C2S/Trisul32/vega-tools/toolchain/bin/../lib/gcc/riscv32-vega-elf/14.2.0/libgcc.a(eqdf2.o)
 .debug_line_str
                0x000002d4       0xff /home/joelphilip/Documents/C2S/Trisul32/vega-tools/toolchain/bin/../lib/gcc/riscv32-vega-elf/14.2.0/libgcc.a(gedf2.o)
 .debug_line_str
                0x000002d4       0xff /home/joelphilip/Documents/C2S/Trisul32/vega-tools/toolchain/bin/../lib/gcc/riscv32-vega-elf/14.2.0/libgcc.a(ledf2.o)
 .debug_line_str
                0x000002d4       0xfc /home/joelphilip/Documents/C2S/Trisul32/vega-tools/toolchain/bin/../lib/gcc/riscv32-vega-elf/14.2.0/libgcc.a(muldf3.o)
 .debug_line_str
                0x000002d4       0xf2 /home/joelphilip/Documents/C2S/Trisul32/vega-tools/toolchain/bin/../lib/gcc/riscv32-vega-elf/14.2.0/libgcc.a(subdf3.o)
 .debug_line_str
                0x000002d4       0xff /home/joelphilip/Documents/C2S/Trisul32/vega-tools/toolchain/bin/../lib/gcc/riscv32-vega-elf/14.2.0/libgcc.a(fixdfsi.o)
 .debug_line_str
                0x000002d4      0x10b /home/joelphilip/Documents/C2S/Trisul32/vega-tools/toolchain/bin/../lib/gcc/riscv32-vega-elf/14.2.0/libgcc.a(floatunsidf.o)
 .debug_line_str
                0x000002d4       0xf2 /home/joelphilip/Documents/C2S/Trisul32/vega-tools/toolchain/bin/../lib/gcc/riscv32-vega-elf/14.2.0/libgcc.a(addsf3.o)
 .debug_line_str
                0x000002d4       0xf2 /home/joelphilip/Documents/C2S/Trisul32/vega-tools/toolchain/bin/../lib/gcc/riscv32-vega-elf/14.2.0/libgcc.a(divsf3.o)
 .debug_line_str
                0x000002d4       0xfc /home/joelphilip/Documents/C2S/Trisul32/vega-tools/toolchain/bin/../lib/gcc/riscv32-vega-elf/14.2.0/libgcc.a(mulsf3.o)
 .debug_line_str
                0x000002d4      0x105 /home/joelphilip/Documents/C2S/Trisul32/vega-tools/toolchain/bin/../lib/gcc/riscv32-vega-elf/14.2.0/libgcc.a(floatsisf.o)
 .debug_line_str
                0x000002d4       0xe6 /home/joelphilip/Documents/C2S/Trisul32/vega-tools/toolchain/bin/../lib/gcc/riscv32-vega-elf/14.2.0/libgcc.a(_clzsi2.o)
 .debug_line_str
                0x000002d4       0xe6 /home/joelphilip/Documents/C2S/Trisul32/vega-tools/toolchain/bin/../lib/gcc/riscv32-vega-elf/14.2.0/libgcc.a(_clz.o)

.debug_frame    0x00000000      0x33c
 .debug_frame   0x00000000       0x4c /home/joelphilip/Documents/C2S/Trisul32/vega-tools/toolchain/bin/../lib/gcc/riscv32-vega-elf/14.2.0/libgcc.a(adddf3.o)
 .debug_frame   0x0000004c       0x5c /home/joelphilip/Documents/C2S/Trisul32/vega-tools/toolchain/bin/../lib/gcc/riscv32-vega-elf/14.2.0/libgcc.a(divdf3.o)
 .debug_frame   0x000000a8       0x20 /home/joelphilip/Documents/C2S/Trisul32/vega-tools/toolchain/bin/../lib/gcc/riscv32-vega-elf/14.2.0/libgcc.a(eqdf2.o)
 .debug_frame   0x000000c8       0x20 /home/joelphilip/Documents/C2S/Trisul32/vega-tools/toolchain/bin/../lib/gcc/riscv32-vega-elf/14.2.0/libgcc.a(gedf2.o)
 .debug_frame   0x000000e8       0x20 /home/joelphilip/Documents/C2S/Trisul32/vega-tools/toolchain/bin/../lib/gcc/riscv32-vega-elf/14.2.0/libgcc.a(ledf2.o)
 .debug_frame   0x00000108       0x5c /home/joelphilip/Documents/C2S/Trisul32/vega-tools/toolchain/bin/../lib/gcc/riscv32-vega-elf/14.2.0/libgcc.a(muldf3.o)
 .debug_frame   0x00000164       0x4c /home/joelphilip/Documents/C2S/Trisul32/vega-tools/toolchain/bin/../lib/gcc/riscv32-vega-elf/14.2.0/libgcc.a(subdf3.o)
 .debug_frame   0x000001b0       0x20 /home/joelphilip/Documents/C2S/Trisul32/vega-tools/toolchain/bin/../lib/gcc/riscv32-vega-elf/14.2.0/libgcc.a(fixdfsi.o)
 .debug_frame   0x000001d0       0x3c /home/joelphilip/Documents/C2S/Trisul32/vega-tools/toolchain/bin/../lib/gcc/riscv32-vega-elf/14.2.0/libgcc.a(floatunsidf.o)
 .debug_frame   0x0000020c       0x40 /home/joelphilip/Documents/C2S/Trisul32/vega-tools/toolchain/bin/../lib/gcc/riscv32-vega-elf/14.2.0/libgcc.a(addsf3.o)
 .debug_frame   0x0000024c       0x4c /home/joelphilip/Documents/C2S/Trisul32/vega-tools/toolchain/bin/../lib/gcc/riscv32-vega-elf/14.2.0/libgcc.a(divsf3.o)
 .debug_frame   0x00000298       0x4c /home/joelphilip/Documents/C2S/Trisul32/vega-tools/toolchain/bin/../lib/gcc/riscv32-vega-elf/14.2.0/libgcc.a(mulsf3.o)
 .debug_frame   0x000002e4       0x38 /home/joelphilip/Documents/C2S/Trisul32/vega-tools/toolchain/bin/../lib/gcc/riscv32-vega-elf/14.2.0/libgcc.a(floatsisf.o)
 .debug_frame   0x0000031c       0x20 /home/joelphilip/Documents/C2S/Trisul32/vega-tools/toolchain/bin/../lib/gcc/riscv32-vega-elf/14.2.0/libgcc.a(_clzsi2.o)
