
build/lcd_2004a_demo.elf:     file format elf32-littleriscv


Disassembly of section .text.init:

00020000 <_start>:
   20000:	00000093          	li	ra,0
   20004:	00000113          	li	sp,0
   20008:	00000193          	li	gp,0
   2000c:	00000213          	li	tp,0
   20010:	00000293          	li	t0,0
   20014:	00000313          	li	t1,0
   20018:	00000393          	li	t2,0
   2001c:	00000413          	li	s0,0
   20020:	00000493          	li	s1,0
   20024:	00000513          	li	a0,0
   20028:	00000593          	li	a1,0
   2002c:	00000613          	li	a2,0
   20030:	00000693          	li	a3,0
   20034:	00000713          	li	a4,0
   20038:	00000793          	li	a5,0
   2003c:	00000813          	li	a6,0
   20040:	00000893          	li	a7,0
   20044:	00000913          	li	s2,0
   20048:	00000993          	li	s3,0
   2004c:	00000a13          	li	s4,0
   20050:	00000a93          	li	s5,0
   20054:	00000b13          	li	s6,0
   20058:	00000b93          	li	s7,0
   2005c:	00000c13          	li	s8,0
   20060:	00000c93          	li	s9,0
   20064:	00000d13          	li	s10,0
   20068:	00000d93          	li	s11,0
   2006c:	00000e13          	li	t3,0
   20070:	00000e93          	li	t4,0
   20074:	00000f13          	li	t5,0
   20078:	00000f93          	li	t6,0
   2007c:	00100293          	li	t0,1
   20080:	01f29293          	slli	t0,t0,0x1f
   20084:	0002c463          	bltz	t0,2008c <_start+0x8c>
   20088:	0000006f          	j	20088 <_start+0x88>
   2008c:	00000297          	auipc	t0,0x0
   20090:	06028293          	addi	t0,t0,96 # 200ec <trap_entry>
   20094:	30529073          	csrw	mtvec,t0
   20098:	00007197          	auipc	gp,0x7
   2009c:	64818193          	addi	gp,gp,1608 # 276e0 <__global_pointer$>
   200a0:	00007217          	auipc	tp,0x7
   200a4:	ef720213          	addi	tp,tp,-265 # 26f97 <_bss_end+0x3f>
   200a8:	fc027213          	andi	tp,tp,-64
   200ac:	f1402573          	csrr	a0,mhartid
   200b0:	00100593          	li	a1,1
   200b4:	00b57063          	bgeu	a0,a1,200b4 <_start+0xb4>
   200b8:	00007697          	auipc	a3,0x7
   200bc:	e4068693          	addi	a3,a3,-448 # 26ef8 <displayFunction>
   200c0:	00007717          	auipc	a4,0x7
   200c4:	e9870713          	addi	a4,a4,-360 # 26f58 <_bss_end>
   200c8:	0006a023          	sw	zero,0(a3)
   200cc:	00468693          	addi	a3,a3,4
   200d0:	fed77ce3          	bgeu	a4,a3,200c8 <_start+0xc8>
   200d4:	00f51613          	slli	a2,a0,0xf
   200d8:	00c20233          	add	tp,tp,a2
   200dc:	00150113          	addi	sp,a0,1
   200e0:	00f11113          	slli	sp,sp,0xf
   200e4:	00410133          	add	sp,sp,tp
   200e8:	3740006f          	j	2045c <_init>

000200ec <trap_entry>:
   200ec:	ef010113          	addi	sp,sp,-272
   200f0:	00112223          	sw	ra,4(sp)
   200f4:	00212423          	sw	sp,8(sp)
   200f8:	00312623          	sw	gp,12(sp)
   200fc:	00412823          	sw	tp,16(sp)
   20100:	00512a23          	sw	t0,20(sp)
   20104:	00612c23          	sw	t1,24(sp)
   20108:	00712e23          	sw	t2,28(sp)
   2010c:	02812023          	sw	s0,32(sp)
   20110:	02912223          	sw	s1,36(sp)
   20114:	02a12423          	sw	a0,40(sp)
   20118:	02b12623          	sw	a1,44(sp)
   2011c:	02c12823          	sw	a2,48(sp)
   20120:	02d12a23          	sw	a3,52(sp)
   20124:	02e12c23          	sw	a4,56(sp)
   20128:	02f12e23          	sw	a5,60(sp)
   2012c:	05012023          	sw	a6,64(sp)
   20130:	05112223          	sw	a7,68(sp)
   20134:	05212423          	sw	s2,72(sp)
   20138:	05312623          	sw	s3,76(sp)
   2013c:	05412823          	sw	s4,80(sp)
   20140:	05512a23          	sw	s5,84(sp)
   20144:	05612c23          	sw	s6,88(sp)
   20148:	05712e23          	sw	s7,92(sp)
   2014c:	07812023          	sw	s8,96(sp)
   20150:	07912223          	sw	s9,100(sp)
   20154:	07a12423          	sw	s10,104(sp)
   20158:	07b12623          	sw	s11,108(sp)
   2015c:	07c12823          	sw	t3,112(sp)
   20160:	07d12a23          	sw	t4,116(sp)
   20164:	07e12c23          	sw	t5,120(sp)
   20168:	07f12e23          	sw	t6,124(sp)
   2016c:	34202573          	csrr	a0,mcause
   20170:	341025f3          	csrr	a1,mepc
   20174:	00010613          	mv	a2,sp
   20178:	098000ef          	jal	20210 <handle_trap>
   2017c:	34151073          	csrw	mepc,a0
   20180:	000022b7          	lui	t0,0x2
   20184:	80028293          	addi	t0,t0,-2048 # 1800 <_tbss_end+0x1800>
   20188:	3002a073          	csrs	mstatus,t0
   2018c:	00412083          	lw	ra,4(sp)
   20190:	00812103          	lw	sp,8(sp)
   20194:	00c12183          	lw	gp,12(sp)
   20198:	01012203          	lw	tp,16(sp)
   2019c:	01412283          	lw	t0,20(sp)
   201a0:	01812303          	lw	t1,24(sp)
   201a4:	01c12383          	lw	t2,28(sp)
   201a8:	02012403          	lw	s0,32(sp)
   201ac:	02412483          	lw	s1,36(sp)
   201b0:	02812503          	lw	a0,40(sp)
   201b4:	02c12583          	lw	a1,44(sp)
   201b8:	03012603          	lw	a2,48(sp)
   201bc:	03412683          	lw	a3,52(sp)
   201c0:	03812703          	lw	a4,56(sp)
   201c4:	03c12783          	lw	a5,60(sp)
   201c8:	04012803          	lw	a6,64(sp)
   201cc:	04412883          	lw	a7,68(sp)
   201d0:	04812903          	lw	s2,72(sp)
   201d4:	04c12983          	lw	s3,76(sp)
   201d8:	05012a03          	lw	s4,80(sp)
   201dc:	05412a83          	lw	s5,84(sp)
   201e0:	05812b03          	lw	s6,88(sp)
   201e4:	05c12b83          	lw	s7,92(sp)
   201e8:	06012c03          	lw	s8,96(sp)
   201ec:	06412c83          	lw	s9,100(sp)
   201f0:	06812d03          	lw	s10,104(sp)
   201f4:	06c12d83          	lw	s11,108(sp)
   201f8:	07012e03          	lw	t3,112(sp)
   201fc:	07412e83          	lw	t4,116(sp)
   20200:	07812f03          	lw	t5,120(sp)
   20204:	07c12f83          	lw	t6,124(sp)
   20208:	11010113          	addi	sp,sp,272
   2020c:	30200073          	mret

Disassembly of section .text:

00020210 <handle_trap>:
   20210:	fd010113          	addi	sp,sp,-48
   20214:	02112623          	sw	ra,44(sp)
   20218:	02812423          	sw	s0,40(sp)
   2021c:	03010413          	addi	s0,sp,48
   20220:	fca42e23          	sw	a0,-36(s0)
   20224:	fcb42c23          	sw	a1,-40(s0)
   20228:	fcc42a23          	sw	a2,-44(s0)
   2022c:	00007517          	auipc	a0,0x7
   20230:	90050513          	addi	a0,a0,-1792 # 26b2c <__fpclassifyd+0x244>
   20234:	25c020ef          	jal	22490 <printf>
   20238:	fd842583          	lw	a1,-40(s0)
   2023c:	00007517          	auipc	a0,0x7
   20240:	8fc50513          	addi	a0,a0,-1796 # 26b38 <__fpclassifyd+0x250>
   20244:	24c020ef          	jal	22490 <printf>
   20248:	fdc42583          	lw	a1,-36(s0)
   2024c:	00007517          	auipc	a0,0x7
   20250:	8f850513          	addi	a0,a0,-1800 # 26b44 <__fpclassifyd+0x25c>
   20254:	23c020ef          	jal	22490 <printf>
   20258:	343027f3          	csrr	a5,mtval
   2025c:	fef42423          	sw	a5,-24(s0)
   20260:	fe842783          	lw	a5,-24(s0)
   20264:	00078593          	mv	a1,a5
   20268:	00007517          	auipc	a0,0x7
   2026c:	8ec50513          	addi	a0,a0,-1812 # 26b54 <__fpclassifyd+0x26c>
   20270:	220020ef          	jal	22490 <printf>
   20274:	fe042623          	sw	zero,-20(s0)
   20278:	0380006f          	j	202b0 <handle_trap+0xa0>
   2027c:	fec42783          	lw	a5,-20(s0)
   20280:	00279793          	slli	a5,a5,0x2
   20284:	fd442703          	lw	a4,-44(s0)
   20288:	00f707b3          	add	a5,a4,a5
   2028c:	0007a783          	lw	a5,0(a5)
   20290:	00078613          	mv	a2,a5
   20294:	fec42583          	lw	a1,-20(s0)
   20298:	00007517          	auipc	a0,0x7
   2029c:	8d050513          	addi	a0,a0,-1840 # 26b68 <__fpclassifyd+0x280>
   202a0:	1f0020ef          	jal	22490 <printf>
   202a4:	fec42783          	lw	a5,-20(s0)
   202a8:	00178793          	addi	a5,a5,1
   202ac:	fef42623          	sw	a5,-20(s0)
   202b0:	fec42703          	lw	a4,-20(s0)
   202b4:	01f00793          	li	a5,31
   202b8:	fce7d2e3          	bge	a5,a4,2027c <handle_trap+0x6c>
   202bc:	0000006f          	j	202bc <handle_trap+0xac>

000202c0 <exit>:
   202c0:	fe010113          	addi	sp,sp,-32
   202c4:	00112e23          	sw	ra,28(sp)
   202c8:	00812c23          	sw	s0,24(sp)
   202cc:	02010413          	addi	s0,sp,32
   202d0:	fea42623          	sw	a0,-20(s0)
   202d4:	00007517          	auipc	a0,0x7
   202d8:	8a450513          	addi	a0,a0,-1884 # 26b78 <__fpclassifyd+0x290>
   202dc:	1b4020ef          	jal	22490 <printf>
   202e0:	0000006f          	j	202e0 <exit+0x20>

000202e4 <abort>:
   202e4:	ff010113          	addi	sp,sp,-16
   202e8:	00112623          	sw	ra,12(sp)
   202ec:	00812423          	sw	s0,8(sp)
   202f0:	01010413          	addi	s0,sp,16
   202f4:	00007517          	auipc	a0,0x7
   202f8:	89050513          	addi	a0,a0,-1904 # 26b84 <__fpclassifyd+0x29c>
   202fc:	194020ef          	jal	22490 <printf>
   20300:	00000013          	nop
   20304:	00c12083          	lw	ra,12(sp)
   20308:	00812403          	lw	s0,8(sp)
   2030c:	01010113          	addi	sp,sp,16
   20310:	00008067          	ret

00020314 <printstr>:
   20314:	fe010113          	addi	sp,sp,-32
   20318:	00112e23          	sw	ra,28(sp)
   2031c:	00812c23          	sw	s0,24(sp)
   20320:	02010413          	addi	s0,sp,32
   20324:	fea42623          	sw	a0,-20(s0)
   20328:	00007517          	auipc	a0,0x7
   2032c:	85050513          	addi	a0,a0,-1968 # 26b78 <__fpclassifyd+0x290>
   20330:	160020ef          	jal	22490 <printf>
   20334:	00000013          	nop
   20338:	01c12083          	lw	ra,28(sp)
   2033c:	01812403          	lw	s0,24(sp)
   20340:	02010113          	addi	sp,sp,32
   20344:	00008067          	ret

00020348 <thread_entry>:
   20348:	fe010113          	addi	sp,sp,-32
   2034c:	00112e23          	sw	ra,28(sp)
   20350:	00812c23          	sw	s0,24(sp)
   20354:	02010413          	addi	s0,sp,32
   20358:	fea42623          	sw	a0,-20(s0)
   2035c:	feb42423          	sw	a1,-24(s0)
   20360:	00000013          	nop
   20364:	fec42783          	lw	a5,-20(s0)
   20368:	fe079ee3          	bnez	a5,20364 <thread_entry+0x1c>
   2036c:	00000013          	nop
   20370:	00000013          	nop
   20374:	01c12083          	lw	ra,28(sp)
   20378:	01812403          	lw	s0,24(sp)
   2037c:	02010113          	addi	sp,sp,32
   20380:	00008067          	ret
   20384:	fe010113          	addi	sp,sp,-32
   20388:	00112e23          	sw	ra,28(sp)
   2038c:	00812c23          	sw	s0,24(sp)
   20390:	02010413          	addi	s0,sp,32
   20394:	fea42623          	sw	a0,-20(s0)
   20398:	feb42423          	sw	a1,-24(s0)
   2039c:	00006517          	auipc	a0,0x6
   203a0:	7f450513          	addi	a0,a0,2036 # 26b90 <__fpclassifyd+0x2a8>
   203a4:	f71ff0ef          	jal	20314 <printstr>
   203a8:	fff00793          	li	a5,-1
   203ac:	00078513          	mv	a0,a5
   203b0:	01c12083          	lw	ra,28(sp)
   203b4:	01812403          	lw	s0,24(sp)
   203b8:	02010113          	addi	sp,sp,32
   203bc:	00008067          	ret

000203c0 <init_tls>:
   203c0:	fe010113          	addi	sp,sp,-32
   203c4:	00112e23          	sw	ra,28(sp)
   203c8:	00812c23          	sw	s0,24(sp)
   203cc:	02010413          	addi	s0,sp,32
   203d0:	00007797          	auipc	a5,0x7
   203d4:	afc7a783          	lw	a5,-1284(a5) # 26ecc <_GLOBAL_OFFSET_TABLE_+0x4>
   203d8:	004787b3          	add	a5,a5,tp
   203dc:	00078713          	mv	a4,a5
   203e0:	00007797          	auipc	a5,0x7
   203e4:	af07a783          	lw	a5,-1296(a5) # 26ed0 <_GLOBAL_OFFSET_TABLE_+0x8>
   203e8:	004787b3          	add	a5,a5,tp
   203ec:	40f707b3          	sub	a5,a4,a5
   203f0:	fef42623          	sw	a5,-20(s0)
   203f4:	00020793          	mv	a5,tp
   203f8:	fec42603          	lw	a2,-20(s0)
   203fc:	87818593          	addi	a1,gp,-1928 # 26f58 <_bss_end>
   20400:	00078513          	mv	a0,a5
   20404:	204060ef          	jal	26608 <memcpy>
   20408:	00007797          	auipc	a5,0x7
   2040c:	acc7a783          	lw	a5,-1332(a5) # 26ed4 <_GLOBAL_OFFSET_TABLE_+0xc>
   20410:	004787b3          	add	a5,a5,tp
   20414:	00078713          	mv	a4,a5
   20418:	00007797          	auipc	a5,0x7
   2041c:	ab47a783          	lw	a5,-1356(a5) # 26ecc <_GLOBAL_OFFSET_TABLE_+0x4>
   20420:	004787b3          	add	a5,a5,tp
   20424:	40f707b3          	sub	a5,a4,a5
   20428:	fef42423          	sw	a5,-24(s0)
   2042c:	00020713          	mv	a4,tp
   20430:	fec42783          	lw	a5,-20(s0)
   20434:	00f707b3          	add	a5,a4,a5
   20438:	fe842603          	lw	a2,-24(s0)
   2043c:	00000593          	li	a1,0
   20440:	00078513          	mv	a0,a5
   20444:	6d9020ef          	jal	2331c <memset>
   20448:	00000013          	nop
   2044c:	01c12083          	lw	ra,28(sp)
   20450:	01812403          	lw	s0,24(sp)
   20454:	02010113          	addi	sp,sp,32
   20458:	00008067          	ret

0002045c <_init>:
   2045c:	fd010113          	addi	sp,sp,-48
   20460:	02112623          	sw	ra,44(sp)
   20464:	02812423          	sw	s0,40(sp)
   20468:	03010413          	addi	s0,sp,48
   2046c:	fca42e23          	sw	a0,-36(s0)
   20470:	fcb42c23          	sw	a1,-40(s0)
   20474:	f4dff0ef          	jal	203c0 <init_tls>
   20478:	fd842583          	lw	a1,-40(s0)
   2047c:	fdc42503          	lw	a0,-36(s0)
   20480:	ec9ff0ef          	jal	20348 <thread_entry>
   20484:	00000593          	li	a1,0
   20488:	00000513          	li	a0,0
   2048c:	19d050ef          	jal	25e28 <main>
   20490:	fea42623          	sw	a0,-20(s0)
   20494:	00000513          	li	a0,0
   20498:	e29ff0ef          	jal	202c0 <exit>

0002049c <putchar>:
   2049c:	fe010113          	addi	sp,sp,-32
   204a0:	00112e23          	sw	ra,28(sp)
   204a4:	00812c23          	sw	s0,24(sp)
   204a8:	02010413          	addi	s0,sp,32
   204ac:	fea42623          	sw	a0,-20(s0)
   204b0:	fec42783          	lw	a5,-20(s0)
   204b4:	0ff7f793          	zext.b	a5,a5
   204b8:	00078513          	mv	a0,a5
   204bc:	051020ef          	jal	22d0c <tx_uart>
   204c0:	fec42703          	lw	a4,-20(s0)
   204c4:	00a00793          	li	a5,10
   204c8:	00f71663          	bne	a4,a5,204d4 <putchar+0x38>
   204cc:	00d00513          	li	a0,13
   204d0:	03d020ef          	jal	22d0c <tx_uart>
   204d4:	00000793          	li	a5,0
   204d8:	00078513          	mv	a0,a5
   204dc:	01c12083          	lw	ra,28(sp)
   204e0:	01812403          	lw	s0,24(sp)
   204e4:	02010113          	addi	sp,sp,32
   204e8:	00008067          	ret

000204ec <printhex>:
   204ec:	fc010113          	addi	sp,sp,-64
   204f0:	02112e23          	sw	ra,60(sp)
   204f4:	02812c23          	sw	s0,56(sp)
   204f8:	04010413          	addi	s0,sp,64
   204fc:	fca42623          	sw	a0,-52(s0)
   20500:	fe042623          	sw	zero,-20(s0)
   20504:	0680006f          	j	2056c <printhex+0x80>
   20508:	fcc42783          	lw	a5,-52(s0)
   2050c:	0ff7f793          	zext.b	a5,a5
   20510:	00f7f793          	andi	a5,a5,15
   20514:	0ff7f713          	zext.b	a4,a5
   20518:	fcc42783          	lw	a5,-52(s0)
   2051c:	00f7f693          	andi	a3,a5,15
   20520:	00900793          	li	a5,9
   20524:	00d7e663          	bltu	a5,a3,20530 <printhex+0x44>
   20528:	03000793          	li	a5,48
   2052c:	0080006f          	j	20534 <printhex+0x48>
   20530:	05700793          	li	a5,87
   20534:	00f00613          	li	a2,15
   20538:	fec42683          	lw	a3,-20(s0)
   2053c:	40d606b3          	sub	a3,a2,a3
   20540:	00e787b3          	add	a5,a5,a4
   20544:	0ff7f713          	zext.b	a4,a5
   20548:	ff068793          	addi	a5,a3,-16
   2054c:	008787b3          	add	a5,a5,s0
   20550:	fee78423          	sb	a4,-24(a5)
   20554:	fcc42783          	lw	a5,-52(s0)
   20558:	0047d793          	srli	a5,a5,0x4
   2055c:	fcf42623          	sw	a5,-52(s0)
   20560:	fec42783          	lw	a5,-20(s0)
   20564:	00178793          	addi	a5,a5,1
   20568:	fef42623          	sw	a5,-20(s0)
   2056c:	fec42703          	lw	a4,-20(s0)
   20570:	00f00793          	li	a5,15
   20574:	f8e7dae3          	bge	a5,a4,20508 <printhex+0x1c>
   20578:	fe040423          	sb	zero,-24(s0)
   2057c:	fd840793          	addi	a5,s0,-40
   20580:	00078513          	mv	a0,a5
   20584:	d91ff0ef          	jal	20314 <printstr>
   20588:	00000013          	nop
   2058c:	03c12083          	lw	ra,60(sp)
   20590:	03812403          	lw	s0,56(sp)
   20594:	04010113          	addi	sp,sp,64
   20598:	00008067          	ret

0002059c <getuint>:
   2059c:	fe010113          	addi	sp,sp,-32
   205a0:	00112e23          	sw	ra,28(sp)
   205a4:	00812c23          	sw	s0,24(sp)
   205a8:	02010413          	addi	s0,sp,32
   205ac:	fea42623          	sw	a0,-20(s0)
   205b0:	feb42423          	sw	a1,-24(s0)
   205b4:	fe842603          	lw	a2,-24(s0)
   205b8:	00100693          	li	a3,1
   205bc:	02c6d663          	bge	a3,a2,205e8 <getuint+0x4c>
   205c0:	fec42783          	lw	a5,-20(s0)
   205c4:	0007a783          	lw	a5,0(a5)
   205c8:	00778793          	addi	a5,a5,7
   205cc:	ff87f793          	andi	a5,a5,-8
   205d0:	00878693          	addi	a3,a5,8
   205d4:	fec42703          	lw	a4,-20(s0)
   205d8:	00d72023          	sw	a3,0(a4)
   205dc:	0007a703          	lw	a4,0(a5)
   205e0:	0047a783          	lw	a5,4(a5)
   205e4:	0500006f          	j	20634 <getuint+0x98>
   205e8:	fe842683          	lw	a3,-24(s0)
   205ec:	02068463          	beqz	a3,20614 <getuint+0x78>
   205f0:	fec42683          	lw	a3,-20(s0)
   205f4:	0006a683          	lw	a3,0(a3)
   205f8:	00468593          	addi	a1,a3,4
   205fc:	fec42603          	lw	a2,-20(s0)
   20600:	00b62023          	sw	a1,0(a2)
   20604:	0006a683          	lw	a3,0(a3)
   20608:	00068713          	mv	a4,a3
   2060c:	00000793          	li	a5,0
   20610:	0240006f          	j	20634 <getuint+0x98>
   20614:	fec42683          	lw	a3,-20(s0)
   20618:	0006a683          	lw	a3,0(a3)
   2061c:	00468593          	addi	a1,a3,4
   20620:	fec42603          	lw	a2,-20(s0)
   20624:	00b62023          	sw	a1,0(a2)
   20628:	0006a683          	lw	a3,0(a3)
   2062c:	00068713          	mv	a4,a3
   20630:	00000793          	li	a5,0
   20634:	00070513          	mv	a0,a4
   20638:	00078593          	mv	a1,a5
   2063c:	01c12083          	lw	ra,28(sp)
   20640:	01812403          	lw	s0,24(sp)
   20644:	02010113          	addi	sp,sp,32
   20648:	00008067          	ret

0002064c <getint>:
   2064c:	fe010113          	addi	sp,sp,-32
   20650:	00112e23          	sw	ra,28(sp)
   20654:	00812c23          	sw	s0,24(sp)
   20658:	02010413          	addi	s0,sp,32
   2065c:	fea42623          	sw	a0,-20(s0)
   20660:	feb42423          	sw	a1,-24(s0)
   20664:	fe842603          	lw	a2,-24(s0)
   20668:	00100693          	li	a3,1
   2066c:	02c6d663          	bge	a3,a2,20698 <getint+0x4c>
   20670:	fec42783          	lw	a5,-20(s0)
   20674:	0007a783          	lw	a5,0(a5)
   20678:	00778793          	addi	a5,a5,7
   2067c:	ff87f793          	andi	a5,a5,-8
   20680:	00878693          	addi	a3,a5,8
   20684:	fec42703          	lw	a4,-20(s0)
   20688:	00d72023          	sw	a3,0(a4)
   2068c:	0007a703          	lw	a4,0(a5)
   20690:	0047a783          	lw	a5,4(a5)
   20694:	0580006f          	j	206ec <getint+0xa0>
   20698:	fe842683          	lw	a3,-24(s0)
   2069c:	02068663          	beqz	a3,206c8 <getint+0x7c>
   206a0:	fec42683          	lw	a3,-20(s0)
   206a4:	0006a683          	lw	a3,0(a3)
   206a8:	00468593          	addi	a1,a3,4
   206ac:	fec42603          	lw	a2,-20(s0)
   206b0:	00b62023          	sw	a1,0(a2)
   206b4:	0006a683          	lw	a3,0(a3)
   206b8:	00068713          	mv	a4,a3
   206bc:	41f6d693          	srai	a3,a3,0x1f
   206c0:	00068793          	mv	a5,a3
   206c4:	0280006f          	j	206ec <getint+0xa0>
   206c8:	fec42683          	lw	a3,-20(s0)
   206cc:	0006a683          	lw	a3,0(a3)
   206d0:	00468593          	addi	a1,a3,4
   206d4:	fec42603          	lw	a2,-20(s0)
   206d8:	00b62023          	sw	a1,0(a2)
   206dc:	0006a683          	lw	a3,0(a3)
   206e0:	00068713          	mv	a4,a3
   206e4:	41f6d693          	srai	a3,a3,0x1f
   206e8:	00068793          	mv	a5,a3
   206ec:	00070513          	mv	a0,a4
   206f0:	00078593          	mv	a1,a5
   206f4:	01c12083          	lw	ra,28(sp)
   206f8:	01812403          	lw	s0,24(sp)
   206fc:	02010113          	addi	sp,sp,32
   20700:	00008067          	ret

00020704 <skip_atoi>:
   20704:	fd010113          	addi	sp,sp,-48
   20708:	02112623          	sw	ra,44(sp)
   2070c:	02812423          	sw	s0,40(sp)
   20710:	03010413          	addi	s0,sp,48
   20714:	fca42e23          	sw	a0,-36(s0)
   20718:	fe042623          	sw	zero,-20(s0)
   2071c:	0400006f          	j	2075c <skip_atoi+0x58>
   20720:	fec42703          	lw	a4,-20(s0)
   20724:	00070793          	mv	a5,a4
   20728:	00279793          	slli	a5,a5,0x2
   2072c:	00e787b3          	add	a5,a5,a4
   20730:	00179793          	slli	a5,a5,0x1
   20734:	00078613          	mv	a2,a5
   20738:	fdc42783          	lw	a5,-36(s0)
   2073c:	0007a783          	lw	a5,0(a5)
   20740:	00178693          	addi	a3,a5,1
   20744:	fdc42703          	lw	a4,-36(s0)
   20748:	00d72023          	sw	a3,0(a4)
   2074c:	0007c783          	lbu	a5,0(a5)
   20750:	00f607b3          	add	a5,a2,a5
   20754:	fd078793          	addi	a5,a5,-48
   20758:	fef42623          	sw	a5,-20(s0)
   2075c:	fdc42783          	lw	a5,-36(s0)
   20760:	0007a783          	lw	a5,0(a5)
   20764:	0007c703          	lbu	a4,0(a5)
   20768:	02f00793          	li	a5,47
   2076c:	00e7fc63          	bgeu	a5,a4,20784 <skip_atoi+0x80>
   20770:	fdc42783          	lw	a5,-36(s0)
   20774:	0007a783          	lw	a5,0(a5)
   20778:	0007c703          	lbu	a4,0(a5)
   2077c:	03900793          	li	a5,57
   20780:	fae7f0e3          	bgeu	a5,a4,20720 <skip_atoi+0x1c>
   20784:	fec42783          	lw	a5,-20(s0)
   20788:	00078513          	mv	a0,a5
   2078c:	02c12083          	lw	ra,44(sp)
   20790:	02812403          	lw	s0,40(sp)
   20794:	03010113          	addi	sp,sp,48
   20798:	00008067          	ret

0002079c <atoi>:
   2079c:	fd010113          	addi	sp,sp,-48
   207a0:	02112623          	sw	ra,44(sp)
   207a4:	02812423          	sw	s0,40(sp)
   207a8:	03010413          	addi	s0,sp,48
   207ac:	fca42e23          	sw	a0,-36(s0)
   207b0:	fe042623          	sw	zero,-20(s0)
   207b4:	fe042423          	sw	zero,-24(s0)
   207b8:	0440006f          	j	207fc <atoi+0x60>
   207bc:	fec42703          	lw	a4,-20(s0)
   207c0:	00070793          	mv	a5,a4
   207c4:	00279793          	slli	a5,a5,0x2
   207c8:	00e787b3          	add	a5,a5,a4
   207cc:	00179793          	slli	a5,a5,0x1
   207d0:	00078693          	mv	a3,a5
   207d4:	fe842783          	lw	a5,-24(s0)
   207d8:	fdc42703          	lw	a4,-36(s0)
   207dc:	00f707b3          	add	a5,a4,a5
   207e0:	0007c783          	lbu	a5,0(a5)
   207e4:	00f687b3          	add	a5,a3,a5
   207e8:	fd078793          	addi	a5,a5,-48
   207ec:	fef42623          	sw	a5,-20(s0)
   207f0:	fe842783          	lw	a5,-24(s0)
   207f4:	00178793          	addi	a5,a5,1
   207f8:	fef42423          	sw	a5,-24(s0)
   207fc:	fe842783          	lw	a5,-24(s0)
   20800:	fdc42703          	lw	a4,-36(s0)
   20804:	00f707b3          	add	a5,a4,a5
   20808:	0007c783          	lbu	a5,0(a5)
   2080c:	fa0798e3          	bnez	a5,207bc <atoi+0x20>
   20810:	fec42783          	lw	a5,-20(s0)
   20814:	00078513          	mv	a0,a5
   20818:	02c12083          	lw	ra,44(sp)
   2081c:	02812403          	lw	s0,40(sp)
   20820:	03010113          	addi	sp,sp,48
   20824:	00008067          	ret

00020828 <atof>:
   20828:	fd010113          	addi	sp,sp,-48
   2082c:	02112623          	sw	ra,44(sp)
   20830:	02812423          	sw	s0,40(sp)
   20834:	02912223          	sw	s1,36(sp)
   20838:	03010413          	addi	s0,sp,48
   2083c:	fca42e23          	sw	a0,-36(s0)
   20840:	00000793          	li	a5,0
   20844:	fef42623          	sw	a5,-20(s0)
   20848:	00006797          	auipc	a5,0x6
   2084c:	4e478793          	addi	a5,a5,1252 # 26d2c <__fpclassifyd+0x444>
   20850:	0007a783          	lw	a5,0(a5)
   20854:	fef42423          	sw	a5,-24(s0)
   20858:	fdc42783          	lw	a5,-36(s0)
   2085c:	0007c703          	lbu	a4,0(a5)
   20860:	02d00793          	li	a5,45
   20864:	02f71063          	bne	a4,a5,20884 <atof+0x5c>
   20868:	fdc42783          	lw	a5,-36(s0)
   2086c:	00178793          	addi	a5,a5,1
   20870:	fcf42e23          	sw	a5,-36(s0)
   20874:	00006797          	auipc	a5,0x6
   20878:	4bc78793          	addi	a5,a5,1212 # 26d30 <__fpclassifyd+0x448>
   2087c:	0007a783          	lw	a5,0(a5)
   20880:	fef42423          	sw	a5,-24(s0)
   20884:	fe042223          	sw	zero,-28(s0)
   20888:	0b00006f          	j	20938 <atof+0x110>
   2088c:	fdc42783          	lw	a5,-36(s0)
   20890:	0007c703          	lbu	a4,0(a5)
   20894:	02e00793          	li	a5,46
   20898:	00f71863          	bne	a4,a5,208a8 <atof+0x80>
   2089c:	00100793          	li	a5,1
   208a0:	fef42223          	sw	a5,-28(s0)
   208a4:	0880006f          	j	2092c <atof+0x104>
   208a8:	fdc42783          	lw	a5,-36(s0)
   208ac:	0007c783          	lbu	a5,0(a5)
   208b0:	fd078793          	addi	a5,a5,-48
   208b4:	fef42023          	sw	a5,-32(s0)
   208b8:	fe042783          	lw	a5,-32(s0)
   208bc:	0607c863          	bltz	a5,2092c <atof+0x104>
   208c0:	fe042703          	lw	a4,-32(s0)
   208c4:	00900793          	li	a5,9
   208c8:	06e7c263          	blt	a5,a4,2092c <atof+0x104>
   208cc:	fe442783          	lw	a5,-28(s0)
   208d0:	02078063          	beqz	a5,208f0 <atof+0xc8>
   208d4:	00006797          	auipc	a5,0x6
   208d8:	46078793          	addi	a5,a5,1120 # 26d34 <__fpclassifyd+0x44c>
   208dc:	0007a583          	lw	a1,0(a5)
   208e0:	fe842503          	lw	a0,-24(s0)
   208e4:	5b1040ef          	jal	25694 <__divsf3>
   208e8:	00050793          	mv	a5,a0
   208ec:	fef42423          	sw	a5,-24(s0)
   208f0:	00006797          	auipc	a5,0x6
   208f4:	44478793          	addi	a5,a5,1092 # 26d34 <__fpclassifyd+0x44c>
   208f8:	0007a583          	lw	a1,0(a5)
   208fc:	fec42503          	lw	a0,-20(s0)
   20900:	0b0050ef          	jal	259b0 <__mulsf3>
   20904:	00050793          	mv	a5,a0
   20908:	00078493          	mv	s1,a5
   2090c:	fe042503          	lw	a0,-32(s0)
   20910:	3bc050ef          	jal	25ccc <__floatsisf>
   20914:	00050793          	mv	a5,a0
   20918:	00078593          	mv	a1,a5
   2091c:	00048513          	mv	a0,s1
   20920:	145040ef          	jal	25264 <__addsf3>
   20924:	00050793          	mv	a5,a0
   20928:	fef42623          	sw	a5,-20(s0)
   2092c:	fdc42783          	lw	a5,-36(s0)
   20930:	00178793          	addi	a5,a5,1
   20934:	fcf42e23          	sw	a5,-36(s0)
   20938:	fdc42783          	lw	a5,-36(s0)
   2093c:	0007c783          	lbu	a5,0(a5)
   20940:	f40796e3          	bnez	a5,2088c <atof+0x64>
   20944:	fe842583          	lw	a1,-24(s0)
   20948:	fec42503          	lw	a0,-20(s0)
   2094c:	064050ef          	jal	259b0 <__mulsf3>
   20950:	00050793          	mv	a5,a0
   20954:	00078513          	mv	a0,a5
   20958:	02c12083          	lw	ra,44(sp)
   2095c:	02812403          	lw	s0,40(sp)
   20960:	02412483          	lw	s1,36(sp)
   20964:	03010113          	addi	sp,sp,48
   20968:	00008067          	ret

0002096c <_usleep>:
   2096c:	fe010113          	addi	sp,sp,-32
   20970:	00112e23          	sw	ra,28(sp)
   20974:	00812c23          	sw	s0,24(sp)
   20978:	02010413          	addi	s0,sp,32
   2097c:	fea42623          	sw	a0,-20(s0)
   20980:	fec42703          	lw	a4,-20(s0)
   20984:	00cb77b7          	lui	a5,0xcb7
   20988:	35578793          	addi	a5,a5,853 # cb7355 <_heap_end+0xc8e3fd>
   2098c:	02f70733          	mul	a4,a4,a5
   20990:	82418793          	addi	a5,gp,-2012 # 26f04 <loop_count>
   20994:	00e7a023          	sw	a4,0(a5)
   20998:	ff810113          	addi	sp,sp,-8
   2099c:	00a12023          	sw	a0,0(sp)
   209a0:	00b12223          	sw	a1,4(sp)
   209a4:	82418513          	addi	a0,gp,-2012 # 26f04 <loop_count>
   209a8:	00052583          	lw	a1,0(a0)

000209ac <loop_us>:
   209ac:	fff58593          	addi	a1,a1,-1
   209b0:	fe059ee3          	bnez	a1,209ac <loop_us>
   209b4:	00012503          	lw	a0,0(sp)
   209b8:	00412583          	lw	a1,4(sp)
   209bc:	00810113          	addi	sp,sp,8
   209c0:	00000013          	nop
   209c4:	00078513          	mv	a0,a5
   209c8:	01c12083          	lw	ra,28(sp)
   209cc:	01812403          	lw	s0,24(sp)
   209d0:	02010113          	addi	sp,sp,32
   209d4:	00008067          	ret

000209d8 <udelay>:
   209d8:	fd010113          	addi	sp,sp,-48
   209dc:	02112623          	sw	ra,44(sp)
   209e0:	02812423          	sw	s0,40(sp)
   209e4:	03010413          	addi	s0,sp,48
   209e8:	fca42e23          	sw	a0,-36(s0)
   209ec:	fe042623          	sw	zero,-20(s0)
   209f0:	0100006f          	j	20a00 <udelay+0x28>
   209f4:	fec42783          	lw	a5,-20(s0)
   209f8:	00178793          	addi	a5,a5,1
   209fc:	fef42623          	sw	a5,-20(s0)
   20a00:	fdc42703          	lw	a4,-36(s0)
   20a04:	00070793          	mv	a5,a4
   20a08:	00379793          	slli	a5,a5,0x3
   20a0c:	00e787b3          	add	a5,a5,a4
   20a10:	00279793          	slli	a5,a5,0x2
   20a14:	40e78733          	sub	a4,a5,a4
   20a18:	fec42783          	lw	a5,-20(s0)
   20a1c:	fce7ece3          	bltu	a5,a4,209f4 <udelay+0x1c>
   20a20:	00000013          	nop
   20a24:	00078513          	mv	a0,a5
   20a28:	02c12083          	lw	ra,44(sp)
   20a2c:	02812403          	lw	s0,40(sp)
   20a30:	03010113          	addi	sp,sp,48
   20a34:	00008067          	ret

00020a38 <usleep>:
   20a38:	fe010113          	addi	sp,sp,-32
   20a3c:	00112e23          	sw	ra,28(sp)
   20a40:	00812c23          	sw	s0,24(sp)
   20a44:	02010413          	addi	s0,sp,32
   20a48:	fea42623          	sw	a0,-20(s0)
   20a4c:	fec42683          	lw	a3,-20(s0)
   20a50:	00068793          	mv	a5,a3
   20a54:	00100813          	li	a6,1
   20a58:	05078063          	beq	a5,a6,20a98 <final>
   20a5c:	00300813          	li	a6,3
   20a60:	0107dc63          	bge	a5,a6,20a78 <cycle_loop>

00020a64 <loop>:
   20a64:	fff78793          	addi	a5,a5,-1
   20a68:	00000013          	nop
   20a6c:	00000013          	nop
   20a70:	fe079ae3          	bnez	a5,20a64 <loop>
   20a74:	0240006f          	j	20a98 <final>

00020a78 <cycle_loop>:
   20a78:	02100713          	li	a4,33
   20a7c:	00078293          	mv	t0,a5
   20a80:	00000793          	li	a5,0

00020a84 <mul_loop>:
   20a84:	005787b3          	add	a5,a5,t0
   20a88:	fff70713          	addi	a4,a4,-1
   20a8c:	fe071ce3          	bnez	a4,20a84 <mul_loop>

00020a90 <loop1>:
   20a90:	fff78793          	addi	a5,a5,-1
   20a94:	fe079ee3          	bnez	a5,20a90 <loop1>

00020a98 <final>:
   20a98:	00000013          	nop
   20a9c:	01c12083          	lw	ra,28(sp)
   20aa0:	01812403          	lw	s0,24(sp)
   20aa4:	02010113          	addi	sp,sp,32
   20aa8:	00008067          	ret

00020aac <get_time>:
   20aac:	fe010113          	addi	sp,sp,-32
   20ab0:	00112e23          	sw	ra,28(sp)
   20ab4:	00812c23          	sw	s0,24(sp)
   20ab8:	02010413          	addi	s0,sp,32
   20abc:	b00027f3          	csrr	a5,mcycle
   20ac0:	fef42623          	sw	a5,-20(s0)
   20ac4:	fec42783          	lw	a5,-20(s0)
   20ac8:	fef42423          	sw	a5,-24(s0)
   20acc:	fe842783          	lw	a5,-24(s0)
   20ad0:	00078513          	mv	a0,a5
   20ad4:	01c12083          	lw	ra,28(sp)
   20ad8:	01812403          	lw	s0,24(sp)
   20adc:	02010113          	addi	sp,sp,32
   20ae0:	00008067          	ret

00020ae4 <number>:
   20ae4:	f8010113          	addi	sp,sp,-128
   20ae8:	06112e23          	sw	ra,124(sp)
   20aec:	06812c23          	sw	s0,120(sp)
   20af0:	08010413          	addi	s0,sp,128
   20af4:	f8a42e23          	sw	a0,-100(s0)
   20af8:	f8b42c23          	sw	a1,-104(s0)
   20afc:	f8c42a23          	sw	a2,-108(s0)
   20b00:	f8d42823          	sw	a3,-112(s0)
   20b04:	f8e42623          	sw	a4,-116(s0)
   20b08:	f8f42423          	sw	a5,-120(s0)
   20b0c:	80c18793          	addi	a5,gp,-2036 # 26eec <digits>
   20b10:	0007a783          	lw	a5,0(a5)
   20b14:	fef42423          	sw	a5,-24(s0)
   20b18:	f8842783          	lw	a5,-120(s0)
   20b1c:	0407f793          	andi	a5,a5,64
   20b20:	00078863          	beqz	a5,20b30 <number+0x4c>
   20b24:	81018793          	addi	a5,gp,-2032 # 26ef0 <upper_digits>
   20b28:	0007a783          	lw	a5,0(a5)
   20b2c:	fef42423          	sw	a5,-24(s0)
   20b30:	f8842783          	lw	a5,-120(s0)
   20b34:	0107f793          	andi	a5,a5,16
   20b38:	00078863          	beqz	a5,20b48 <number+0x64>
   20b3c:	f8842783          	lw	a5,-120(s0)
   20b40:	ffe7f793          	andi	a5,a5,-2
   20b44:	f8f42423          	sw	a5,-120(s0)
   20b48:	f9442703          	lw	a4,-108(s0)
   20b4c:	00100793          	li	a5,1
   20b50:	00e7d863          	bge	a5,a4,20b60 <number+0x7c>
   20b54:	f9442703          	lw	a4,-108(s0)
   20b58:	02400793          	li	a5,36
   20b5c:	00e7d663          	bge	a5,a4,20b68 <number+0x84>
   20b60:	00000793          	li	a5,0
   20b64:	2f40006f          	j	20e58 <number+0x374>
   20b68:	f8842783          	lw	a5,-120(s0)
   20b6c:	0017f793          	andi	a5,a5,1
   20b70:	00078663          	beqz	a5,20b7c <number+0x98>
   20b74:	03000793          	li	a5,48
   20b78:	0080006f          	j	20b80 <number+0x9c>
   20b7c:	02000793          	li	a5,32
   20b80:	fef401a3          	sb	a5,-29(s0)
   20b84:	fe0407a3          	sb	zero,-17(s0)
   20b88:	f8842783          	lw	a5,-120(s0)
   20b8c:	0027f793          	andi	a5,a5,2
   20b90:	06078a63          	beqz	a5,20c04 <number+0x120>
   20b94:	f9842783          	lw	a5,-104(s0)
   20b98:	0207d463          	bgez	a5,20bc0 <number+0xdc>
   20b9c:	02d00793          	li	a5,45
   20ba0:	fef407a3          	sb	a5,-17(s0)
   20ba4:	f9842783          	lw	a5,-104(s0)
   20ba8:	40f007b3          	neg	a5,a5
   20bac:	f8f42c23          	sw	a5,-104(s0)
   20bb0:	f9042783          	lw	a5,-112(s0)
   20bb4:	fff78793          	addi	a5,a5,-1
   20bb8:	f8f42823          	sw	a5,-112(s0)
   20bbc:	0480006f          	j	20c04 <number+0x120>
   20bc0:	f8842783          	lw	a5,-120(s0)
   20bc4:	0047f793          	andi	a5,a5,4
   20bc8:	00078e63          	beqz	a5,20be4 <number+0x100>
   20bcc:	02b00793          	li	a5,43
   20bd0:	fef407a3          	sb	a5,-17(s0)
   20bd4:	f9042783          	lw	a5,-112(s0)
   20bd8:	fff78793          	addi	a5,a5,-1
   20bdc:	f8f42823          	sw	a5,-112(s0)
   20be0:	0240006f          	j	20c04 <number+0x120>
   20be4:	f8842783          	lw	a5,-120(s0)
   20be8:	0087f793          	andi	a5,a5,8
   20bec:	00078c63          	beqz	a5,20c04 <number+0x120>
   20bf0:	02000793          	li	a5,32
   20bf4:	fef407a3          	sb	a5,-17(s0)
   20bf8:	f9042783          	lw	a5,-112(s0)
   20bfc:	fff78793          	addi	a5,a5,-1
   20c00:	f8f42823          	sw	a5,-112(s0)
   20c04:	f8842783          	lw	a5,-120(s0)
   20c08:	0207f793          	andi	a5,a5,32
   20c0c:	02078c63          	beqz	a5,20c44 <number+0x160>
   20c10:	f9442703          	lw	a4,-108(s0)
   20c14:	01000793          	li	a5,16
   20c18:	00f71a63          	bne	a4,a5,20c2c <number+0x148>
   20c1c:	f9042783          	lw	a5,-112(s0)
   20c20:	ffe78793          	addi	a5,a5,-2
   20c24:	f8f42823          	sw	a5,-112(s0)
   20c28:	01c0006f          	j	20c44 <number+0x160>
   20c2c:	f9442703          	lw	a4,-108(s0)
   20c30:	00800793          	li	a5,8
   20c34:	00f71863          	bne	a4,a5,20c44 <number+0x160>
   20c38:	f9042783          	lw	a5,-112(s0)
   20c3c:	fff78793          	addi	a5,a5,-1
   20c40:	f8f42823          	sw	a5,-112(s0)
   20c44:	fe042223          	sw	zero,-28(s0)
   20c48:	f9842783          	lw	a5,-104(s0)
   20c4c:	06079263          	bnez	a5,20cb0 <number+0x1cc>
   20c50:	fe442783          	lw	a5,-28(s0)
   20c54:	00178713          	addi	a4,a5,1
   20c58:	fee42223          	sw	a4,-28(s0)
   20c5c:	ff078793          	addi	a5,a5,-16
   20c60:	008787b3          	add	a5,a5,s0
   20c64:	03000713          	li	a4,48
   20c68:	fae78823          	sb	a4,-80(a5)
   20c6c:	04c0006f          	j	20cb8 <number+0x1d4>
   20c70:	f9842703          	lw	a4,-104(s0)
   20c74:	f9442783          	lw	a5,-108(s0)
   20c78:	02f777b3          	remu	a5,a4,a5
   20c7c:	fe842703          	lw	a4,-24(s0)
   20c80:	00f70733          	add	a4,a4,a5
   20c84:	fe442783          	lw	a5,-28(s0)
   20c88:	00178693          	addi	a3,a5,1
   20c8c:	fed42223          	sw	a3,-28(s0)
   20c90:	00074703          	lbu	a4,0(a4)
   20c94:	ff078793          	addi	a5,a5,-16
   20c98:	008787b3          	add	a5,a5,s0
   20c9c:	fae78823          	sb	a4,-80(a5)
   20ca0:	f9842703          	lw	a4,-104(s0)
   20ca4:	f9442783          	lw	a5,-108(s0)
   20ca8:	02f757b3          	divu	a5,a4,a5
   20cac:	f8f42c23          	sw	a5,-104(s0)
   20cb0:	f9842783          	lw	a5,-104(s0)
   20cb4:	fa079ee3          	bnez	a5,20c70 <number+0x18c>
   20cb8:	fe442703          	lw	a4,-28(s0)
   20cbc:	f8c42783          	lw	a5,-116(s0)
   20cc0:	00e7d663          	bge	a5,a4,20ccc <number+0x1e8>
   20cc4:	fe442783          	lw	a5,-28(s0)
   20cc8:	f8f42623          	sw	a5,-116(s0)
   20ccc:	f9042703          	lw	a4,-112(s0)
   20cd0:	f8c42783          	lw	a5,-116(s0)
   20cd4:	40f707b3          	sub	a5,a4,a5
   20cd8:	f8f42823          	sw	a5,-112(s0)
   20cdc:	f8842783          	lw	a5,-120(s0)
   20ce0:	0117f793          	andi	a5,a5,17
   20ce4:	02079663          	bnez	a5,20d10 <number+0x22c>
   20ce8:	0180006f          	j	20d00 <number+0x21c>
   20cec:	f9c42783          	lw	a5,-100(s0)
   20cf0:	00178713          	addi	a4,a5,1
   20cf4:	f8e42e23          	sw	a4,-100(s0)
   20cf8:	02000713          	li	a4,32
   20cfc:	00e78023          	sb	a4,0(a5)
   20d00:	f9042783          	lw	a5,-112(s0)
   20d04:	fff78713          	addi	a4,a5,-1
   20d08:	f8e42823          	sw	a4,-112(s0)
   20d0c:	fef040e3          	bgtz	a5,20cec <number+0x208>
   20d10:	fef44783          	lbu	a5,-17(s0)
   20d14:	00078c63          	beqz	a5,20d2c <number+0x248>
   20d18:	f9c42783          	lw	a5,-100(s0)
   20d1c:	00178713          	addi	a4,a5,1
   20d20:	f8e42e23          	sw	a4,-100(s0)
   20d24:	fef44703          	lbu	a4,-17(s0)
   20d28:	00e78023          	sb	a4,0(a5)
   20d2c:	f8842783          	lw	a5,-120(s0)
   20d30:	0207f793          	andi	a5,a5,32
   20d34:	06078263          	beqz	a5,20d98 <number+0x2b4>
   20d38:	f9442703          	lw	a4,-108(s0)
   20d3c:	00800793          	li	a5,8
   20d40:	00f71e63          	bne	a4,a5,20d5c <number+0x278>
   20d44:	f9c42783          	lw	a5,-100(s0)
   20d48:	00178713          	addi	a4,a5,1
   20d4c:	f8e42e23          	sw	a4,-100(s0)
   20d50:	03000713          	li	a4,48
   20d54:	00e78023          	sb	a4,0(a5)
   20d58:	0400006f          	j	20d98 <number+0x2b4>
   20d5c:	f9442703          	lw	a4,-108(s0)
   20d60:	01000793          	li	a5,16
   20d64:	02f71a63          	bne	a4,a5,20d98 <number+0x2b4>
   20d68:	f9c42783          	lw	a5,-100(s0)
   20d6c:	00178713          	addi	a4,a5,1
   20d70:	f8e42e23          	sw	a4,-100(s0)
   20d74:	03000713          	li	a4,48
   20d78:	00e78023          	sb	a4,0(a5)
   20d7c:	80c18793          	addi	a5,gp,-2036 # 26eec <digits>
   20d80:	0007a703          	lw	a4,0(a5)
   20d84:	f9c42783          	lw	a5,-100(s0)
   20d88:	00178693          	addi	a3,a5,1
   20d8c:	f8d42e23          	sw	a3,-100(s0)
   20d90:	02174703          	lbu	a4,33(a4)
   20d94:	00e78023          	sb	a4,0(a5)
   20d98:	f8842783          	lw	a5,-120(s0)
   20d9c:	0107f793          	andi	a5,a5,16
   20da0:	04079263          	bnez	a5,20de4 <number+0x300>
   20da4:	0180006f          	j	20dbc <number+0x2d8>
   20da8:	f9c42783          	lw	a5,-100(s0)
   20dac:	00178713          	addi	a4,a5,1
   20db0:	f8e42e23          	sw	a4,-100(s0)
   20db4:	fe344703          	lbu	a4,-29(s0)
   20db8:	00e78023          	sb	a4,0(a5)
   20dbc:	f9042783          	lw	a5,-112(s0)
   20dc0:	fff78713          	addi	a4,a5,-1
   20dc4:	f8e42823          	sw	a4,-112(s0)
   20dc8:	fef040e3          	bgtz	a5,20da8 <number+0x2c4>
   20dcc:	0180006f          	j	20de4 <number+0x300>
   20dd0:	f9c42783          	lw	a5,-100(s0)
   20dd4:	00178713          	addi	a4,a5,1
   20dd8:	f8e42e23          	sw	a4,-100(s0)
   20ddc:	03000713          	li	a4,48
   20de0:	00e78023          	sb	a4,0(a5)
   20de4:	f8c42783          	lw	a5,-116(s0)
   20de8:	fff78713          	addi	a4,a5,-1
   20dec:	f8e42623          	sw	a4,-116(s0)
   20df0:	fe442703          	lw	a4,-28(s0)
   20df4:	fcf74ee3          	blt	a4,a5,20dd0 <number+0x2ec>
   20df8:	0240006f          	j	20e1c <number+0x338>
   20dfc:	f9c42783          	lw	a5,-100(s0)
   20e00:	00178713          	addi	a4,a5,1
   20e04:	f8e42e23          	sw	a4,-100(s0)
   20e08:	fe442703          	lw	a4,-28(s0)
   20e0c:	ff070713          	addi	a4,a4,-16
   20e10:	00870733          	add	a4,a4,s0
   20e14:	fb074703          	lbu	a4,-80(a4)
   20e18:	00e78023          	sb	a4,0(a5)
   20e1c:	fe442783          	lw	a5,-28(s0)
   20e20:	fff78713          	addi	a4,a5,-1
   20e24:	fee42223          	sw	a4,-28(s0)
   20e28:	fcf04ae3          	bgtz	a5,20dfc <number+0x318>
   20e2c:	0180006f          	j	20e44 <number+0x360>
   20e30:	f9c42783          	lw	a5,-100(s0)
   20e34:	00178713          	addi	a4,a5,1
   20e38:	f8e42e23          	sw	a4,-100(s0)
   20e3c:	02000713          	li	a4,32
   20e40:	00e78023          	sb	a4,0(a5)
   20e44:	f9042783          	lw	a5,-112(s0)
   20e48:	fff78713          	addi	a4,a5,-1
   20e4c:	f8e42823          	sw	a4,-112(s0)
   20e50:	fef040e3          	bgtz	a5,20e30 <number+0x34c>
   20e54:	f9c42783          	lw	a5,-100(s0)
   20e58:	00078513          	mv	a0,a5
   20e5c:	07c12083          	lw	ra,124(sp)
   20e60:	07812403          	lw	s0,120(sp)
   20e64:	08010113          	addi	sp,sp,128
   20e68:	00008067          	ret

00020e6c <eaddr>:
   20e6c:	fa010113          	addi	sp,sp,-96
   20e70:	04112e23          	sw	ra,92(sp)
   20e74:	04812c23          	sw	s0,88(sp)
   20e78:	06010413          	addi	s0,sp,96
   20e7c:	faa42e23          	sw	a0,-68(s0)
   20e80:	fab42c23          	sw	a1,-72(s0)
   20e84:	fac42a23          	sw	a2,-76(s0)
   20e88:	fad42823          	sw	a3,-80(s0)
   20e8c:	fae42623          	sw	a4,-84(s0)
   20e90:	80c18793          	addi	a5,gp,-2036 # 26eec <digits>
   20e94:	0007a783          	lw	a5,0(a5)
   20e98:	fef42623          	sw	a5,-20(s0)
   20e9c:	fac42783          	lw	a5,-84(s0)
   20ea0:	0407f793          	andi	a5,a5,64
   20ea4:	00078863          	beqz	a5,20eb4 <eaddr+0x48>
   20ea8:	81018793          	addi	a5,gp,-2032 # 26ef0 <upper_digits>
   20eac:	0007a783          	lw	a5,0(a5)
   20eb0:	fef42623          	sw	a5,-20(s0)
   20eb4:	fe042223          	sw	zero,-28(s0)
   20eb8:	fe042423          	sw	zero,-24(s0)
   20ebc:	0ac0006f          	j	20f68 <eaddr+0xfc>
   20ec0:	fe842783          	lw	a5,-24(s0)
   20ec4:	02078063          	beqz	a5,20ee4 <eaddr+0x78>
   20ec8:	fe442783          	lw	a5,-28(s0)
   20ecc:	00178713          	addi	a4,a5,1
   20ed0:	fee42223          	sw	a4,-28(s0)
   20ed4:	ff078793          	addi	a5,a5,-16
   20ed8:	008787b3          	add	a5,a5,s0
   20edc:	03a00713          	li	a4,58
   20ee0:	fce78e23          	sb	a4,-36(a5)
   20ee4:	fe842783          	lw	a5,-24(s0)
   20ee8:	fb842703          	lw	a4,-72(s0)
   20eec:	00f707b3          	add	a5,a4,a5
   20ef0:	0007c783          	lbu	a5,0(a5)
   20ef4:	0047d793          	srli	a5,a5,0x4
   20ef8:	0ff7f793          	zext.b	a5,a5
   20efc:	00078713          	mv	a4,a5
   20f00:	fec42783          	lw	a5,-20(s0)
   20f04:	00e78733          	add	a4,a5,a4
   20f08:	fe442783          	lw	a5,-28(s0)
   20f0c:	00178693          	addi	a3,a5,1
   20f10:	fed42223          	sw	a3,-28(s0)
   20f14:	00074703          	lbu	a4,0(a4)
   20f18:	ff078793          	addi	a5,a5,-16
   20f1c:	008787b3          	add	a5,a5,s0
   20f20:	fce78e23          	sb	a4,-36(a5)
   20f24:	fe842783          	lw	a5,-24(s0)
   20f28:	fb842703          	lw	a4,-72(s0)
   20f2c:	00f707b3          	add	a5,a4,a5
   20f30:	0007c783          	lbu	a5,0(a5)
   20f34:	00f7f793          	andi	a5,a5,15
   20f38:	fec42703          	lw	a4,-20(s0)
   20f3c:	00f70733          	add	a4,a4,a5
   20f40:	fe442783          	lw	a5,-28(s0)
   20f44:	00178693          	addi	a3,a5,1
   20f48:	fed42223          	sw	a3,-28(s0)
   20f4c:	00074703          	lbu	a4,0(a4)
   20f50:	ff078793          	addi	a5,a5,-16
   20f54:	008787b3          	add	a5,a5,s0
   20f58:	fce78e23          	sb	a4,-36(a5)
   20f5c:	fe842783          	lw	a5,-24(s0)
   20f60:	00178793          	addi	a5,a5,1
   20f64:	fef42423          	sw	a5,-24(s0)
   20f68:	fe842703          	lw	a4,-24(s0)
   20f6c:	00500793          	li	a5,5
   20f70:	f4e7d8e3          	bge	a5,a4,20ec0 <eaddr+0x54>
   20f74:	fac42783          	lw	a5,-84(s0)
   20f78:	0107f793          	andi	a5,a5,16
   20f7c:	02079863          	bnez	a5,20fac <eaddr+0x140>
   20f80:	0180006f          	j	20f98 <eaddr+0x12c>
   20f84:	fbc42783          	lw	a5,-68(s0)
   20f88:	00178713          	addi	a4,a5,1
   20f8c:	fae42e23          	sw	a4,-68(s0)
   20f90:	02000713          	li	a4,32
   20f94:	00e78023          	sb	a4,0(a5)
   20f98:	fb442783          	lw	a5,-76(s0)
   20f9c:	fff78713          	addi	a4,a5,-1
   20fa0:	fae42a23          	sw	a4,-76(s0)
   20fa4:	fe442703          	lw	a4,-28(s0)
   20fa8:	fcf74ee3          	blt	a4,a5,20f84 <eaddr+0x118>
   20fac:	fe042423          	sw	zero,-24(s0)
   20fb0:	0300006f          	j	20fe0 <eaddr+0x174>
   20fb4:	fbc42783          	lw	a5,-68(s0)
   20fb8:	00178713          	addi	a4,a5,1
   20fbc:	fae42e23          	sw	a4,-68(s0)
   20fc0:	fe842703          	lw	a4,-24(s0)
   20fc4:	ff070713          	addi	a4,a4,-16
   20fc8:	00870733          	add	a4,a4,s0
   20fcc:	fdc74703          	lbu	a4,-36(a4)
   20fd0:	00e78023          	sb	a4,0(a5)
   20fd4:	fe842783          	lw	a5,-24(s0)
   20fd8:	00178793          	addi	a5,a5,1
   20fdc:	fef42423          	sw	a5,-24(s0)
   20fe0:	fe842703          	lw	a4,-24(s0)
   20fe4:	fe442783          	lw	a5,-28(s0)
   20fe8:	fcf746e3          	blt	a4,a5,20fb4 <eaddr+0x148>
   20fec:	0180006f          	j	21004 <eaddr+0x198>
   20ff0:	fbc42783          	lw	a5,-68(s0)
   20ff4:	00178713          	addi	a4,a5,1
   20ff8:	fae42e23          	sw	a4,-68(s0)
   20ffc:	02000713          	li	a4,32
   21000:	00e78023          	sb	a4,0(a5)
   21004:	fb442783          	lw	a5,-76(s0)
   21008:	fff78713          	addi	a4,a5,-1
   2100c:	fae42a23          	sw	a4,-76(s0)
   21010:	fe442703          	lw	a4,-28(s0)
   21014:	fcf74ee3          	blt	a4,a5,20ff0 <eaddr+0x184>
   21018:	fbc42783          	lw	a5,-68(s0)
   2101c:	00078513          	mv	a0,a5
   21020:	05c12083          	lw	ra,92(sp)
   21024:	05812403          	lw	s0,88(sp)
   21028:	06010113          	addi	sp,sp,96
   2102c:	00008067          	ret

00021030 <iaddr>:
   21030:	fa010113          	addi	sp,sp,-96
   21034:	04112e23          	sw	ra,92(sp)
   21038:	04812c23          	sw	s0,88(sp)
   2103c:	06010413          	addi	s0,sp,96
   21040:	faa42e23          	sw	a0,-68(s0)
   21044:	fab42c23          	sw	a1,-72(s0)
   21048:	fac42a23          	sw	a2,-76(s0)
   2104c:	fad42823          	sw	a3,-80(s0)
   21050:	fae42623          	sw	a4,-84(s0)
   21054:	fe042223          	sw	zero,-28(s0)
   21058:	fe042623          	sw	zero,-20(s0)
   2105c:	2200006f          	j	2127c <iaddr+0x24c>
   21060:	fec42783          	lw	a5,-20(s0)
   21064:	02078063          	beqz	a5,21084 <iaddr+0x54>
   21068:	fe442783          	lw	a5,-28(s0)
   2106c:	00178713          	addi	a4,a5,1
   21070:	fee42223          	sw	a4,-28(s0)
   21074:	ff078793          	addi	a5,a5,-16
   21078:	008787b3          	add	a5,a5,s0
   2107c:	02e00713          	li	a4,46
   21080:	fce78e23          	sb	a4,-36(a5)
   21084:	fec42783          	lw	a5,-20(s0)
   21088:	fb842703          	lw	a4,-72(s0)
   2108c:	00f707b3          	add	a5,a4,a5
   21090:	0007c783          	lbu	a5,0(a5)
   21094:	fef42423          	sw	a5,-24(s0)
   21098:	fe842783          	lw	a5,-24(s0)
   2109c:	02079663          	bnez	a5,210c8 <iaddr+0x98>
   210a0:	80c18793          	addi	a5,gp,-2036 # 26eec <digits>
   210a4:	0007a703          	lw	a4,0(a5)
   210a8:	fe442783          	lw	a5,-28(s0)
   210ac:	00178693          	addi	a3,a5,1
   210b0:	fed42223          	sw	a3,-28(s0)
   210b4:	00074703          	lbu	a4,0(a4)
   210b8:	ff078793          	addi	a5,a5,-16
   210bc:	008787b3          	add	a5,a5,s0
   210c0:	fce78e23          	sb	a4,-36(a5)
   210c4:	1ac0006f          	j	21270 <iaddr+0x240>
   210c8:	fe842703          	lw	a4,-24(s0)
   210cc:	06300793          	li	a5,99
   210d0:	0ee7d863          	bge	a5,a4,211c0 <iaddr+0x190>
   210d4:	80c18793          	addi	a5,gp,-2036 # 26eec <digits>
   210d8:	0007a703          	lw	a4,0(a5)
   210dc:	fe842783          	lw	a5,-24(s0)
   210e0:	51eb86b7          	lui	a3,0x51eb8
   210e4:	51f68693          	addi	a3,a3,1311 # 51eb851f <_heap_end+0x51e8f5c7>
   210e8:	02d796b3          	mulh	a3,a5,a3
   210ec:	4056d693          	srai	a3,a3,0x5
   210f0:	41f7d793          	srai	a5,a5,0x1f
   210f4:	40f687b3          	sub	a5,a3,a5
   210f8:	00f70733          	add	a4,a4,a5
   210fc:	fe442783          	lw	a5,-28(s0)
   21100:	00178693          	addi	a3,a5,1
   21104:	fed42223          	sw	a3,-28(s0)
   21108:	00074703          	lbu	a4,0(a4)
   2110c:	ff078793          	addi	a5,a5,-16
   21110:	008787b3          	add	a5,a5,s0
   21114:	fce78e23          	sb	a4,-36(a5)
   21118:	fe842783          	lw	a5,-24(s0)
   2111c:	51eb8737          	lui	a4,0x51eb8
   21120:	51f70713          	addi	a4,a4,1311 # 51eb851f <_heap_end+0x51e8f5c7>
   21124:	02e79733          	mulh	a4,a5,a4
   21128:	40575693          	srai	a3,a4,0x5
   2112c:	41f7d713          	srai	a4,a5,0x1f
   21130:	40e686b3          	sub	a3,a3,a4
   21134:	06400713          	li	a4,100
   21138:	02e68733          	mul	a4,a3,a4
   2113c:	40e787b3          	sub	a5,a5,a4
   21140:	fef42423          	sw	a5,-24(s0)
   21144:	80c18793          	addi	a5,gp,-2036 # 26eec <digits>
   21148:	0007a703          	lw	a4,0(a5)
   2114c:	fe842783          	lw	a5,-24(s0)
   21150:	666666b7          	lui	a3,0x66666
   21154:	66768693          	addi	a3,a3,1639 # 66666667 <_heap_end+0x6663d70f>
   21158:	02d796b3          	mulh	a3,a5,a3
   2115c:	4026d693          	srai	a3,a3,0x2
   21160:	41f7d793          	srai	a5,a5,0x1f
   21164:	40f687b3          	sub	a5,a3,a5
   21168:	00f70733          	add	a4,a4,a5
   2116c:	fe442783          	lw	a5,-28(s0)
   21170:	00178693          	addi	a3,a5,1
   21174:	fed42223          	sw	a3,-28(s0)
   21178:	00074703          	lbu	a4,0(a4)
   2117c:	ff078793          	addi	a5,a5,-16
   21180:	008787b3          	add	a5,a5,s0
   21184:	fce78e23          	sb	a4,-36(a5)
   21188:	fe842703          	lw	a4,-24(s0)
   2118c:	666667b7          	lui	a5,0x66666
   21190:	66778793          	addi	a5,a5,1639 # 66666667 <_heap_end+0x6663d70f>
   21194:	02f717b3          	mulh	a5,a4,a5
   21198:	4027d693          	srai	a3,a5,0x2
   2119c:	41f75793          	srai	a5,a4,0x1f
   211a0:	40f686b3          	sub	a3,a3,a5
   211a4:	00068793          	mv	a5,a3
   211a8:	00279793          	slli	a5,a5,0x2
   211ac:	00d787b3          	add	a5,a5,a3
   211b0:	00179793          	slli	a5,a5,0x1
   211b4:	40f707b3          	sub	a5,a4,a5
   211b8:	fef42423          	sw	a5,-24(s0)
   211bc:	0880006f          	j	21244 <iaddr+0x214>
   211c0:	fe842703          	lw	a4,-24(s0)
   211c4:	00900793          	li	a5,9
   211c8:	06e7de63          	bge	a5,a4,21244 <iaddr+0x214>
   211cc:	80c18793          	addi	a5,gp,-2036 # 26eec <digits>
   211d0:	0007a703          	lw	a4,0(a5)
   211d4:	fe842783          	lw	a5,-24(s0)
   211d8:	666666b7          	lui	a3,0x66666
   211dc:	66768693          	addi	a3,a3,1639 # 66666667 <_heap_end+0x6663d70f>
   211e0:	02d796b3          	mulh	a3,a5,a3
   211e4:	4026d693          	srai	a3,a3,0x2
   211e8:	41f7d793          	srai	a5,a5,0x1f
   211ec:	40f687b3          	sub	a5,a3,a5
   211f0:	00f70733          	add	a4,a4,a5
   211f4:	fe442783          	lw	a5,-28(s0)
   211f8:	00178693          	addi	a3,a5,1
   211fc:	fed42223          	sw	a3,-28(s0)
   21200:	00074703          	lbu	a4,0(a4)
   21204:	ff078793          	addi	a5,a5,-16
   21208:	008787b3          	add	a5,a5,s0
   2120c:	fce78e23          	sb	a4,-36(a5)
   21210:	fe842703          	lw	a4,-24(s0)
   21214:	666667b7          	lui	a5,0x66666
   21218:	66778793          	addi	a5,a5,1639 # 66666667 <_heap_end+0x6663d70f>
   2121c:	02f717b3          	mulh	a5,a4,a5
   21220:	4027d693          	srai	a3,a5,0x2
   21224:	41f75793          	srai	a5,a4,0x1f
   21228:	40f686b3          	sub	a3,a3,a5
   2122c:	00068793          	mv	a5,a3
   21230:	00279793          	slli	a5,a5,0x2
   21234:	00d787b3          	add	a5,a5,a3
   21238:	00179793          	slli	a5,a5,0x1
   2123c:	40f707b3          	sub	a5,a4,a5
   21240:	fef42423          	sw	a5,-24(s0)
   21244:	80c18793          	addi	a5,gp,-2036 # 26eec <digits>
   21248:	0007a703          	lw	a4,0(a5)
   2124c:	fe842783          	lw	a5,-24(s0)
   21250:	00f70733          	add	a4,a4,a5
   21254:	fe442783          	lw	a5,-28(s0)
   21258:	00178693          	addi	a3,a5,1
   2125c:	fed42223          	sw	a3,-28(s0)
   21260:	00074703          	lbu	a4,0(a4)
   21264:	ff078793          	addi	a5,a5,-16
   21268:	008787b3          	add	a5,a5,s0
   2126c:	fce78e23          	sb	a4,-36(a5)
   21270:	fec42783          	lw	a5,-20(s0)
   21274:	00178793          	addi	a5,a5,1
   21278:	fef42623          	sw	a5,-20(s0)
   2127c:	fec42703          	lw	a4,-20(s0)
   21280:	00300793          	li	a5,3
   21284:	dce7dee3          	bge	a5,a4,21060 <iaddr+0x30>
   21288:	fac42783          	lw	a5,-84(s0)
   2128c:	0107f793          	andi	a5,a5,16
   21290:	02079863          	bnez	a5,212c0 <iaddr+0x290>
   21294:	0180006f          	j	212ac <iaddr+0x27c>
   21298:	fbc42783          	lw	a5,-68(s0)
   2129c:	00178713          	addi	a4,a5,1
   212a0:	fae42e23          	sw	a4,-68(s0)
   212a4:	02000713          	li	a4,32
   212a8:	00e78023          	sb	a4,0(a5)
   212ac:	fb442783          	lw	a5,-76(s0)
   212b0:	fff78713          	addi	a4,a5,-1
   212b4:	fae42a23          	sw	a4,-76(s0)
   212b8:	fe442703          	lw	a4,-28(s0)
   212bc:	fcf74ee3          	blt	a4,a5,21298 <iaddr+0x268>
   212c0:	fe042623          	sw	zero,-20(s0)
   212c4:	0300006f          	j	212f4 <iaddr+0x2c4>
   212c8:	fbc42783          	lw	a5,-68(s0)
   212cc:	00178713          	addi	a4,a5,1
   212d0:	fae42e23          	sw	a4,-68(s0)
   212d4:	fec42703          	lw	a4,-20(s0)
   212d8:	ff070713          	addi	a4,a4,-16
   212dc:	00870733          	add	a4,a4,s0
   212e0:	fdc74703          	lbu	a4,-36(a4)
   212e4:	00e78023          	sb	a4,0(a5)
   212e8:	fec42783          	lw	a5,-20(s0)
   212ec:	00178793          	addi	a5,a5,1
   212f0:	fef42623          	sw	a5,-20(s0)
   212f4:	fec42703          	lw	a4,-20(s0)
   212f8:	fe442783          	lw	a5,-28(s0)
   212fc:	fcf746e3          	blt	a4,a5,212c8 <iaddr+0x298>
   21300:	0180006f          	j	21318 <iaddr+0x2e8>
   21304:	fbc42783          	lw	a5,-68(s0)
   21308:	00178713          	addi	a4,a5,1
   2130c:	fae42e23          	sw	a4,-68(s0)
   21310:	02000713          	li	a4,32
   21314:	00e78023          	sb	a4,0(a5)
   21318:	fb442783          	lw	a5,-76(s0)
   2131c:	fff78713          	addi	a4,a5,-1
   21320:	fae42a23          	sw	a4,-76(s0)
   21324:	fe442703          	lw	a4,-28(s0)
   21328:	fcf74ee3          	blt	a4,a5,21304 <iaddr+0x2d4>
   2132c:	fbc42783          	lw	a5,-68(s0)
   21330:	00078513          	mv	a0,a5
   21334:	05c12083          	lw	ra,92(sp)
   21338:	05812403          	lw	s0,88(sp)
   2133c:	06010113          	addi	sp,sp,96
   21340:	00008067          	ret

00021344 <ee_bufcpy>:
   21344:	fd010113          	addi	sp,sp,-48
   21348:	02112623          	sw	ra,44(sp)
   2134c:	02812423          	sw	s0,40(sp)
   21350:	03010413          	addi	s0,sp,48
   21354:	fca42e23          	sw	a0,-36(s0)
   21358:	fcb42c23          	sw	a1,-40(s0)
   2135c:	fcc42a23          	sw	a2,-44(s0)
   21360:	fd442783          	lw	a5,-44(s0)
   21364:	fd842703          	lw	a4,-40(s0)
   21368:	00f707b3          	add	a5,a4,a5
   2136c:	fef42623          	sw	a5,-20(s0)
   21370:	0240006f          	j	21394 <ee_bufcpy+0x50>
   21374:	fd842703          	lw	a4,-40(s0)
   21378:	00170793          	addi	a5,a4,1
   2137c:	fcf42c23          	sw	a5,-40(s0)
   21380:	fdc42783          	lw	a5,-36(s0)
   21384:	00178693          	addi	a3,a5,1
   21388:	fcd42e23          	sw	a3,-36(s0)
   2138c:	00074703          	lbu	a4,0(a4)
   21390:	00e78023          	sb	a4,0(a5)
   21394:	fd842703          	lw	a4,-40(s0)
   21398:	fec42783          	lw	a5,-20(s0)
   2139c:	fcf71ce3          	bne	a4,a5,21374 <ee_bufcpy+0x30>
   213a0:	00000013          	nop
   213a4:	00000013          	nop
   213a8:	02c12083          	lw	ra,44(sp)
   213ac:	02812403          	lw	s0,40(sp)
   213b0:	03010113          	addi	sp,sp,48
   213b4:	00008067          	ret

000213b8 <parse_float>:
   213b8:	f6010113          	addi	sp,sp,-160
   213bc:	08112e23          	sw	ra,156(sp)
   213c0:	08812c23          	sw	s0,152(sp)
   213c4:	0a010413          	addi	s0,sp,160
   213c8:	f6a42c23          	sw	a0,-136(s0)
   213cc:	f6b42e23          	sw	a1,-132(s0)
   213d0:	f6c42a23          	sw	a2,-140(s0)
   213d4:	00068793          	mv	a5,a3
   213d8:	f6e42623          	sw	a4,-148(s0)
   213dc:	f6f409a3          	sb	a5,-141(s0)
   213e0:	fe042223          	sw	zero,-28(s0)
   213e4:	fe042023          	sw	zero,-32(s0)
   213e8:	f7344703          	lbu	a4,-141(s0)
   213ec:	04700793          	li	a5,71
   213f0:	00f70863          	beq	a4,a5,21400 <parse_float+0x48>
   213f4:	f7344703          	lbu	a4,-141(s0)
   213f8:	04500793          	li	a5,69
   213fc:	00f71c63          	bne	a4,a5,21414 <parse_float+0x5c>
   21400:	00100793          	li	a5,1
   21404:	fef42023          	sw	a5,-32(s0)
   21408:	f7344783          	lbu	a5,-141(s0)
   2140c:	02078793          	addi	a5,a5,32
   21410:	f6f409a3          	sb	a5,-141(s0)
   21414:	f7344703          	lbu	a4,-141(s0)
   21418:	06700793          	li	a5,103
   2141c:	06f71c63          	bne	a4,a5,21494 <parse_float+0xdc>
   21420:	f8440793          	addi	a5,s0,-124
   21424:	fd440713          	addi	a4,s0,-44
   21428:	fd840693          	addi	a3,s0,-40
   2142c:	f6c42603          	lw	a2,-148(s0)
   21430:	f7842503          	lw	a0,-136(s0)
   21434:	f7c42583          	lw	a1,-132(s0)
   21438:	758010ef          	jal	22b90 <ecvtbuf>
   2143c:	fea42223          	sw	a0,-28(s0)
   21440:	fd842783          	lw	a5,-40(s0)
   21444:	fff78793          	addi	a5,a5,-1
   21448:	fcf42e23          	sw	a5,-36(s0)
   2144c:	fdc42703          	lw	a4,-36(s0)
   21450:	ffc00793          	li	a5,-4
   21454:	00f74863          	blt	a4,a5,21464 <parse_float+0xac>
   21458:	f6c42703          	lw	a4,-148(s0)
   2145c:	fdc42783          	lw	a5,-36(s0)
   21460:	00e7ce63          	blt	a5,a4,2147c <parse_float+0xc4>
   21464:	06500793          	li	a5,101
   21468:	f6f409a3          	sb	a5,-141(s0)
   2146c:	f6c42783          	lw	a5,-148(s0)
   21470:	fff78793          	addi	a5,a5,-1
   21474:	f6f42623          	sw	a5,-148(s0)
   21478:	01c0006f          	j	21494 <parse_float+0xdc>
   2147c:	06600793          	li	a5,102
   21480:	f6f409a3          	sb	a5,-141(s0)
   21484:	fd842783          	lw	a5,-40(s0)
   21488:	f6c42703          	lw	a4,-148(s0)
   2148c:	40f707b3          	sub	a5,a4,a5
   21490:	f6f42623          	sw	a5,-148(s0)
   21494:	f7344703          	lbu	a4,-141(s0)
   21498:	06500793          	li	a5,101
   2149c:	26f71663          	bne	a4,a5,21708 <parse_float+0x350>
   214a0:	f6c42783          	lw	a5,-148(s0)
   214a4:	00178613          	addi	a2,a5,1
   214a8:	f8440793          	addi	a5,s0,-124
   214ac:	fd440713          	addi	a4,s0,-44
   214b0:	fd840693          	addi	a3,s0,-40
   214b4:	f7842503          	lw	a0,-136(s0)
   214b8:	f7c42583          	lw	a1,-132(s0)
   214bc:	6d4010ef          	jal	22b90 <ecvtbuf>
   214c0:	fea42223          	sw	a0,-28(s0)
   214c4:	fd442783          	lw	a5,-44(s0)
   214c8:	00078c63          	beqz	a5,214e0 <parse_float+0x128>
   214cc:	f7442783          	lw	a5,-140(s0)
   214d0:	00178713          	addi	a4,a5,1
   214d4:	f6e42a23          	sw	a4,-140(s0)
   214d8:	02d00713          	li	a4,45
   214dc:	00e78023          	sb	a4,0(a5)
   214e0:	f7442783          	lw	a5,-140(s0)
   214e4:	00178713          	addi	a4,a5,1
   214e8:	f6e42a23          	sw	a4,-140(s0)
   214ec:	fe442703          	lw	a4,-28(s0)
   214f0:	00074703          	lbu	a4,0(a4)
   214f4:	00e78023          	sb	a4,0(a5)
   214f8:	f6c42783          	lw	a5,-148(s0)
   214fc:	00f05c63          	blez	a5,21514 <parse_float+0x15c>
   21500:	f7442783          	lw	a5,-140(s0)
   21504:	00178713          	addi	a4,a5,1
   21508:	f6e42a23          	sw	a4,-140(s0)
   2150c:	02e00713          	li	a4,46
   21510:	00e78023          	sb	a4,0(a5)
   21514:	fe442783          	lw	a5,-28(s0)
   21518:	00178793          	addi	a5,a5,1
   2151c:	f6c42603          	lw	a2,-148(s0)
   21520:	00078593          	mv	a1,a5
   21524:	f7442503          	lw	a0,-140(s0)
   21528:	e1dff0ef          	jal	21344 <ee_bufcpy>
   2152c:	f6c42783          	lw	a5,-148(s0)
   21530:	f7442703          	lw	a4,-140(s0)
   21534:	00f707b3          	add	a5,a4,a5
   21538:	f6f42a23          	sw	a5,-140(s0)
   2153c:	fe042783          	lw	a5,-32(s0)
   21540:	00078663          	beqz	a5,2154c <parse_float+0x194>
   21544:	04500713          	li	a4,69
   21548:	0080006f          	j	21550 <parse_float+0x198>
   2154c:	06500713          	li	a4,101
   21550:	f7442783          	lw	a5,-140(s0)
   21554:	00178693          	addi	a3,a5,1
   21558:	f6d42a23          	sw	a3,-140(s0)
   2155c:	00e78023          	sb	a4,0(a5)
   21560:	fd842783          	lw	a5,-40(s0)
   21564:	02079a63          	bnez	a5,21598 <parse_float+0x1e0>
   21568:	00000613          	li	a2,0
   2156c:	00000693          	li	a3,0
   21570:	f7842503          	lw	a0,-136(s0)
   21574:	f7c42583          	lw	a1,-132(s0)
   21578:	4bd020ef          	jal	24234 <__eqdf2>
   2157c:	00050793          	mv	a5,a0
   21580:	00079663          	bnez	a5,2158c <parse_float+0x1d4>
   21584:	fe042623          	sw	zero,-20(s0)
   21588:	01c0006f          	j	215a4 <parse_float+0x1ec>
   2158c:	fff00793          	li	a5,-1
   21590:	fef42623          	sw	a5,-20(s0)
   21594:	0100006f          	j	215a4 <parse_float+0x1ec>
   21598:	fd842783          	lw	a5,-40(s0)
   2159c:	fff78793          	addi	a5,a5,-1
   215a0:	fef42623          	sw	a5,-20(s0)
   215a4:	fec42783          	lw	a5,-20(s0)
   215a8:	0207d463          	bgez	a5,215d0 <parse_float+0x218>
   215ac:	f7442783          	lw	a5,-140(s0)
   215b0:	00178713          	addi	a4,a5,1
   215b4:	f6e42a23          	sw	a4,-140(s0)
   215b8:	02d00713          	li	a4,45
   215bc:	00e78023          	sb	a4,0(a5)
   215c0:	fec42783          	lw	a5,-20(s0)
   215c4:	40f007b3          	neg	a5,a5
   215c8:	fef42623          	sw	a5,-20(s0)
   215cc:	0180006f          	j	215e4 <parse_float+0x22c>
   215d0:	f7442783          	lw	a5,-140(s0)
   215d4:	00178713          	addi	a4,a5,1
   215d8:	f6e42a23          	sw	a4,-140(s0)
   215dc:	02b00713          	li	a4,43
   215e0:	00e78023          	sb	a4,0(a5)
   215e4:	fec42703          	lw	a4,-20(s0)
   215e8:	666667b7          	lui	a5,0x66666
   215ec:	66778793          	addi	a5,a5,1639 # 66666667 <_heap_end+0x6663d70f>
   215f0:	02f717b3          	mulh	a5,a4,a5
   215f4:	4027d693          	srai	a3,a5,0x2
   215f8:	41f75793          	srai	a5,a4,0x1f
   215fc:	40f686b3          	sub	a3,a3,a5
   21600:	00068793          	mv	a5,a3
   21604:	00279793          	slli	a5,a5,0x2
   21608:	00d787b3          	add	a5,a5,a3
   2160c:	00179793          	slli	a5,a5,0x1
   21610:	40f706b3          	sub	a3,a4,a5
   21614:	0ff6f713          	zext.b	a4,a3
   21618:	f7442783          	lw	a5,-140(s0)
   2161c:	00278793          	addi	a5,a5,2
   21620:	03070713          	addi	a4,a4,48
   21624:	0ff77713          	zext.b	a4,a4
   21628:	00e78023          	sb	a4,0(a5)
   2162c:	fec42783          	lw	a5,-20(s0)
   21630:	66666737          	lui	a4,0x66666
   21634:	66770713          	addi	a4,a4,1639 # 66666667 <_heap_end+0x6663d70f>
   21638:	02e79733          	mulh	a4,a5,a4
   2163c:	40275713          	srai	a4,a4,0x2
   21640:	41f7d793          	srai	a5,a5,0x1f
   21644:	40f707b3          	sub	a5,a4,a5
   21648:	fef42623          	sw	a5,-20(s0)
   2164c:	fec42703          	lw	a4,-20(s0)
   21650:	666667b7          	lui	a5,0x66666
   21654:	66778793          	addi	a5,a5,1639 # 66666667 <_heap_end+0x6663d70f>
   21658:	02f717b3          	mulh	a5,a4,a5
   2165c:	4027d693          	srai	a3,a5,0x2
   21660:	41f75793          	srai	a5,a4,0x1f
   21664:	40f686b3          	sub	a3,a3,a5
   21668:	00068793          	mv	a5,a3
   2166c:	00279793          	slli	a5,a5,0x2
   21670:	00d787b3          	add	a5,a5,a3
   21674:	00179793          	slli	a5,a5,0x1
   21678:	40f706b3          	sub	a3,a4,a5
   2167c:	0ff6f713          	zext.b	a4,a3
   21680:	f7442783          	lw	a5,-140(s0)
   21684:	00178793          	addi	a5,a5,1
   21688:	03070713          	addi	a4,a4,48
   2168c:	0ff77713          	zext.b	a4,a4
   21690:	00e78023          	sb	a4,0(a5)
   21694:	fec42783          	lw	a5,-20(s0)
   21698:	66666737          	lui	a4,0x66666
   2169c:	66770713          	addi	a4,a4,1639 # 66666667 <_heap_end+0x6663d70f>
   216a0:	02e79733          	mulh	a4,a5,a4
   216a4:	40275713          	srai	a4,a4,0x2
   216a8:	41f7d793          	srai	a5,a5,0x1f
   216ac:	40f707b3          	sub	a5,a4,a5
   216b0:	fef42623          	sw	a5,-20(s0)
   216b4:	fec42703          	lw	a4,-20(s0)
   216b8:	666667b7          	lui	a5,0x66666
   216bc:	66778793          	addi	a5,a5,1639 # 66666667 <_heap_end+0x6663d70f>
   216c0:	02f717b3          	mulh	a5,a4,a5
   216c4:	4027d693          	srai	a3,a5,0x2
   216c8:	41f75793          	srai	a5,a4,0x1f
   216cc:	40f686b3          	sub	a3,a3,a5
   216d0:	00068793          	mv	a5,a3
   216d4:	00279793          	slli	a5,a5,0x2
   216d8:	00d787b3          	add	a5,a5,a3
   216dc:	00179793          	slli	a5,a5,0x1
   216e0:	40f706b3          	sub	a3,a4,a5
   216e4:	0ff6f793          	zext.b	a5,a3
   216e8:	03078793          	addi	a5,a5,48
   216ec:	0ff7f713          	zext.b	a4,a5
   216f0:	f7442783          	lw	a5,-140(s0)
   216f4:	00e78023          	sb	a4,0(a5)
   216f8:	f7442783          	lw	a5,-140(s0)
   216fc:	00378793          	addi	a5,a5,3
   21700:	f6f42a23          	sw	a5,-140(s0)
   21704:	1b80006f          	j	218bc <parse_float+0x504>
   21708:	f7344703          	lbu	a4,-141(s0)
   2170c:	06600793          	li	a5,102
   21710:	1af71663          	bne	a4,a5,218bc <parse_float+0x504>
   21714:	f8440793          	addi	a5,s0,-124
   21718:	fd440713          	addi	a4,s0,-44
   2171c:	fd840693          	addi	a3,s0,-40
   21720:	f6c42603          	lw	a2,-148(s0)
   21724:	f7842503          	lw	a0,-136(s0)
   21728:	f7c42583          	lw	a1,-132(s0)
   2172c:	524010ef          	jal	22c50 <fcvtbuf>
   21730:	fea42223          	sw	a0,-28(s0)
   21734:	fd442783          	lw	a5,-44(s0)
   21738:	00078c63          	beqz	a5,21750 <parse_float+0x398>
   2173c:	f7442783          	lw	a5,-140(s0)
   21740:	00178713          	addi	a4,a5,1
   21744:	f6e42a23          	sw	a4,-140(s0)
   21748:	02d00713          	li	a4,45
   2174c:	00e78023          	sb	a4,0(a5)
   21750:	fe442783          	lw	a5,-28(s0)
   21754:	0007c783          	lbu	a5,0(a5)
   21758:	10078063          	beqz	a5,21858 <parse_float+0x4a0>
   2175c:	fd842783          	lw	a5,-40(s0)
   21760:	08f04c63          	bgtz	a5,217f8 <parse_float+0x440>
   21764:	f7442783          	lw	a5,-140(s0)
   21768:	00178713          	addi	a4,a5,1
   2176c:	f6e42a23          	sw	a4,-140(s0)
   21770:	03000713          	li	a4,48
   21774:	00e78023          	sb	a4,0(a5)
   21778:	f7442783          	lw	a5,-140(s0)
   2177c:	00178713          	addi	a4,a5,1
   21780:	f6e42a23          	sw	a4,-140(s0)
   21784:	02e00713          	li	a4,46
   21788:	00e78023          	sb	a4,0(a5)
   2178c:	fe042423          	sw	zero,-24(s0)
   21790:	0240006f          	j	217b4 <parse_float+0x3fc>
   21794:	f7442783          	lw	a5,-140(s0)
   21798:	00178713          	addi	a4,a5,1
   2179c:	f6e42a23          	sw	a4,-140(s0)
   217a0:	03000713          	li	a4,48
   217a4:	00e78023          	sb	a4,0(a5)
   217a8:	fe842783          	lw	a5,-24(s0)
   217ac:	00178793          	addi	a5,a5,1
   217b0:	fef42423          	sw	a5,-24(s0)
   217b4:	fd842783          	lw	a5,-40(s0)
   217b8:	40f007b3          	neg	a5,a5
   217bc:	fe842703          	lw	a4,-24(s0)
   217c0:	fcf74ae3          	blt	a4,a5,21794 <parse_float+0x3dc>
   217c4:	0240006f          	j	217e8 <parse_float+0x430>
   217c8:	fe442703          	lw	a4,-28(s0)
   217cc:	00170793          	addi	a5,a4,1
   217d0:	fef42223          	sw	a5,-28(s0)
   217d4:	f7442783          	lw	a5,-140(s0)
   217d8:	00178693          	addi	a3,a5,1
   217dc:	f6d42a23          	sw	a3,-140(s0)
   217e0:	00074703          	lbu	a4,0(a4)
   217e4:	00e78023          	sb	a4,0(a5)
   217e8:	fe442783          	lw	a5,-28(s0)
   217ec:	0007c783          	lbu	a5,0(a5)
   217f0:	fc079ce3          	bnez	a5,217c8 <parse_float+0x410>
   217f4:	0c80006f          	j	218bc <parse_float+0x504>
   217f8:	fe042423          	sw	zero,-24(s0)
   217fc:	04c0006f          	j	21848 <parse_float+0x490>
   21800:	fe842783          	lw	a5,-24(s0)
   21804:	00178713          	addi	a4,a5,1
   21808:	fee42423          	sw	a4,-24(s0)
   2180c:	fd842703          	lw	a4,-40(s0)
   21810:	00e79c63          	bne	a5,a4,21828 <parse_float+0x470>
   21814:	f7442783          	lw	a5,-140(s0)
   21818:	00178713          	addi	a4,a5,1
   2181c:	f6e42a23          	sw	a4,-140(s0)
   21820:	02e00713          	li	a4,46
   21824:	00e78023          	sb	a4,0(a5)
   21828:	fe442703          	lw	a4,-28(s0)
   2182c:	00170793          	addi	a5,a4,1
   21830:	fef42223          	sw	a5,-28(s0)
   21834:	f7442783          	lw	a5,-140(s0)
   21838:	00178693          	addi	a3,a5,1
   2183c:	f6d42a23          	sw	a3,-140(s0)
   21840:	00074703          	lbu	a4,0(a4)
   21844:	00e78023          	sb	a4,0(a5)
   21848:	fe442783          	lw	a5,-28(s0)
   2184c:	0007c783          	lbu	a5,0(a5)
   21850:	fa0798e3          	bnez	a5,21800 <parse_float+0x448>
   21854:	0680006f          	j	218bc <parse_float+0x504>
   21858:	f7442783          	lw	a5,-140(s0)
   2185c:	00178713          	addi	a4,a5,1
   21860:	f6e42a23          	sw	a4,-140(s0)
   21864:	03000713          	li	a4,48
   21868:	00e78023          	sb	a4,0(a5)
   2186c:	f6c42783          	lw	a5,-148(s0)
   21870:	04f05663          	blez	a5,218bc <parse_float+0x504>
   21874:	f7442783          	lw	a5,-140(s0)
   21878:	00178713          	addi	a4,a5,1
   2187c:	f6e42a23          	sw	a4,-140(s0)
   21880:	02e00713          	li	a4,46
   21884:	00e78023          	sb	a4,0(a5)
   21888:	fe042423          	sw	zero,-24(s0)
   2188c:	0240006f          	j	218b0 <parse_float+0x4f8>
   21890:	f7442783          	lw	a5,-140(s0)
   21894:	00178713          	addi	a4,a5,1
   21898:	f6e42a23          	sw	a4,-140(s0)
   2189c:	03000713          	li	a4,48
   218a0:	00e78023          	sb	a4,0(a5)
   218a4:	fe842783          	lw	a5,-24(s0)
   218a8:	00178793          	addi	a5,a5,1
   218ac:	fef42423          	sw	a5,-24(s0)
   218b0:	fe842703          	lw	a4,-24(s0)
   218b4:	f6c42783          	lw	a5,-148(s0)
   218b8:	fcf74ce3          	blt	a4,a5,21890 <parse_float+0x4d8>
   218bc:	f7442783          	lw	a5,-140(s0)
   218c0:	00078023          	sb	zero,0(a5)
   218c4:	00000013          	nop
   218c8:	09c12083          	lw	ra,156(sp)
   218cc:	09812403          	lw	s0,152(sp)
   218d0:	0a010113          	addi	sp,sp,160
   218d4:	00008067          	ret

000218d8 <decimal_point>:
   218d8:	fd010113          	addi	sp,sp,-48
   218dc:	02112623          	sw	ra,44(sp)
   218e0:	02812423          	sw	s0,40(sp)
   218e4:	03010413          	addi	s0,sp,48
   218e8:	fca42e23          	sw	a0,-36(s0)
   218ec:	0400006f          	j	2192c <decimal_point+0x54>
   218f0:	fdc42783          	lw	a5,-36(s0)
   218f4:	0007c703          	lbu	a4,0(a5)
   218f8:	02e00793          	li	a5,46
   218fc:	0cf70463          	beq	a4,a5,219c4 <decimal_point+0xec>
   21900:	fdc42783          	lw	a5,-36(s0)
   21904:	0007c703          	lbu	a4,0(a5)
   21908:	06500793          	li	a5,101
   2190c:	02f70663          	beq	a4,a5,21938 <decimal_point+0x60>
   21910:	fdc42783          	lw	a5,-36(s0)
   21914:	0007c703          	lbu	a4,0(a5)
   21918:	04500793          	li	a5,69
   2191c:	00f70e63          	beq	a4,a5,21938 <decimal_point+0x60>
   21920:	fdc42783          	lw	a5,-36(s0)
   21924:	00178793          	addi	a5,a5,1
   21928:	fcf42e23          	sw	a5,-36(s0)
   2192c:	fdc42783          	lw	a5,-36(s0)
   21930:	0007c783          	lbu	a5,0(a5)
   21934:	fa079ee3          	bnez	a5,218f0 <decimal_point+0x18>
   21938:	fdc42783          	lw	a5,-36(s0)
   2193c:	0007c783          	lbu	a5,0(a5)
   21940:	06078263          	beqz	a5,219a4 <decimal_point+0xcc>
   21944:	10000593          	li	a1,256
   21948:	fdc42503          	lw	a0,-36(s0)
   2194c:	48d040ef          	jal	265d8 <strnlen>
   21950:	00050793          	mv	a5,a0
   21954:	fef42623          	sw	a5,-20(s0)
   21958:	0340006f          	j	2198c <decimal_point+0xb4>
   2195c:	fec42783          	lw	a5,-20(s0)
   21960:	fdc42703          	lw	a4,-36(s0)
   21964:	00f70733          	add	a4,a4,a5
   21968:	fec42783          	lw	a5,-20(s0)
   2196c:	00178793          	addi	a5,a5,1
   21970:	fdc42683          	lw	a3,-36(s0)
   21974:	00f687b3          	add	a5,a3,a5
   21978:	00074703          	lbu	a4,0(a4)
   2197c:	00e78023          	sb	a4,0(a5)
   21980:	fec42783          	lw	a5,-20(s0)
   21984:	fff78793          	addi	a5,a5,-1
   21988:	fef42623          	sw	a5,-20(s0)
   2198c:	fec42783          	lw	a5,-20(s0)
   21990:	fcf046e3          	bgtz	a5,2195c <decimal_point+0x84>
   21994:	fdc42783          	lw	a5,-36(s0)
   21998:	02e00713          	li	a4,46
   2199c:	00e78023          	sb	a4,0(a5)
   219a0:	0280006f          	j	219c8 <decimal_point+0xf0>
   219a4:	fdc42783          	lw	a5,-36(s0)
   219a8:	00178713          	addi	a4,a5,1
   219ac:	fce42e23          	sw	a4,-36(s0)
   219b0:	02e00713          	li	a4,46
   219b4:	00e78023          	sb	a4,0(a5)
   219b8:	fdc42783          	lw	a5,-36(s0)
   219bc:	00078023          	sb	zero,0(a5)
   219c0:	0080006f          	j	219c8 <decimal_point+0xf0>
   219c4:	00000013          	nop
   219c8:	02c12083          	lw	ra,44(sp)
   219cc:	02812403          	lw	s0,40(sp)
   219d0:	03010113          	addi	sp,sp,48
   219d4:	00008067          	ret

000219d8 <cropzeros>:
   219d8:	fd010113          	addi	sp,sp,-48
   219dc:	02112623          	sw	ra,44(sp)
   219e0:	02812423          	sw	s0,40(sp)
   219e4:	03010413          	addi	s0,sp,48
   219e8:	fca42e23          	sw	a0,-36(s0)
   219ec:	0100006f          	j	219fc <cropzeros+0x24>
   219f0:	fdc42783          	lw	a5,-36(s0)
   219f4:	00178793          	addi	a5,a5,1
   219f8:	fcf42e23          	sw	a5,-36(s0)
   219fc:	fdc42783          	lw	a5,-36(s0)
   21a00:	0007c783          	lbu	a5,0(a5)
   21a04:	00078a63          	beqz	a5,21a18 <cropzeros+0x40>
   21a08:	fdc42783          	lw	a5,-36(s0)
   21a0c:	0007c703          	lbu	a4,0(a5)
   21a10:	02e00793          	li	a5,46
   21a14:	fcf71ee3          	bne	a4,a5,219f0 <cropzeros+0x18>
   21a18:	fdc42783          	lw	a5,-36(s0)
   21a1c:	00178713          	addi	a4,a5,1
   21a20:	fce42e23          	sw	a4,-36(s0)
   21a24:	0007c783          	lbu	a5,0(a5)
   21a28:	0a078863          	beqz	a5,21ad8 <cropzeros+0x100>
   21a2c:	0100006f          	j	21a3c <cropzeros+0x64>
   21a30:	fdc42783          	lw	a5,-36(s0)
   21a34:	00178793          	addi	a5,a5,1
   21a38:	fcf42e23          	sw	a5,-36(s0)
   21a3c:	fdc42783          	lw	a5,-36(s0)
   21a40:	0007c783          	lbu	a5,0(a5)
   21a44:	02078263          	beqz	a5,21a68 <cropzeros+0x90>
   21a48:	fdc42783          	lw	a5,-36(s0)
   21a4c:	0007c703          	lbu	a4,0(a5)
   21a50:	06500793          	li	a5,101
   21a54:	00f70a63          	beq	a4,a5,21a68 <cropzeros+0x90>
   21a58:	fdc42783          	lw	a5,-36(s0)
   21a5c:	0007c703          	lbu	a4,0(a5)
   21a60:	04500793          	li	a5,69
   21a64:	fcf716e3          	bne	a4,a5,21a30 <cropzeros+0x58>
   21a68:	fdc42783          	lw	a5,-36(s0)
   21a6c:	fff78713          	addi	a4,a5,-1
   21a70:	fce42e23          	sw	a4,-36(s0)
   21a74:	fef42623          	sw	a5,-20(s0)
   21a78:	0100006f          	j	21a88 <cropzeros+0xb0>
   21a7c:	fdc42783          	lw	a5,-36(s0)
   21a80:	fff78793          	addi	a5,a5,-1
   21a84:	fcf42e23          	sw	a5,-36(s0)
   21a88:	fdc42783          	lw	a5,-36(s0)
   21a8c:	0007c703          	lbu	a4,0(a5)
   21a90:	03000793          	li	a5,48
   21a94:	fef704e3          	beq	a4,a5,21a7c <cropzeros+0xa4>
   21a98:	fdc42783          	lw	a5,-36(s0)
   21a9c:	0007c703          	lbu	a4,0(a5)
   21aa0:	02e00793          	li	a5,46
   21aa4:	02f71463          	bne	a4,a5,21acc <cropzeros+0xf4>
   21aa8:	fdc42783          	lw	a5,-36(s0)
   21aac:	fff78793          	addi	a5,a5,-1
   21ab0:	fcf42e23          	sw	a5,-36(s0)
   21ab4:	0180006f          	j	21acc <cropzeros+0xf4>
   21ab8:	fdc42783          	lw	a5,-36(s0)
   21abc:	00178793          	addi	a5,a5,1
   21ac0:	fcf42e23          	sw	a5,-36(s0)
   21ac4:	fdc42783          	lw	a5,-36(s0)
   21ac8:	00078023          	sb	zero,0(a5)
   21acc:	fdc42703          	lw	a4,-36(s0)
   21ad0:	fec42783          	lw	a5,-20(s0)
   21ad4:	fef712e3          	bne	a4,a5,21ab8 <cropzeros+0xe0>
   21ad8:	00000013          	nop
   21adc:	02c12083          	lw	ra,44(sp)
   21ae0:	02812403          	lw	s0,40(sp)
   21ae4:	03010113          	addi	sp,sp,48
   21ae8:	00008067          	ret

00021aec <flt>:
   21aec:	ec010113          	addi	sp,sp,-320
   21af0:	12112e23          	sw	ra,316(sp)
   21af4:	12812c23          	sw	s0,312(sp)
   21af8:	13212a23          	sw	s2,308(sp)
   21afc:	13312823          	sw	s3,304(sp)
   21b00:	14010413          	addi	s0,sp,320
   21b04:	eca42e23          	sw	a0,-292(s0)
   21b08:	ecb42823          	sw	a1,-304(s0)
   21b0c:	ecc42a23          	sw	a2,-300(s0)
   21b10:	ecd42c23          	sw	a3,-296(s0)
   21b14:	ece42623          	sw	a4,-308(s0)
   21b18:	ed042223          	sw	a6,-316(s0)
   21b1c:	ecf405a3          	sb	a5,-309(s0)
   21b20:	ec442783          	lw	a5,-316(s0)
   21b24:	0107f793          	andi	a5,a5,16
   21b28:	00078863          	beqz	a5,21b38 <flt+0x4c>
   21b2c:	ec442783          	lw	a5,-316(s0)
   21b30:	ffe7f793          	andi	a5,a5,-2
   21b34:	ecf42223          	sw	a5,-316(s0)
   21b38:	ec442783          	lw	a5,-316(s0)
   21b3c:	0017f793          	andi	a5,a5,1
   21b40:	00078663          	beqz	a5,21b4c <flt+0x60>
   21b44:	03000793          	li	a5,48
   21b48:	0080006f          	j	21b50 <flt+0x64>
   21b4c:	02000793          	li	a5,32
   21b50:	fef403a3          	sb	a5,-25(s0)
   21b54:	fe0407a3          	sb	zero,-17(s0)
   21b58:	ec442783          	lw	a5,-316(s0)
   21b5c:	0027f793          	andi	a5,a5,2
   21b60:	08078a63          	beqz	a5,21bf4 <flt+0x108>
   21b64:	00000613          	li	a2,0
   21b68:	00000693          	li	a3,0
   21b6c:	ed042503          	lw	a0,-304(s0)
   21b70:	ed442583          	lw	a1,-300(s0)
   21b74:	01d020ef          	jal	24390 <__ledf2>
   21b78:	00050793          	mv	a5,a0
   21b7c:	0207da63          	bgez	a5,21bb0 <flt+0xc4>
   21b80:	02d00793          	li	a5,45
   21b84:	fef407a3          	sb	a5,-17(s0)
   21b88:	ed042903          	lw	s2,-304(s0)
   21b8c:	ed442703          	lw	a4,-300(s0)
   21b90:	800007b7          	lui	a5,0x80000
   21b94:	00f749b3          	xor	s3,a4,a5
   21b98:	ed242823          	sw	s2,-304(s0)
   21b9c:	ed342a23          	sw	s3,-300(s0)
   21ba0:	ed842783          	lw	a5,-296(s0)
   21ba4:	fff78793          	addi	a5,a5,-1 # 7fffffff <_heap_end+0x7ffd70a7>
   21ba8:	ecf42c23          	sw	a5,-296(s0)
   21bac:	0480006f          	j	21bf4 <flt+0x108>
   21bb0:	ec442783          	lw	a5,-316(s0)
   21bb4:	0047f793          	andi	a5,a5,4
   21bb8:	00078e63          	beqz	a5,21bd4 <flt+0xe8>
   21bbc:	02b00793          	li	a5,43
   21bc0:	fef407a3          	sb	a5,-17(s0)
   21bc4:	ed842783          	lw	a5,-296(s0)
   21bc8:	fff78793          	addi	a5,a5,-1
   21bcc:	ecf42c23          	sw	a5,-296(s0)
   21bd0:	0240006f          	j	21bf4 <flt+0x108>
   21bd4:	ec442783          	lw	a5,-316(s0)
   21bd8:	0087f793          	andi	a5,a5,8
   21bdc:	00078c63          	beqz	a5,21bf4 <flt+0x108>
   21be0:	02000793          	li	a5,32
   21be4:	fef407a3          	sb	a5,-17(s0)
   21be8:	ed842783          	lw	a5,-296(s0)
   21bec:	fff78793          	addi	a5,a5,-1
   21bf0:	ecf42c23          	sw	a5,-296(s0)
   21bf4:	ecc42783          	lw	a5,-308(s0)
   21bf8:	0007d663          	bgez	a5,21c04 <flt+0x118>
   21bfc:	00600793          	li	a5,6
   21c00:	ecf42623          	sw	a5,-308(s0)
   21c04:	ecb44683          	lbu	a3,-309(s0)
   21c08:	ee040793          	addi	a5,s0,-288
   21c0c:	ecc42703          	lw	a4,-308(s0)
   21c10:	00078613          	mv	a2,a5
   21c14:	ed042503          	lw	a0,-304(s0)
   21c18:	ed442583          	lw	a1,-300(s0)
   21c1c:	f9cff0ef          	jal	213b8 <parse_float>
   21c20:	ec442783          	lw	a5,-316(s0)
   21c24:	0207f793          	andi	a5,a5,32
   21c28:	00078c63          	beqz	a5,21c40 <flt+0x154>
   21c2c:	ecc42783          	lw	a5,-308(s0)
   21c30:	00079863          	bnez	a5,21c40 <flt+0x154>
   21c34:	ee040793          	addi	a5,s0,-288
   21c38:	00078513          	mv	a0,a5
   21c3c:	c9dff0ef          	jal	218d8 <decimal_point>
   21c40:	ecb44703          	lbu	a4,-309(s0)
   21c44:	06700793          	li	a5,103
   21c48:	00f71e63          	bne	a4,a5,21c64 <flt+0x178>
   21c4c:	ec442783          	lw	a5,-316(s0)
   21c50:	0207f793          	andi	a5,a5,32
   21c54:	00079863          	bnez	a5,21c64 <flt+0x178>
   21c58:	ee040793          	addi	a5,s0,-288
   21c5c:	00078513          	mv	a0,a5
   21c60:	d79ff0ef          	jal	219d8 <cropzeros>
   21c64:	ee040793          	addi	a5,s0,-288
   21c68:	10000593          	li	a1,256
   21c6c:	00078513          	mv	a0,a5
   21c70:	169040ef          	jal	265d8 <strnlen>
   21c74:	00050793          	mv	a5,a0
   21c78:	fef42023          	sw	a5,-32(s0)
   21c7c:	ed842703          	lw	a4,-296(s0)
   21c80:	fe042783          	lw	a5,-32(s0)
   21c84:	40f707b3          	sub	a5,a4,a5
   21c88:	ecf42c23          	sw	a5,-296(s0)
   21c8c:	ec442783          	lw	a5,-316(s0)
   21c90:	0117f793          	andi	a5,a5,17
   21c94:	02079663          	bnez	a5,21cc0 <flt+0x1d4>
   21c98:	0180006f          	j	21cb0 <flt+0x1c4>
   21c9c:	edc42783          	lw	a5,-292(s0)
   21ca0:	00178713          	addi	a4,a5,1
   21ca4:	ece42e23          	sw	a4,-292(s0)
   21ca8:	02000713          	li	a4,32
   21cac:	00e78023          	sb	a4,0(a5)
   21cb0:	ed842783          	lw	a5,-296(s0)
   21cb4:	fff78713          	addi	a4,a5,-1
   21cb8:	ece42c23          	sw	a4,-296(s0)
   21cbc:	fef040e3          	bgtz	a5,21c9c <flt+0x1b0>
   21cc0:	fef44783          	lbu	a5,-17(s0)
   21cc4:	00078c63          	beqz	a5,21cdc <flt+0x1f0>
   21cc8:	edc42783          	lw	a5,-292(s0)
   21ccc:	00178713          	addi	a4,a5,1
   21cd0:	ece42e23          	sw	a4,-292(s0)
   21cd4:	fef44703          	lbu	a4,-17(s0)
   21cd8:	00e78023          	sb	a4,0(a5)
   21cdc:	ec442783          	lw	a5,-316(s0)
   21ce0:	0107f793          	andi	a5,a5,16
   21ce4:	02079663          	bnez	a5,21d10 <flt+0x224>
   21ce8:	0180006f          	j	21d00 <flt+0x214>
   21cec:	edc42783          	lw	a5,-292(s0)
   21cf0:	00178713          	addi	a4,a5,1
   21cf4:	ece42e23          	sw	a4,-292(s0)
   21cf8:	fe744703          	lbu	a4,-25(s0)
   21cfc:	00e78023          	sb	a4,0(a5)
   21d00:	ed842783          	lw	a5,-296(s0)
   21d04:	fff78713          	addi	a4,a5,-1
   21d08:	ece42c23          	sw	a4,-296(s0)
   21d0c:	fef040e3          	bgtz	a5,21cec <flt+0x200>
   21d10:	fe042423          	sw	zero,-24(s0)
   21d14:	0300006f          	j	21d44 <flt+0x258>
   21d18:	edc42783          	lw	a5,-292(s0)
   21d1c:	00178713          	addi	a4,a5,1
   21d20:	ece42e23          	sw	a4,-292(s0)
   21d24:	fe842703          	lw	a4,-24(s0)
   21d28:	ff070713          	addi	a4,a4,-16
   21d2c:	00870733          	add	a4,a4,s0
   21d30:	ef074703          	lbu	a4,-272(a4)
   21d34:	00e78023          	sb	a4,0(a5)
   21d38:	fe842783          	lw	a5,-24(s0)
   21d3c:	00178793          	addi	a5,a5,1
   21d40:	fef42423          	sw	a5,-24(s0)
   21d44:	fe842703          	lw	a4,-24(s0)
   21d48:	fe042783          	lw	a5,-32(s0)
   21d4c:	fcf746e3          	blt	a4,a5,21d18 <flt+0x22c>
   21d50:	0180006f          	j	21d68 <flt+0x27c>
   21d54:	edc42783          	lw	a5,-292(s0)
   21d58:	00178713          	addi	a4,a5,1
   21d5c:	ece42e23          	sw	a4,-292(s0)
   21d60:	02000713          	li	a4,32
   21d64:	00e78023          	sb	a4,0(a5)
   21d68:	ed842783          	lw	a5,-296(s0)
   21d6c:	fff78713          	addi	a4,a5,-1
   21d70:	ece42c23          	sw	a4,-296(s0)
   21d74:	fef040e3          	bgtz	a5,21d54 <flt+0x268>
   21d78:	edc42783          	lw	a5,-292(s0)
   21d7c:	00078513          	mv	a0,a5
   21d80:	13c12083          	lw	ra,316(sp)
   21d84:	13812403          	lw	s0,312(sp)
   21d88:	13412903          	lw	s2,308(sp)
   21d8c:	13012983          	lw	s3,304(sp)
   21d90:	14010113          	addi	sp,sp,320
   21d94:	00008067          	ret

00021d98 <ee_vsprintf>:
   21d98:	fb010113          	addi	sp,sp,-80
   21d9c:	04112623          	sw	ra,76(sp)
   21da0:	04812423          	sw	s0,72(sp)
   21da4:	05010413          	addi	s0,sp,80
   21da8:	faa42e23          	sw	a0,-68(s0)
   21dac:	fab42c23          	sw	a1,-72(s0)
   21db0:	fac42a23          	sw	a2,-76(s0)
   21db4:	fbc42783          	lw	a5,-68(s0)
   21db8:	fef42023          	sw	a5,-32(s0)
   21dbc:	6180006f          	j	223d4 <ee_vsprintf+0x63c>
   21dc0:	fb842783          	lw	a5,-72(s0)
   21dc4:	0007c703          	lbu	a4,0(a5)
   21dc8:	02500793          	li	a5,37
   21dcc:	02f70063          	beq	a4,a5,21dec <ee_vsprintf+0x54>
   21dd0:	fb842703          	lw	a4,-72(s0)
   21dd4:	fe042783          	lw	a5,-32(s0)
   21dd8:	00178693          	addi	a3,a5,1
   21ddc:	fed42023          	sw	a3,-32(s0)
   21de0:	00074703          	lbu	a4,0(a4)
   21de4:	00e78023          	sb	a4,0(a5)
   21de8:	5e00006f          	j	223c8 <ee_vsprintf+0x630>
   21dec:	fc042c23          	sw	zero,-40(s0)
   21df0:	fb842783          	lw	a5,-72(s0)
   21df4:	00178793          	addi	a5,a5,1
   21df8:	faf42c23          	sw	a5,-72(s0)
   21dfc:	fb842783          	lw	a5,-72(s0)
   21e00:	0007c783          	lbu	a5,0(a5)
   21e04:	fe078793          	addi	a5,a5,-32
   21e08:	01000713          	li	a4,16
   21e0c:	06f76c63          	bltu	a4,a5,21e84 <ee_vsprintf+0xec>
   21e10:	00279713          	slli	a4,a5,0x2
   21e14:	00005797          	auipc	a5,0x5
   21e18:	dec78793          	addi	a5,a5,-532 # 26c00 <__fpclassifyd+0x318>
   21e1c:	00f707b3          	add	a5,a4,a5
   21e20:	0007a703          	lw	a4,0(a5)
   21e24:	00005797          	auipc	a5,0x5
   21e28:	ddc78793          	addi	a5,a5,-548 # 26c00 <__fpclassifyd+0x318>
   21e2c:	00f707b3          	add	a5,a4,a5
   21e30:	00078067          	jr	a5
   21e34:	fd842783          	lw	a5,-40(s0)
   21e38:	0107e793          	ori	a5,a5,16
   21e3c:	fcf42c23          	sw	a5,-40(s0)
   21e40:	fb1ff06f          	j	21df0 <ee_vsprintf+0x58>
   21e44:	fd842783          	lw	a5,-40(s0)
   21e48:	0047e793          	ori	a5,a5,4
   21e4c:	fcf42c23          	sw	a5,-40(s0)
   21e50:	fa1ff06f          	j	21df0 <ee_vsprintf+0x58>
   21e54:	fd842783          	lw	a5,-40(s0)
   21e58:	0087e793          	ori	a5,a5,8
   21e5c:	fcf42c23          	sw	a5,-40(s0)
   21e60:	f91ff06f          	j	21df0 <ee_vsprintf+0x58>
   21e64:	fd842783          	lw	a5,-40(s0)
   21e68:	0207e793          	ori	a5,a5,32
   21e6c:	fcf42c23          	sw	a5,-40(s0)
   21e70:	f81ff06f          	j	21df0 <ee_vsprintf+0x58>
   21e74:	fd842783          	lw	a5,-40(s0)
   21e78:	0017e793          	ori	a5,a5,1
   21e7c:	fcf42c23          	sw	a5,-40(s0)
   21e80:	f71ff06f          	j	21df0 <ee_vsprintf+0x58>
   21e84:	fff00793          	li	a5,-1
   21e88:	fcf42a23          	sw	a5,-44(s0)
   21e8c:	fb842783          	lw	a5,-72(s0)
   21e90:	0007c703          	lbu	a4,0(a5)
   21e94:	02f00793          	li	a5,47
   21e98:	02e7f463          	bgeu	a5,a4,21ec0 <ee_vsprintf+0x128>
   21e9c:	fb842783          	lw	a5,-72(s0)
   21ea0:	0007c703          	lbu	a4,0(a5)
   21ea4:	03900793          	li	a5,57
   21ea8:	00e7ec63          	bltu	a5,a4,21ec0 <ee_vsprintf+0x128>
   21eac:	fb840793          	addi	a5,s0,-72
   21eb0:	00078513          	mv	a0,a5
   21eb4:	851fe0ef          	jal	20704 <skip_atoi>
   21eb8:	fca42a23          	sw	a0,-44(s0)
   21ebc:	0540006f          	j	21f10 <ee_vsprintf+0x178>
   21ec0:	fb842783          	lw	a5,-72(s0)
   21ec4:	0007c703          	lbu	a4,0(a5)
   21ec8:	02a00793          	li	a5,42
   21ecc:	04f71263          	bne	a4,a5,21f10 <ee_vsprintf+0x178>
   21ed0:	fb842783          	lw	a5,-72(s0)
   21ed4:	00178793          	addi	a5,a5,1
   21ed8:	faf42c23          	sw	a5,-72(s0)
   21edc:	fb442783          	lw	a5,-76(s0)
   21ee0:	00478713          	addi	a4,a5,4
   21ee4:	fae42a23          	sw	a4,-76(s0)
   21ee8:	0007a783          	lw	a5,0(a5)
   21eec:	fcf42a23          	sw	a5,-44(s0)
   21ef0:	fd442783          	lw	a5,-44(s0)
   21ef4:	0007de63          	bgez	a5,21f10 <ee_vsprintf+0x178>
   21ef8:	fd442783          	lw	a5,-44(s0)
   21efc:	40f007b3          	neg	a5,a5
   21f00:	fcf42a23          	sw	a5,-44(s0)
   21f04:	fd842783          	lw	a5,-40(s0)
   21f08:	0107e793          	ori	a5,a5,16
   21f0c:	fcf42c23          	sw	a5,-40(s0)
   21f10:	fff00793          	li	a5,-1
   21f14:	fcf42823          	sw	a5,-48(s0)
   21f18:	fb842783          	lw	a5,-72(s0)
   21f1c:	0007c703          	lbu	a4,0(a5)
   21f20:	02e00793          	li	a5,46
   21f24:	08f71063          	bne	a4,a5,21fa4 <ee_vsprintf+0x20c>
   21f28:	fb842783          	lw	a5,-72(s0)
   21f2c:	00178793          	addi	a5,a5,1
   21f30:	faf42c23          	sw	a5,-72(s0)
   21f34:	fb842783          	lw	a5,-72(s0)
   21f38:	0007c703          	lbu	a4,0(a5)
   21f3c:	02f00793          	li	a5,47
   21f40:	02e7f463          	bgeu	a5,a4,21f68 <ee_vsprintf+0x1d0>
   21f44:	fb842783          	lw	a5,-72(s0)
   21f48:	0007c703          	lbu	a4,0(a5)
   21f4c:	03900793          	li	a5,57
   21f50:	00e7ec63          	bltu	a5,a4,21f68 <ee_vsprintf+0x1d0>
   21f54:	fb840793          	addi	a5,s0,-72
   21f58:	00078513          	mv	a0,a5
   21f5c:	fa8fe0ef          	jal	20704 <skip_atoi>
   21f60:	fca42823          	sw	a0,-48(s0)
   21f64:	0340006f          	j	21f98 <ee_vsprintf+0x200>
   21f68:	fb842783          	lw	a5,-72(s0)
   21f6c:	0007c703          	lbu	a4,0(a5)
   21f70:	02a00793          	li	a5,42
   21f74:	02f71263          	bne	a4,a5,21f98 <ee_vsprintf+0x200>
   21f78:	fb842783          	lw	a5,-72(s0)
   21f7c:	00178793          	addi	a5,a5,1
   21f80:	faf42c23          	sw	a5,-72(s0)
   21f84:	fb442783          	lw	a5,-76(s0)
   21f88:	00478713          	addi	a4,a5,4
   21f8c:	fae42a23          	sw	a4,-76(s0)
   21f90:	0007a783          	lw	a5,0(a5)
   21f94:	fcf42823          	sw	a5,-48(s0)
   21f98:	fd042783          	lw	a5,-48(s0)
   21f9c:	0007d463          	bgez	a5,21fa4 <ee_vsprintf+0x20c>
   21fa0:	fc042823          	sw	zero,-48(s0)
   21fa4:	fff00793          	li	a5,-1
   21fa8:	fcf42623          	sw	a5,-52(s0)
   21fac:	fb842783          	lw	a5,-72(s0)
   21fb0:	0007c703          	lbu	a4,0(a5)
   21fb4:	06c00793          	li	a5,108
   21fb8:	00f70a63          	beq	a4,a5,21fcc <ee_vsprintf+0x234>
   21fbc:	fb842783          	lw	a5,-72(s0)
   21fc0:	0007c703          	lbu	a4,0(a5)
   21fc4:	04c00793          	li	a5,76
   21fc8:	00f71e63          	bne	a4,a5,21fe4 <ee_vsprintf+0x24c>
   21fcc:	fb842783          	lw	a5,-72(s0)
   21fd0:	0007c783          	lbu	a5,0(a5)
   21fd4:	fcf42623          	sw	a5,-52(s0)
   21fd8:	fb842783          	lw	a5,-72(s0)
   21fdc:	00178793          	addi	a5,a5,1
   21fe0:	faf42c23          	sw	a5,-72(s0)
   21fe4:	00a00793          	li	a5,10
   21fe8:	fef42223          	sw	a5,-28(s0)
   21fec:	fb842783          	lw	a5,-72(s0)
   21ff0:	0007c783          	lbu	a5,0(a5)
   21ff4:	fbf78793          	addi	a5,a5,-65
   21ff8:	03700713          	li	a4,55
   21ffc:	2ef76863          	bltu	a4,a5,222ec <ee_vsprintf+0x554>
   22000:	00279713          	slli	a4,a5,0x2
   22004:	00005797          	auipc	a5,0x5
   22008:	c4078793          	addi	a5,a5,-960 # 26c44 <__fpclassifyd+0x35c>
   2200c:	00f707b3          	add	a5,a4,a5
   22010:	0007a703          	lw	a4,0(a5)
   22014:	00005797          	auipc	a5,0x5
   22018:	c3078793          	addi	a5,a5,-976 # 26c44 <__fpclassifyd+0x35c>
   2201c:	00f707b3          	add	a5,a4,a5
   22020:	00078067          	jr	a5
   22024:	fd842783          	lw	a5,-40(s0)
   22028:	0107f793          	andi	a5,a5,16
   2202c:	02079863          	bnez	a5,2205c <ee_vsprintf+0x2c4>
   22030:	0180006f          	j	22048 <ee_vsprintf+0x2b0>
   22034:	fe042783          	lw	a5,-32(s0)
   22038:	00178713          	addi	a4,a5,1
   2203c:	fee42023          	sw	a4,-32(s0)
   22040:	02000713          	li	a4,32
   22044:	00e78023          	sb	a4,0(a5)
   22048:	fd442783          	lw	a5,-44(s0)
   2204c:	fff78793          	addi	a5,a5,-1
   22050:	fcf42a23          	sw	a5,-44(s0)
   22054:	fd442783          	lw	a5,-44(s0)
   22058:	fcf04ee3          	bgtz	a5,22034 <ee_vsprintf+0x29c>
   2205c:	fb442783          	lw	a5,-76(s0)
   22060:	00478713          	addi	a4,a5,4
   22064:	fae42a23          	sw	a4,-76(s0)
   22068:	0007a683          	lw	a3,0(a5)
   2206c:	fe042783          	lw	a5,-32(s0)
   22070:	00178713          	addi	a4,a5,1
   22074:	fee42023          	sw	a4,-32(s0)
   22078:	0ff6f713          	zext.b	a4,a3
   2207c:	00e78023          	sb	a4,0(a5)
   22080:	0180006f          	j	22098 <ee_vsprintf+0x300>
   22084:	fe042783          	lw	a5,-32(s0)
   22088:	00178713          	addi	a4,a5,1
   2208c:	fee42023          	sw	a4,-32(s0)
   22090:	02000713          	li	a4,32
   22094:	00e78023          	sb	a4,0(a5)
   22098:	fd442783          	lw	a5,-44(s0)
   2209c:	fff78793          	addi	a5,a5,-1
   220a0:	fcf42a23          	sw	a5,-44(s0)
   220a4:	fd442783          	lw	a5,-44(s0)
   220a8:	fcf04ee3          	bgtz	a5,22084 <ee_vsprintf+0x2ec>
   220ac:	31c0006f          	j	223c8 <ee_vsprintf+0x630>
   220b0:	fb442783          	lw	a5,-76(s0)
   220b4:	00478713          	addi	a4,a5,4
   220b8:	fae42a23          	sw	a4,-76(s0)
   220bc:	0007a783          	lw	a5,0(a5)
   220c0:	fcf42e23          	sw	a5,-36(s0)
   220c4:	fdc42783          	lw	a5,-36(s0)
   220c8:	00079863          	bnez	a5,220d8 <ee_vsprintf+0x340>
   220cc:	00005797          	auipc	a5,0x5
   220d0:	b2c78793          	addi	a5,a5,-1236 # 26bf8 <__fpclassifyd+0x310>
   220d4:	fcf42e23          	sw	a5,-36(s0)
   220d8:	fd042783          	lw	a5,-48(s0)
   220dc:	00078593          	mv	a1,a5
   220e0:	fdc42503          	lw	a0,-36(s0)
   220e4:	4f4040ef          	jal	265d8 <strnlen>
   220e8:	00050793          	mv	a5,a0
   220ec:	fcf42423          	sw	a5,-56(s0)
   220f0:	fd842783          	lw	a5,-40(s0)
   220f4:	0107f793          	andi	a5,a5,16
   220f8:	02079863          	bnez	a5,22128 <ee_vsprintf+0x390>
   220fc:	0180006f          	j	22114 <ee_vsprintf+0x37c>
   22100:	fe042783          	lw	a5,-32(s0)
   22104:	00178713          	addi	a4,a5,1
   22108:	fee42023          	sw	a4,-32(s0)
   2210c:	02000713          	li	a4,32
   22110:	00e78023          	sb	a4,0(a5)
   22114:	fd442783          	lw	a5,-44(s0)
   22118:	fff78713          	addi	a4,a5,-1
   2211c:	fce42a23          	sw	a4,-44(s0)
   22120:	fc842703          	lw	a4,-56(s0)
   22124:	fcf74ee3          	blt	a4,a5,22100 <ee_vsprintf+0x368>
   22128:	fe042423          	sw	zero,-24(s0)
   2212c:	0300006f          	j	2215c <ee_vsprintf+0x3c4>
   22130:	fdc42703          	lw	a4,-36(s0)
   22134:	00170793          	addi	a5,a4,1
   22138:	fcf42e23          	sw	a5,-36(s0)
   2213c:	fe042783          	lw	a5,-32(s0)
   22140:	00178693          	addi	a3,a5,1
   22144:	fed42023          	sw	a3,-32(s0)
   22148:	00074703          	lbu	a4,0(a4)
   2214c:	00e78023          	sb	a4,0(a5)
   22150:	fe842783          	lw	a5,-24(s0)
   22154:	00178793          	addi	a5,a5,1
   22158:	fef42423          	sw	a5,-24(s0)
   2215c:	fe842703          	lw	a4,-24(s0)
   22160:	fc842783          	lw	a5,-56(s0)
   22164:	fcf746e3          	blt	a4,a5,22130 <ee_vsprintf+0x398>
   22168:	0180006f          	j	22180 <ee_vsprintf+0x3e8>
   2216c:	fe042783          	lw	a5,-32(s0)
   22170:	00178713          	addi	a4,a5,1
   22174:	fee42023          	sw	a4,-32(s0)
   22178:	02000713          	li	a4,32
   2217c:	00e78023          	sb	a4,0(a5)
   22180:	fd442783          	lw	a5,-44(s0)
   22184:	fff78713          	addi	a4,a5,-1
   22188:	fce42a23          	sw	a4,-44(s0)
   2218c:	fc842703          	lw	a4,-56(s0)
   22190:	fcf74ee3          	blt	a4,a5,2216c <ee_vsprintf+0x3d4>
   22194:	2340006f          	j	223c8 <ee_vsprintf+0x630>
   22198:	fd442703          	lw	a4,-44(s0)
   2219c:	fff00793          	li	a5,-1
   221a0:	00f71c63          	bne	a4,a5,221b8 <ee_vsprintf+0x420>
   221a4:	00800793          	li	a5,8
   221a8:	fcf42a23          	sw	a5,-44(s0)
   221ac:	fd842783          	lw	a5,-40(s0)
   221b0:	0017e793          	ori	a5,a5,1
   221b4:	fcf42c23          	sw	a5,-40(s0)
   221b8:	fb442783          	lw	a5,-76(s0)
   221bc:	00478713          	addi	a4,a5,4
   221c0:	fae42a23          	sw	a4,-76(s0)
   221c4:	0007a783          	lw	a5,0(a5)
   221c8:	00078593          	mv	a1,a5
   221cc:	fd842783          	lw	a5,-40(s0)
   221d0:	fd042703          	lw	a4,-48(s0)
   221d4:	fd442683          	lw	a3,-44(s0)
   221d8:	01000613          	li	a2,16
   221dc:	fe042503          	lw	a0,-32(s0)
   221e0:	905fe0ef          	jal	20ae4 <number>
   221e4:	fea42023          	sw	a0,-32(s0)
   221e8:	1e00006f          	j	223c8 <ee_vsprintf+0x630>
   221ec:	fd842783          	lw	a5,-40(s0)
   221f0:	0407e793          	ori	a5,a5,64
   221f4:	fcf42c23          	sw	a5,-40(s0)
   221f8:	fcc42703          	lw	a4,-52(s0)
   221fc:	06c00793          	li	a5,108
   22200:	02f71a63          	bne	a4,a5,22234 <ee_vsprintf+0x49c>
   22204:	fb442783          	lw	a5,-76(s0)
   22208:	00478713          	addi	a4,a5,4
   2220c:	fae42a23          	sw	a4,-76(s0)
   22210:	0007a783          	lw	a5,0(a5)
   22214:	fd842703          	lw	a4,-40(s0)
   22218:	fd042683          	lw	a3,-48(s0)
   2221c:	fd442603          	lw	a2,-44(s0)
   22220:	00078593          	mv	a1,a5
   22224:	fe042503          	lw	a0,-32(s0)
   22228:	c45fe0ef          	jal	20e6c <eaddr>
   2222c:	fea42023          	sw	a0,-32(s0)
   22230:	1980006f          	j	223c8 <ee_vsprintf+0x630>
   22234:	fb442783          	lw	a5,-76(s0)
   22238:	00478713          	addi	a4,a5,4
   2223c:	fae42a23          	sw	a4,-76(s0)
   22240:	0007a783          	lw	a5,0(a5)
   22244:	fd842703          	lw	a4,-40(s0)
   22248:	fd042683          	lw	a3,-48(s0)
   2224c:	fd442603          	lw	a2,-44(s0)
   22250:	00078593          	mv	a1,a5
   22254:	fe042503          	lw	a0,-32(s0)
   22258:	dd9fe0ef          	jal	21030 <iaddr>
   2225c:	fea42023          	sw	a0,-32(s0)
   22260:	1680006f          	j	223c8 <ee_vsprintf+0x630>
   22264:	00800793          	li	a5,8
   22268:	fef42223          	sw	a5,-28(s0)
   2226c:	0e00006f          	j	2234c <ee_vsprintf+0x5b4>
   22270:	fd842783          	lw	a5,-40(s0)
   22274:	0407e793          	ori	a5,a5,64
   22278:	fcf42c23          	sw	a5,-40(s0)
   2227c:	01000793          	li	a5,16
   22280:	fef42223          	sw	a5,-28(s0)
   22284:	0c80006f          	j	2234c <ee_vsprintf+0x5b4>
   22288:	fd842783          	lw	a5,-40(s0)
   2228c:	0027e793          	ori	a5,a5,2
   22290:	fcf42c23          	sw	a5,-40(s0)
   22294:	0b40006f          	j	22348 <ee_vsprintf+0x5b0>
   22298:	fb442783          	lw	a5,-76(s0)
   2229c:	00778793          	addi	a5,a5,7
   222a0:	ff87f793          	andi	a5,a5,-8
   222a4:	00878713          	addi	a4,a5,8
   222a8:	fae42a23          	sw	a4,-76(s0)
   222ac:	0007a503          	lw	a0,0(a5)
   222b0:	0047a583          	lw	a1,4(a5)
   222b4:	fb842783          	lw	a5,-72(s0)
   222b8:	0007c703          	lbu	a4,0(a5)
   222bc:	fd842783          	lw	a5,-40(s0)
   222c0:	0027e793          	ori	a5,a5,2
   222c4:	00078813          	mv	a6,a5
   222c8:	00070793          	mv	a5,a4
   222cc:	fd042703          	lw	a4,-48(s0)
   222d0:	fd442683          	lw	a3,-44(s0)
   222d4:	00058613          	mv	a2,a1
   222d8:	00050593          	mv	a1,a0
   222dc:	fe042503          	lw	a0,-32(s0)
   222e0:	80dff0ef          	jal	21aec <flt>
   222e4:	fea42023          	sw	a0,-32(s0)
   222e8:	0e00006f          	j	223c8 <ee_vsprintf+0x630>
   222ec:	fb842783          	lw	a5,-72(s0)
   222f0:	0007c703          	lbu	a4,0(a5)
   222f4:	02500793          	li	a5,37
   222f8:	00f70c63          	beq	a4,a5,22310 <ee_vsprintf+0x578>
   222fc:	fe042783          	lw	a5,-32(s0)
   22300:	00178713          	addi	a4,a5,1
   22304:	fee42023          	sw	a4,-32(s0)
   22308:	02500713          	li	a4,37
   2230c:	00e78023          	sb	a4,0(a5)
   22310:	fb842783          	lw	a5,-72(s0)
   22314:	0007c783          	lbu	a5,0(a5)
   22318:	02078063          	beqz	a5,22338 <ee_vsprintf+0x5a0>
   2231c:	fb842703          	lw	a4,-72(s0)
   22320:	fe042783          	lw	a5,-32(s0)
   22324:	00178693          	addi	a3,a5,1
   22328:	fed42023          	sw	a3,-32(s0)
   2232c:	00074703          	lbu	a4,0(a4)
   22330:	00e78023          	sb	a4,0(a5)
   22334:	0940006f          	j	223c8 <ee_vsprintf+0x630>
   22338:	fb842783          	lw	a5,-72(s0)
   2233c:	fff78793          	addi	a5,a5,-1
   22340:	faf42c23          	sw	a5,-72(s0)
   22344:	0840006f          	j	223c8 <ee_vsprintf+0x630>
   22348:	00000013          	nop
   2234c:	fcc42703          	lw	a4,-52(s0)
   22350:	06c00793          	li	a5,108
   22354:	00f71e63          	bne	a4,a5,22370 <ee_vsprintf+0x5d8>
   22358:	fb442783          	lw	a5,-76(s0)
   2235c:	00478713          	addi	a4,a5,4
   22360:	fae42a23          	sw	a4,-76(s0)
   22364:	0007a783          	lw	a5,0(a5)
   22368:	fef42623          	sw	a5,-20(s0)
   2236c:	03c0006f          	j	223a8 <ee_vsprintf+0x610>
   22370:	fd842783          	lw	a5,-40(s0)
   22374:	0027f793          	andi	a5,a5,2
   22378:	00078e63          	beqz	a5,22394 <ee_vsprintf+0x5fc>
   2237c:	fb442783          	lw	a5,-76(s0)
   22380:	00478713          	addi	a4,a5,4
   22384:	fae42a23          	sw	a4,-76(s0)
   22388:	0007a783          	lw	a5,0(a5)
   2238c:	fef42623          	sw	a5,-20(s0)
   22390:	0180006f          	j	223a8 <ee_vsprintf+0x610>
   22394:	fb442783          	lw	a5,-76(s0)
   22398:	00478713          	addi	a4,a5,4
   2239c:	fae42a23          	sw	a4,-76(s0)
   223a0:	0007a783          	lw	a5,0(a5)
   223a4:	fef42623          	sw	a5,-20(s0)
   223a8:	fec42583          	lw	a1,-20(s0)
   223ac:	fd842783          	lw	a5,-40(s0)
   223b0:	fd042703          	lw	a4,-48(s0)
   223b4:	fd442683          	lw	a3,-44(s0)
   223b8:	fe442603          	lw	a2,-28(s0)
   223bc:	fe042503          	lw	a0,-32(s0)
   223c0:	f24fe0ef          	jal	20ae4 <number>
   223c4:	fea42023          	sw	a0,-32(s0)
   223c8:	fb842783          	lw	a5,-72(s0)
   223cc:	00178793          	addi	a5,a5,1
   223d0:	faf42c23          	sw	a5,-72(s0)
   223d4:	fb842783          	lw	a5,-72(s0)
   223d8:	0007c783          	lbu	a5,0(a5)
   223dc:	9e0792e3          	bnez	a5,21dc0 <ee_vsprintf+0x28>
   223e0:	fe042783          	lw	a5,-32(s0)
   223e4:	00078023          	sb	zero,0(a5)
   223e8:	fe042703          	lw	a4,-32(s0)
   223ec:	fbc42783          	lw	a5,-68(s0)
   223f0:	40f707b3          	sub	a5,a4,a5
   223f4:	00078513          	mv	a0,a5
   223f8:	04c12083          	lw	ra,76(sp)
   223fc:	04812403          	lw	s0,72(sp)
   22400:	05010113          	addi	sp,sp,80
   22404:	00008067          	ret

00022408 <puts>:
   22408:	fd010113          	addi	sp,sp,-48
   2240c:	02112623          	sw	ra,44(sp)
   22410:	02812423          	sw	s0,40(sp)
   22414:	03010413          	addi	s0,sp,48
   22418:	fca42e23          	sw	a0,-36(s0)
   2241c:	fe042623          	sw	zero,-20(s0)
   22420:	0300006f          	j	22450 <puts+0x48>
   22424:	fdc42783          	lw	a5,-36(s0)
   22428:	00178713          	addi	a4,a5,1
   2242c:	fce42e23          	sw	a4,-36(s0)
   22430:	0007c783          	lbu	a5,0(a5)
   22434:	00078513          	mv	a0,a5
   22438:	864fe0ef          	jal	2049c <putchar>
   2243c:	00050713          	mv	a4,a0
   22440:	fff00793          	li	a5,-1
   22444:	00f71663          	bne	a4,a5,22450 <puts+0x48>
   22448:	fff00793          	li	a5,-1
   2244c:	0300006f          	j	2247c <puts+0x74>
   22450:	fdc42783          	lw	a5,-36(s0)
   22454:	0007c783          	lbu	a5,0(a5)
   22458:	fc0796e3          	bnez	a5,22424 <puts+0x1c>
   2245c:	00a00513          	li	a0,10
   22460:	83cfe0ef          	jal	2049c <putchar>
   22464:	00050713          	mv	a4,a0
   22468:	fff00793          	li	a5,-1
   2246c:	00f71663          	bne	a4,a5,22478 <puts+0x70>
   22470:	fff00793          	li	a5,-1
   22474:	0080006f          	j	2247c <puts+0x74>
   22478:	00100793          	li	a5,1
   2247c:	00078513          	mv	a0,a5
   22480:	02c12083          	lw	ra,44(sp)
   22484:	02812403          	lw	s0,40(sp)
   22488:	03010113          	addi	sp,sp,48
   2248c:	00008067          	ret

00022490 <printf>:
   22490:	eb010113          	addi	sp,sp,-336
   22494:	12112623          	sw	ra,300(sp)
   22498:	12812423          	sw	s0,296(sp)
   2249c:	13010413          	addi	s0,sp,304
   224a0:	eca42e23          	sw	a0,-292(s0)
   224a4:	00b42223          	sw	a1,4(s0)
   224a8:	00c42423          	sw	a2,8(s0)
   224ac:	00d42623          	sw	a3,12(s0)
   224b0:	00e42823          	sw	a4,16(s0)
   224b4:	00f42a23          	sw	a5,20(s0)
   224b8:	01042c23          	sw	a6,24(s0)
   224bc:	01142e23          	sw	a7,28(s0)
   224c0:	fe042423          	sw	zero,-24(s0)
   224c4:	02040793          	addi	a5,s0,32
   224c8:	ecf42c23          	sw	a5,-296(s0)
   224cc:	ed842783          	lw	a5,-296(s0)
   224d0:	fe478793          	addi	a5,a5,-28
   224d4:	eef42223          	sw	a5,-284(s0)
   224d8:	ee442703          	lw	a4,-284(s0)
   224dc:	ee840793          	addi	a5,s0,-280
   224e0:	00070613          	mv	a2,a4
   224e4:	edc42583          	lw	a1,-292(s0)
   224e8:	00078513          	mv	a0,a5
   224ec:	8adff0ef          	jal	21d98 <ee_vsprintf>
   224f0:	ee840793          	addi	a5,s0,-280
   224f4:	fef42623          	sw	a5,-20(s0)
   224f8:	02c0006f          	j	22524 <printf+0x94>
   224fc:	fec42783          	lw	a5,-20(s0)
   22500:	0007c783          	lbu	a5,0(a5)
   22504:	00078513          	mv	a0,a5
   22508:	f95fd0ef          	jal	2049c <putchar>
   2250c:	fe842783          	lw	a5,-24(s0)
   22510:	00178793          	addi	a5,a5,1
   22514:	fef42423          	sw	a5,-24(s0)
   22518:	fec42783          	lw	a5,-20(s0)
   2251c:	00178793          	addi	a5,a5,1
   22520:	fef42623          	sw	a5,-20(s0)
   22524:	fec42783          	lw	a5,-20(s0)
   22528:	0007c783          	lbu	a5,0(a5)
   2252c:	fc0798e3          	bnez	a5,224fc <printf+0x6c>
   22530:	fe842783          	lw	a5,-24(s0)
   22534:	00078513          	mv	a0,a5
   22538:	12c12083          	lw	ra,300(sp)
   2253c:	12812403          	lw	s0,296(sp)
   22540:	15010113          	addi	sp,sp,336
   22544:	00008067          	ret

00022548 <sprintf>:
   22548:	fb010113          	addi	sp,sp,-80
   2254c:	02112623          	sw	ra,44(sp)
   22550:	02812423          	sw	s0,40(sp)
   22554:	03010413          	addi	s0,sp,48
   22558:	fca42e23          	sw	a0,-36(s0)
   2255c:	fcb42c23          	sw	a1,-40(s0)
   22560:	00c42423          	sw	a2,8(s0)
   22564:	00d42623          	sw	a3,12(s0)
   22568:	00e42823          	sw	a4,16(s0)
   2256c:	00f42a23          	sw	a5,20(s0)
   22570:	01042c23          	sw	a6,24(s0)
   22574:	01142e23          	sw	a7,28(s0)
   22578:	fe042623          	sw	zero,-20(s0)
   2257c:	02040793          	addi	a5,s0,32
   22580:	fcf42a23          	sw	a5,-44(s0)
   22584:	fd442783          	lw	a5,-44(s0)
   22588:	fe878793          	addi	a5,a5,-24
   2258c:	fef42423          	sw	a5,-24(s0)
   22590:	fe842783          	lw	a5,-24(s0)
   22594:	00078613          	mv	a2,a5
   22598:	fd842583          	lw	a1,-40(s0)
   2259c:	fdc42503          	lw	a0,-36(s0)
   225a0:	ff8ff0ef          	jal	21d98 <ee_vsprintf>
   225a4:	fec42783          	lw	a5,-20(s0)
   225a8:	00078513          	mv	a0,a5
   225ac:	02c12083          	lw	ra,44(sp)
   225b0:	02812403          	lw	s0,40(sp)
   225b4:	05010113          	addi	sp,sp,80
   225b8:	00008067          	ret

000225bc <_sbrk>:
   225bc:	fe010113          	addi	sp,sp,-32
   225c0:	00112e23          	sw	ra,28(sp)
   225c4:	00812c23          	sw	s0,24(sp)
   225c8:	02010413          	addi	s0,sp,32
   225cc:	fea42623          	sw	a0,-20(s0)
   225d0:	00004517          	auipc	a0,0x4
   225d4:	75450513          	addi	a0,a0,1876 # 26d24 <__fpclassifyd+0x43c>
   225d8:	e31ff0ef          	jal	22408 <puts>
   225dc:	81418793          	addi	a5,gp,-2028 # 26ef4 <curbrk.0>
   225e0:	0007a703          	lw	a4,0(a5)
   225e4:	fec42783          	lw	a5,-20(s0)
   225e8:	00f70733          	add	a4,a4,a5
   225ec:	00005797          	auipc	a5,0x5
   225f0:	96c78793          	addi	a5,a5,-1684 # 26f58 <_bss_end>
   225f4:	02f76063          	bltu	a4,a5,22614 <_sbrk+0x58>
   225f8:	81418793          	addi	a5,gp,-2028 # 26ef4 <curbrk.0>
   225fc:	0007a703          	lw	a4,0(a5)
   22600:	fec42783          	lw	a5,-20(s0)
   22604:	00f70733          	add	a4,a4,a5
   22608:	00007797          	auipc	a5,0x7
   2260c:	95078793          	addi	a5,a5,-1712 # 28f58 <_heap_end>
   22610:	00e7f663          	bgeu	a5,a4,2261c <_sbrk+0x60>
   22614:	fff00793          	li	a5,-1
   22618:	0300006f          	j	22648 <_sbrk+0x8c>
   2261c:	81418793          	addi	a5,gp,-2028 # 26ef4 <curbrk.0>
   22620:	0007a703          	lw	a4,0(a5)
   22624:	fec42783          	lw	a5,-20(s0)
   22628:	00f70733          	add	a4,a4,a5
   2262c:	81418793          	addi	a5,gp,-2028 # 26ef4 <curbrk.0>
   22630:	00e7a023          	sw	a4,0(a5)
   22634:	81418793          	addi	a5,gp,-2028 # 26ef4 <curbrk.0>
   22638:	0007a703          	lw	a4,0(a5)
   2263c:	fec42783          	lw	a5,-20(s0)
   22640:	40f007b3          	neg	a5,a5
   22644:	00f707b3          	add	a5,a4,a5
   22648:	00078513          	mv	a0,a5
   2264c:	01c12083          	lw	ra,28(sp)
   22650:	01812403          	lw	s0,24(sp)
   22654:	02010113          	addi	sp,sp,32
   22658:	00008067          	ret

0002265c <cvt>:
   2265c:	fb010113          	addi	sp,sp,-80
   22660:	04112623          	sw	ra,76(sp)
   22664:	04812423          	sw	s0,72(sp)
   22668:	05212223          	sw	s2,68(sp)
   2266c:	05312023          	sw	s3,64(sp)
   22670:	05010413          	addi	s0,sp,80
   22674:	fca42423          	sw	a0,-56(s0)
   22678:	fcb42623          	sw	a1,-52(s0)
   2267c:	fcc42223          	sw	a2,-60(s0)
   22680:	fcd42023          	sw	a3,-64(s0)
   22684:	fae42e23          	sw	a4,-68(s0)
   22688:	faf42c23          	sw	a5,-72(s0)
   2268c:	fb042a23          	sw	a6,-76(s0)
   22690:	fc442783          	lw	a5,-60(s0)
   22694:	0007d463          	bgez	a5,2269c <cvt+0x40>
   22698:	fc042223          	sw	zero,-60(s0)
   2269c:	fc442703          	lw	a4,-60(s0)
   226a0:	04e00793          	li	a5,78
   226a4:	00e7d663          	bge	a5,a4,226b0 <cvt+0x54>
   226a8:	04e00793          	li	a5,78
   226ac:	fcf42223          	sw	a5,-60(s0)
   226b0:	fe042623          	sw	zero,-20(s0)
   226b4:	fbc42783          	lw	a5,-68(s0)
   226b8:	0007a023          	sw	zero,0(a5)
   226bc:	fb842783          	lw	a5,-72(s0)
   226c0:	fef42423          	sw	a5,-24(s0)
   226c4:	00000613          	li	a2,0
   226c8:	00000693          	li	a3,0
   226cc:	fc842503          	lw	a0,-56(s0)
   226d0:	fcc42583          	lw	a1,-52(s0)
   226d4:	4bd010ef          	jal	24390 <__ledf2>
   226d8:	00050793          	mv	a5,a0
   226dc:	0207d463          	bgez	a5,22704 <cvt+0xa8>
   226e0:	fbc42783          	lw	a5,-68(s0)
   226e4:	00100713          	li	a4,1
   226e8:	00e7a023          	sw	a4,0(a5)
   226ec:	fc842903          	lw	s2,-56(s0)
   226f0:	fcc42703          	lw	a4,-52(s0)
   226f4:	800007b7          	lui	a5,0x80000
   226f8:	00f749b3          	xor	s3,a4,a5
   226fc:	fd242423          	sw	s2,-56(s0)
   22700:	fd342623          	sw	s3,-52(s0)
   22704:	fd840793          	addi	a5,s0,-40
   22708:	00078613          	mv	a2,a5
   2270c:	fc842503          	lw	a0,-56(s0)
   22710:	fcc42583          	lw	a1,-52(s0)
   22714:	01c040ef          	jal	26730 <modf>
   22718:	fca42423          	sw	a0,-56(s0)
   2271c:	fcb42623          	sw	a1,-52(s0)
   22720:	fb842783          	lw	a5,-72(s0)
   22724:	05078793          	addi	a5,a5,80 # 80000050 <_heap_end+0x7ffd70f8>
   22728:	fef42223          	sw	a5,-28(s0)
   2272c:	fd842703          	lw	a4,-40(s0)
   22730:	fdc42783          	lw	a5,-36(s0)
   22734:	00000613          	li	a2,0
   22738:	00000693          	li	a3,0
   2273c:	00070513          	mv	a0,a4
   22740:	00078593          	mv	a1,a5
   22744:	2f1010ef          	jal	24234 <__eqdf2>
   22748:	00050793          	mv	a5,a0
   2274c:	14078863          	beqz	a5,2289c <cvt+0x240>
   22750:	fb842783          	lw	a5,-72(s0)
   22754:	05078793          	addi	a5,a5,80
   22758:	fef42223          	sw	a5,-28(s0)
   2275c:	0e00006f          	j	2283c <cvt+0x1e0>
   22760:	fd842703          	lw	a4,-40(s0)
   22764:	fdc42783          	lw	a5,-36(s0)
   22768:	00004697          	auipc	a3,0x4
   2276c:	5d068693          	addi	a3,a3,1488 # 26d38 <__fpclassifyd+0x450>
   22770:	0006a603          	lw	a2,0(a3)
   22774:	0046a683          	lw	a3,4(a3)
   22778:	00070513          	mv	a0,a4
   2277c:	00078593          	mv	a1,a5
   22780:	3f8010ef          	jal	23b78 <__divdf3>
   22784:	00050713          	mv	a4,a0
   22788:	00058793          	mv	a5,a1
   2278c:	fd840693          	addi	a3,s0,-40
   22790:	00068613          	mv	a2,a3
   22794:	00070513          	mv	a0,a4
   22798:	00078593          	mv	a1,a5
   2279c:	795030ef          	jal	26730 <modf>
   227a0:	00050713          	mv	a4,a0
   227a4:	00058793          	mv	a5,a1
   227a8:	fce42823          	sw	a4,-48(s0)
   227ac:	fcf42a23          	sw	a5,-44(s0)
   227b0:	fd042703          	lw	a4,-48(s0)
   227b4:	fd442783          	lw	a5,-44(s0)
   227b8:	00004697          	auipc	a3,0x4
   227bc:	58868693          	addi	a3,a3,1416 # 26d40 <__fpclassifyd+0x458>
   227c0:	0006a603          	lw	a2,0(a3)
   227c4:	0046a683          	lw	a3,4(a3)
   227c8:	00070513          	mv	a0,a4
   227cc:	00078593          	mv	a1,a5
   227d0:	429000ef          	jal	233f8 <__adddf3>
   227d4:	00050713          	mv	a4,a0
   227d8:	00058793          	mv	a5,a1
   227dc:	00070513          	mv	a0,a4
   227e0:	00078593          	mv	a1,a5
   227e4:	00004797          	auipc	a5,0x4
   227e8:	55478793          	addi	a5,a5,1364 # 26d38 <__fpclassifyd+0x450>
   227ec:	0007a603          	lw	a2,0(a5)
   227f0:	0047a683          	lw	a3,4(a5)
   227f4:	46d010ef          	jal	24460 <__muldf3>
   227f8:	00050713          	mv	a4,a0
   227fc:	00058793          	mv	a5,a1
   22800:	00070513          	mv	a0,a4
   22804:	00078593          	mv	a1,a5
   22808:	1dd020ef          	jal	251e4 <__fixdfsi>
   2280c:	00050793          	mv	a5,a0
   22810:	0ff7f793          	zext.b	a5,a5
   22814:	fe442703          	lw	a4,-28(s0)
   22818:	fff70713          	addi	a4,a4,-1
   2281c:	fee42223          	sw	a4,-28(s0)
   22820:	03078793          	addi	a5,a5,48
   22824:	0ff7f713          	zext.b	a4,a5
   22828:	fe442783          	lw	a5,-28(s0)
   2282c:	00e78023          	sb	a4,0(a5)
   22830:	fec42783          	lw	a5,-20(s0)
   22834:	00178793          	addi	a5,a5,1
   22838:	fef42623          	sw	a5,-20(s0)
   2283c:	fd842703          	lw	a4,-40(s0)
   22840:	fdc42783          	lw	a5,-36(s0)
   22844:	00000613          	li	a2,0
   22848:	00000693          	li	a3,0
   2284c:	00070513          	mv	a0,a4
   22850:	00078593          	mv	a1,a5
   22854:	1e1010ef          	jal	24234 <__eqdf2>
   22858:	00050793          	mv	a5,a0
   2285c:	f00792e3          	bnez	a5,22760 <cvt+0x104>
   22860:	0280006f          	j	22888 <cvt+0x22c>
   22864:	fe442703          	lw	a4,-28(s0)
   22868:	00170793          	addi	a5,a4,1
   2286c:	fef42223          	sw	a5,-28(s0)
   22870:	fe842783          	lw	a5,-24(s0)
   22874:	00178693          	addi	a3,a5,1
   22878:	fed42423          	sw	a3,-24(s0)
   2287c:	00074703          	lbu	a4,0(a4)
   22880:	0ff77713          	zext.b	a4,a4
   22884:	00e78023          	sb	a4,0(a5)
   22888:	fb842783          	lw	a5,-72(s0)
   2288c:	05078793          	addi	a5,a5,80
   22890:	fe442703          	lw	a4,-28(s0)
   22894:	fcf768e3          	bltu	a4,a5,22864 <cvt+0x208>
   22898:	0980006f          	j	22930 <cvt+0x2d4>
   2289c:	00000613          	li	a2,0
   228a0:	00000693          	li	a3,0
   228a4:	fc842503          	lw	a0,-56(s0)
   228a8:	fcc42583          	lw	a1,-52(s0)
   228ac:	215010ef          	jal	242c0 <__gedf2>
   228b0:	00050793          	mv	a5,a0
   228b4:	06f05e63          	blez	a5,22930 <cvt+0x2d4>
   228b8:	0200006f          	j	228d8 <cvt+0x27c>
   228bc:	fd042703          	lw	a4,-48(s0)
   228c0:	fd442783          	lw	a5,-44(s0)
   228c4:	fce42423          	sw	a4,-56(s0)
   228c8:	fcf42623          	sw	a5,-52(s0)
   228cc:	fec42783          	lw	a5,-20(s0)
   228d0:	fff78793          	addi	a5,a5,-1
   228d4:	fef42623          	sw	a5,-20(s0)
   228d8:	00004797          	auipc	a5,0x4
   228dc:	46078793          	addi	a5,a5,1120 # 26d38 <__fpclassifyd+0x450>
   228e0:	0007a603          	lw	a2,0(a5)
   228e4:	0047a683          	lw	a3,4(a5)
   228e8:	fc842503          	lw	a0,-56(s0)
   228ec:	fcc42583          	lw	a1,-52(s0)
   228f0:	371010ef          	jal	24460 <__muldf3>
   228f4:	00050713          	mv	a4,a0
   228f8:	00058793          	mv	a5,a1
   228fc:	fce42823          	sw	a4,-48(s0)
   22900:	fcf42a23          	sw	a5,-44(s0)
   22904:	fd042703          	lw	a4,-48(s0)
   22908:	fd442783          	lw	a5,-44(s0)
   2290c:	00004697          	auipc	a3,0x4
   22910:	43c68693          	addi	a3,a3,1084 # 26d48 <__fpclassifyd+0x460>
   22914:	0006a603          	lw	a2,0(a3)
   22918:	0046a683          	lw	a3,4(a3)
   2291c:	00070513          	mv	a0,a4
   22920:	00078593          	mv	a1,a5
   22924:	26d010ef          	jal	24390 <__ledf2>
   22928:	00050793          	mv	a5,a0
   2292c:	f807c8e3          	bltz	a5,228bc <cvt+0x260>
   22930:	fc442783          	lw	a5,-60(s0)
   22934:	fb842703          	lw	a4,-72(s0)
   22938:	00f707b3          	add	a5,a4,a5
   2293c:	fef42223          	sw	a5,-28(s0)
   22940:	fb442783          	lw	a5,-76(s0)
   22944:	00079a63          	bnez	a5,22958 <cvt+0x2fc>
   22948:	fec42783          	lw	a5,-20(s0)
   2294c:	fe442703          	lw	a4,-28(s0)
   22950:	00f707b3          	add	a5,a4,a5
   22954:	fef42223          	sw	a5,-28(s0)
   22958:	fc042783          	lw	a5,-64(s0)
   2295c:	fec42703          	lw	a4,-20(s0)
   22960:	00e7a023          	sw	a4,0(a5)
   22964:	fe442703          	lw	a4,-28(s0)
   22968:	fb842783          	lw	a5,-72(s0)
   2296c:	08f77863          	bgeu	a4,a5,229fc <cvt+0x3a0>
   22970:	fb842783          	lw	a5,-72(s0)
   22974:	00078023          	sb	zero,0(a5)
   22978:	fb842783          	lw	a5,-72(s0)
   2297c:	1980006f          	j	22b14 <cvt+0x4b8>
   22980:	00004797          	auipc	a5,0x4
   22984:	3b878793          	addi	a5,a5,952 # 26d38 <__fpclassifyd+0x450>
   22988:	0007a603          	lw	a2,0(a5)
   2298c:	0047a683          	lw	a3,4(a5)
   22990:	fc842503          	lw	a0,-56(s0)
   22994:	fcc42583          	lw	a1,-52(s0)
   22998:	2c9010ef          	jal	24460 <__muldf3>
   2299c:	00050713          	mv	a4,a0
   229a0:	00058793          	mv	a5,a1
   229a4:	fce42423          	sw	a4,-56(s0)
   229a8:	fcf42623          	sw	a5,-52(s0)
   229ac:	fd040793          	addi	a5,s0,-48
   229b0:	00078613          	mv	a2,a5
   229b4:	fc842503          	lw	a0,-56(s0)
   229b8:	fcc42583          	lw	a1,-52(s0)
   229bc:	575030ef          	jal	26730 <modf>
   229c0:	fca42423          	sw	a0,-56(s0)
   229c4:	fcb42623          	sw	a1,-52(s0)
   229c8:	fd042703          	lw	a4,-48(s0)
   229cc:	fd442783          	lw	a5,-44(s0)
   229d0:	00070513          	mv	a0,a4
   229d4:	00078593          	mv	a1,a5
   229d8:	00d020ef          	jal	251e4 <__fixdfsi>
   229dc:	00050793          	mv	a5,a0
   229e0:	0ff7f713          	zext.b	a4,a5
   229e4:	fe842783          	lw	a5,-24(s0)
   229e8:	00178693          	addi	a3,a5,1
   229ec:	fed42423          	sw	a3,-24(s0)
   229f0:	03070713          	addi	a4,a4,48
   229f4:	0ff77713          	zext.b	a4,a4
   229f8:	00e78023          	sb	a4,0(a5)
   229fc:	fe842703          	lw	a4,-24(s0)
   22a00:	fe442783          	lw	a5,-28(s0)
   22a04:	00e7ea63          	bltu	a5,a4,22a18 <cvt+0x3bc>
   22a08:	fb842783          	lw	a5,-72(s0)
   22a0c:	05078793          	addi	a5,a5,80
   22a10:	fe842703          	lw	a4,-24(s0)
   22a14:	f6f766e3          	bltu	a4,a5,22980 <cvt+0x324>
   22a18:	fb842783          	lw	a5,-72(s0)
   22a1c:	05078793          	addi	a5,a5,80
   22a20:	fe442703          	lw	a4,-28(s0)
   22a24:	00f76c63          	bltu	a4,a5,22a3c <cvt+0x3e0>
   22a28:	fb842783          	lw	a5,-72(s0)
   22a2c:	04f78793          	addi	a5,a5,79
   22a30:	00078023          	sb	zero,0(a5)
   22a34:	fb842783          	lw	a5,-72(s0)
   22a38:	0dc0006f          	j	22b14 <cvt+0x4b8>
   22a3c:	fe442783          	lw	a5,-28(s0)
   22a40:	fef42423          	sw	a5,-24(s0)
   22a44:	fe442783          	lw	a5,-28(s0)
   22a48:	0007c783          	lbu	a5,0(a5)
   22a4c:	0ff7f793          	zext.b	a5,a5
   22a50:	00578793          	addi	a5,a5,5
   22a54:	0ff7f713          	zext.b	a4,a5
   22a58:	fe442783          	lw	a5,-28(s0)
   22a5c:	00e78023          	sb	a4,0(a5)
   22a60:	0940006f          	j	22af4 <cvt+0x498>
   22a64:	fe442783          	lw	a5,-28(s0)
   22a68:	03000713          	li	a4,48
   22a6c:	00e78023          	sb	a4,0(a5)
   22a70:	fe442703          	lw	a4,-28(s0)
   22a74:	fb842783          	lw	a5,-72(s0)
   22a78:	02e7f863          	bgeu	a5,a4,22aa8 <cvt+0x44c>
   22a7c:	fe442783          	lw	a5,-28(s0)
   22a80:	fff78793          	addi	a5,a5,-1
   22a84:	fef42223          	sw	a5,-28(s0)
   22a88:	fe442783          	lw	a5,-28(s0)
   22a8c:	0007c783          	lbu	a5,0(a5)
   22a90:	0ff7f793          	zext.b	a5,a5
   22a94:	00178793          	addi	a5,a5,1
   22a98:	0ff7f713          	zext.b	a4,a5
   22a9c:	fe442783          	lw	a5,-28(s0)
   22aa0:	00e78023          	sb	a4,0(a5)
   22aa4:	0500006f          	j	22af4 <cvt+0x498>
   22aa8:	fe442783          	lw	a5,-28(s0)
   22aac:	03100713          	li	a4,49
   22ab0:	00e78023          	sb	a4,0(a5)
   22ab4:	fc042783          	lw	a5,-64(s0)
   22ab8:	0007a783          	lw	a5,0(a5)
   22abc:	00178713          	addi	a4,a5,1
   22ac0:	fc042783          	lw	a5,-64(s0)
   22ac4:	00e7a023          	sw	a4,0(a5)
   22ac8:	fb442783          	lw	a5,-76(s0)
   22acc:	02079463          	bnez	a5,22af4 <cvt+0x498>
   22ad0:	fe842703          	lw	a4,-24(s0)
   22ad4:	fb842783          	lw	a5,-72(s0)
   22ad8:	00e7f863          	bgeu	a5,a4,22ae8 <cvt+0x48c>
   22adc:	fe842783          	lw	a5,-24(s0)
   22ae0:	03000713          	li	a4,48
   22ae4:	00e78023          	sb	a4,0(a5)
   22ae8:	fe842783          	lw	a5,-24(s0)
   22aec:	00178793          	addi	a5,a5,1
   22af0:	fef42423          	sw	a5,-24(s0)
   22af4:	fe442783          	lw	a5,-28(s0)
   22af8:	0007c783          	lbu	a5,0(a5)
   22afc:	0ff7f713          	zext.b	a4,a5
   22b00:	03900793          	li	a5,57
   22b04:	f6e7e0e3          	bltu	a5,a4,22a64 <cvt+0x408>
   22b08:	fe842783          	lw	a5,-24(s0)
   22b0c:	00078023          	sb	zero,0(a5)
   22b10:	fb842783          	lw	a5,-72(s0)
   22b14:	00078513          	mv	a0,a5
   22b18:	04c12083          	lw	ra,76(sp)
   22b1c:	04812403          	lw	s0,72(sp)
   22b20:	04412903          	lw	s2,68(sp)
   22b24:	04012983          	lw	s3,64(sp)
   22b28:	05010113          	addi	sp,sp,80
   22b2c:	00008067          	ret

00022b30 <ecvt>:
   22b30:	fd010113          	addi	sp,sp,-48
   22b34:	02112623          	sw	ra,44(sp)
   22b38:	02812423          	sw	s0,40(sp)
   22b3c:	03010413          	addi	s0,sp,48
   22b40:	fea42423          	sw	a0,-24(s0)
   22b44:	feb42623          	sw	a1,-20(s0)
   22b48:	fec42223          	sw	a2,-28(s0)
   22b4c:	fed42023          	sw	a3,-32(s0)
   22b50:	fce42e23          	sw	a4,-36(s0)
   22b54:	00100813          	li	a6,1
   22b58:	00004797          	auipc	a5,0x4
   22b5c:	3b078793          	addi	a5,a5,944 # 26f08 <CVTBUF>
   22b60:	fdc42703          	lw	a4,-36(s0)
   22b64:	fe042683          	lw	a3,-32(s0)
   22b68:	fe442603          	lw	a2,-28(s0)
   22b6c:	fe842503          	lw	a0,-24(s0)
   22b70:	fec42583          	lw	a1,-20(s0)
   22b74:	ae9ff0ef          	jal	2265c <cvt>
   22b78:	00050793          	mv	a5,a0
   22b7c:	00078513          	mv	a0,a5
   22b80:	02c12083          	lw	ra,44(sp)
   22b84:	02812403          	lw	s0,40(sp)
   22b88:	03010113          	addi	sp,sp,48
   22b8c:	00008067          	ret

00022b90 <ecvtbuf>:
   22b90:	fd010113          	addi	sp,sp,-48
   22b94:	02112623          	sw	ra,44(sp)
   22b98:	02812423          	sw	s0,40(sp)
   22b9c:	03010413          	addi	s0,sp,48
   22ba0:	fea42423          	sw	a0,-24(s0)
   22ba4:	feb42623          	sw	a1,-20(s0)
   22ba8:	fec42223          	sw	a2,-28(s0)
   22bac:	fed42023          	sw	a3,-32(s0)
   22bb0:	fce42e23          	sw	a4,-36(s0)
   22bb4:	fcf42c23          	sw	a5,-40(s0)
   22bb8:	00100813          	li	a6,1
   22bbc:	fd842783          	lw	a5,-40(s0)
   22bc0:	fdc42703          	lw	a4,-36(s0)
   22bc4:	fe042683          	lw	a3,-32(s0)
   22bc8:	fe442603          	lw	a2,-28(s0)
   22bcc:	fe842503          	lw	a0,-24(s0)
   22bd0:	fec42583          	lw	a1,-20(s0)
   22bd4:	a89ff0ef          	jal	2265c <cvt>
   22bd8:	00050793          	mv	a5,a0
   22bdc:	00078513          	mv	a0,a5
   22be0:	02c12083          	lw	ra,44(sp)
   22be4:	02812403          	lw	s0,40(sp)
   22be8:	03010113          	addi	sp,sp,48
   22bec:	00008067          	ret

00022bf0 <fcvt>:
   22bf0:	fd010113          	addi	sp,sp,-48
   22bf4:	02112623          	sw	ra,44(sp)
   22bf8:	02812423          	sw	s0,40(sp)
   22bfc:	03010413          	addi	s0,sp,48
   22c00:	fea42423          	sw	a0,-24(s0)
   22c04:	feb42623          	sw	a1,-20(s0)
   22c08:	fec42223          	sw	a2,-28(s0)
   22c0c:	fed42023          	sw	a3,-32(s0)
   22c10:	fce42e23          	sw	a4,-36(s0)
   22c14:	00000813          	li	a6,0
   22c18:	00004797          	auipc	a5,0x4
   22c1c:	2f078793          	addi	a5,a5,752 # 26f08 <CVTBUF>
   22c20:	fdc42703          	lw	a4,-36(s0)
   22c24:	fe042683          	lw	a3,-32(s0)
   22c28:	fe442603          	lw	a2,-28(s0)
   22c2c:	fe842503          	lw	a0,-24(s0)
   22c30:	fec42583          	lw	a1,-20(s0)
   22c34:	a29ff0ef          	jal	2265c <cvt>
   22c38:	00050793          	mv	a5,a0
   22c3c:	00078513          	mv	a0,a5
   22c40:	02c12083          	lw	ra,44(sp)
   22c44:	02812403          	lw	s0,40(sp)
   22c48:	03010113          	addi	sp,sp,48
   22c4c:	00008067          	ret

00022c50 <fcvtbuf>:
   22c50:	fd010113          	addi	sp,sp,-48
   22c54:	02112623          	sw	ra,44(sp)
   22c58:	02812423          	sw	s0,40(sp)
   22c5c:	03010413          	addi	s0,sp,48
   22c60:	fea42423          	sw	a0,-24(s0)
   22c64:	feb42623          	sw	a1,-20(s0)
   22c68:	fec42223          	sw	a2,-28(s0)
   22c6c:	fed42023          	sw	a3,-32(s0)
   22c70:	fce42e23          	sw	a4,-36(s0)
   22c74:	fcf42c23          	sw	a5,-40(s0)
   22c78:	00000813          	li	a6,0
   22c7c:	fd842783          	lw	a5,-40(s0)
   22c80:	fdc42703          	lw	a4,-36(s0)
   22c84:	fe042683          	lw	a3,-32(s0)
   22c88:	fe442603          	lw	a2,-28(s0)
   22c8c:	fe842503          	lw	a0,-24(s0)
   22c90:	fec42583          	lw	a1,-20(s0)
   22c94:	9c9ff0ef          	jal	2265c <cvt>
   22c98:	00050793          	mv	a5,a0
   22c9c:	00078513          	mv	a0,a5
   22ca0:	02c12083          	lw	ra,44(sp)
   22ca4:	02812403          	lw	s0,40(sp)
   22ca8:	03010113          	addi	sp,sp,48
   22cac:	00008067          	ret

00022cb0 <init_uart>:
   22cb0:	ff010113          	addi	sp,sp,-16
   22cb4:	00112623          	sw	ra,12(sp)
   22cb8:	00812423          	sw	s0,8(sp)
   22cbc:	01010413          	addi	s0,sp,16
   22cc0:	100017b7          	lui	a5,0x10001
   22cc4:	08300713          	li	a4,131
   22cc8:	00e7a623          	sw	a4,12(a5) # 1000100c <_heap_end+0xffd80b4>
   22ccc:	100017b7          	lui	a5,0x10001
   22cd0:	01500713          	li	a4,21
   22cd4:	00e7a023          	sw	a4,0(a5) # 10001000 <_heap_end+0xffd80a8>
   22cd8:	100017b7          	lui	a5,0x10001
   22cdc:	0007a223          	sw	zero,4(a5) # 10001004 <_heap_end+0xffd80ac>
   22ce0:	100017b7          	lui	a5,0x10001
   22ce4:	00300713          	li	a4,3
   22ce8:	00e7a623          	sw	a4,12(a5) # 1000100c <_heap_end+0xffd80b4>
   22cec:	100017b7          	lui	a5,0x10001
   22cf0:	0007a223          	sw	zero,4(a5) # 10001004 <_heap_end+0xffd80ac>
   22cf4:	0ff0000f          	fence
   22cf8:	00000013          	nop
   22cfc:	00c12083          	lw	ra,12(sp)
   22d00:	00812403          	lw	s0,8(sp)
   22d04:	01010113          	addi	sp,sp,16
   22d08:	00008067          	ret

00022d0c <tx_uart>:
   22d0c:	fd010113          	addi	sp,sp,-48
   22d10:	02112623          	sw	ra,44(sp)
   22d14:	02812423          	sw	s0,40(sp)
   22d18:	03010413          	addi	s0,sp,48
   22d1c:	00050793          	mv	a5,a0
   22d20:	fcf40fa3          	sb	a5,-33(s0)
   22d24:	100017b7          	lui	a5,0x10001
   22d28:	fdf44703          	lbu	a4,-33(s0)
   22d2c:	00e7a023          	sw	a4,0(a5) # 10001000 <_heap_end+0xffd80a8>
   22d30:	0ff0000f          	fence
   22d34:	100017b7          	lui	a5,0x10001
   22d38:	0147a783          	lw	a5,20(a5) # 10001014 <_heap_end+0xffd80bc>
   22d3c:	fef407a3          	sb	a5,-17(s0)
   22d40:	0ff0000f          	fence
   22d44:	fef44783          	lbu	a5,-17(s0)
   22d48:	0207f793          	andi	a5,a5,32
   22d4c:	fef407a3          	sb	a5,-17(s0)
   22d50:	fef44703          	lbu	a4,-17(s0)
   22d54:	02000793          	li	a5,32
   22d58:	fcf71ee3          	bne	a4,a5,22d34 <tx_uart+0x28>
   22d5c:	00000013          	nop
   22d60:	00000013          	nop
   22d64:	02c12083          	lw	ra,44(sp)
   22d68:	02812403          	lw	s0,40(sp)
   22d6c:	03010113          	addi	sp,sp,48
   22d70:	00008067          	ret

00022d74 <rx_uart>:
   22d74:	fe010113          	addi	sp,sp,-32
   22d78:	00112e23          	sw	ra,28(sp)
   22d7c:	00812c23          	sw	s0,24(sp)
   22d80:	02010413          	addi	s0,sp,32
   22d84:	100017b7          	lui	a5,0x10001
   22d88:	0147a783          	lw	a5,20(a5) # 10001014 <_heap_end+0xffd80bc>
   22d8c:	fef407a3          	sb	a5,-17(s0)
   22d90:	0ff0000f          	fence
   22d94:	fef44783          	lbu	a5,-17(s0)
   22d98:	0017f793          	andi	a5,a5,1
   22d9c:	fe0784e3          	beqz	a5,22d84 <rx_uart+0x10>
   22da0:	100017b7          	lui	a5,0x10001
   22da4:	0007a783          	lw	a5,0(a5) # 10001000 <_heap_end+0xffd80a8>
   22da8:	fef40723          	sb	a5,-18(s0)
   22dac:	0ff0000f          	fence
   22db0:	fee44783          	lbu	a5,-18(s0)
   22db4:	00078513          	mv	a0,a5
   22db8:	01c12083          	lw	ra,28(sp)
   22dbc:	01812403          	lw	s0,24(sp)
   22dc0:	02010113          	addi	sp,sp,32
   22dc4:	00008067          	ret

00022dc8 <get_decimal>:
   22dc8:	fb010113          	addi	sp,sp,-80
   22dcc:	04112623          	sw	ra,76(sp)
   22dd0:	04812423          	sw	s0,72(sp)
   22dd4:	05010413          	addi	s0,sp,80
   22dd8:	00050793          	mv	a5,a0
   22ddc:	faf40fa3          	sb	a5,-65(s0)
   22de0:	fe0401a3          	sb	zero,-29(s0)
   22de4:	fe042423          	sw	zero,-24(s0)
   22de8:	fc042e23          	sw	zero,-36(s0)
   22dec:	00100793          	li	a5,1
   22df0:	fef42223          	sw	a5,-28(s0)
   22df4:	00100793          	li	a5,1
   22df8:	fef407a3          	sb	a5,-17(s0)
   22dfc:	0280006f          	j	22e24 <get_decimal+0x5c>
   22e00:	fe442703          	lw	a4,-28(s0)
   22e04:	00070793          	mv	a5,a4
   22e08:	00279793          	slli	a5,a5,0x2
   22e0c:	00e787b3          	add	a5,a5,a4
   22e10:	00179793          	slli	a5,a5,0x1
   22e14:	fef42223          	sw	a5,-28(s0)
   22e18:	fef44783          	lbu	a5,-17(s0)
   22e1c:	00178793          	addi	a5,a5,1
   22e20:	fef407a3          	sb	a5,-17(s0)
   22e24:	fef44703          	lbu	a4,-17(s0)
   22e28:	fbf44783          	lbu	a5,-65(s0)
   22e2c:	fcf76ae3          	bltu	a4,a5,22e00 <get_decimal+0x38>
   22e30:	fe0407a3          	sb	zero,-17(s0)
   22e34:	fef44703          	lbu	a4,-17(s0)
   22e38:	fbf44783          	lbu	a5,-65(s0)
   22e3c:	0af77263          	bgeu	a4,a5,22ee0 <get_decimal+0x118>
   22e40:	f35ff0ef          	jal	22d74 <rx_uart>
   22e44:	00050793          	mv	a5,a0
   22e48:	fef401a3          	sb	a5,-29(s0)
   22e4c:	fe344703          	lbu	a4,-29(s0)
   22e50:	02f00793          	li	a5,47
   22e54:	04e7f263          	bgeu	a5,a4,22e98 <get_decimal+0xd0>
   22e58:	fe344703          	lbu	a4,-29(s0)
   22e5c:	03900793          	li	a5,57
   22e60:	02e7ec63          	bltu	a5,a4,22e98 <get_decimal+0xd0>
   22e64:	fe344783          	lbu	a5,-29(s0)
   22e68:	00078513          	mv	a0,a5
   22e6c:	ea1ff0ef          	jal	22d0c <tx_uart>
   22e70:	fef44783          	lbu	a5,-17(s0)
   22e74:	ff078793          	addi	a5,a5,-16
   22e78:	008787b3          	add	a5,a5,s0
   22e7c:	fe344703          	lbu	a4,-29(s0)
   22e80:	fce78e23          	sb	a4,-36(a5)
   22e84:	00000013          	nop
   22e88:	fef44783          	lbu	a5,-17(s0)
   22e8c:	00178793          	addi	a5,a5,1
   22e90:	fef407a3          	sb	a5,-17(s0)
   22e94:	fa1ff06f          	j	22e34 <get_decimal+0x6c>
   22e98:	fe344703          	lbu	a4,-29(s0)
   22e9c:	00800793          	li	a5,8
   22ea0:	faf710e3          	bne	a4,a5,22e40 <get_decimal+0x78>
   22ea4:	fef44783          	lbu	a5,-17(s0)
   22ea8:	02078863          	beqz	a5,22ed8 <get_decimal+0x110>
   22eac:	fe344783          	lbu	a5,-29(s0)
   22eb0:	00078513          	mv	a0,a5
   22eb4:	e59ff0ef          	jal	22d0c <tx_uart>
   22eb8:	02000513          	li	a0,32
   22ebc:	e51ff0ef          	jal	22d0c <tx_uart>
   22ec0:	fe344783          	lbu	a5,-29(s0)
   22ec4:	00078513          	mv	a0,a5
   22ec8:	e45ff0ef          	jal	22d0c <tx_uart>
   22ecc:	fef44783          	lbu	a5,-17(s0)
   22ed0:	fff78793          	addi	a5,a5,-1
   22ed4:	fef407a3          	sb	a5,-17(s0)
   22ed8:	00000013          	nop
   22edc:	f65ff06f          	j	22e40 <get_decimal+0x78>
   22ee0:	fef44703          	lbu	a4,-17(s0)
   22ee4:	fbf44783          	lbu	a5,-65(s0)
   22ee8:	f4f716e3          	bne	a4,a5,22e34 <get_decimal+0x6c>
   22eec:	e89ff0ef          	jal	22d74 <rx_uart>
   22ef0:	00050793          	mv	a5,a0
   22ef4:	fef401a3          	sb	a5,-29(s0)
   22ef8:	fe344703          	lbu	a4,-29(s0)
   22efc:	00d00793          	li	a5,13
   22f00:	04f70263          	beq	a4,a5,22f44 <get_decimal+0x17c>
   22f04:	fe344703          	lbu	a4,-29(s0)
   22f08:	00800793          	li	a5,8
   22f0c:	f2f714e3          	bne	a4,a5,22e34 <get_decimal+0x6c>
   22f10:	fe344783          	lbu	a5,-29(s0)
   22f14:	00078513          	mv	a0,a5
   22f18:	df5ff0ef          	jal	22d0c <tx_uart>
   22f1c:	02000513          	li	a0,32
   22f20:	dedff0ef          	jal	22d0c <tx_uart>
   22f24:	fe344783          	lbu	a5,-29(s0)
   22f28:	00078513          	mv	a0,a5
   22f2c:	de1ff0ef          	jal	22d0c <tx_uart>
   22f30:	fef44783          	lbu	a5,-17(s0)
   22f34:	fff78793          	addi	a5,a5,-1
   22f38:	fef407a3          	sb	a5,-17(s0)
   22f3c:	00000013          	nop
   22f40:	ef5ff06f          	j	22e34 <get_decimal+0x6c>
   22f44:	00000013          	nop
   22f48:	fe0407a3          	sb	zero,-17(s0)
   22f4c:	0780006f          	j	22fc4 <get_decimal+0x1fc>
   22f50:	fef44783          	lbu	a5,-17(s0)
   22f54:	ff078793          	addi	a5,a5,-16
   22f58:	008787b3          	add	a5,a5,s0
   22f5c:	fdc7c703          	lbu	a4,-36(a5)
   22f60:	fef44783          	lbu	a5,-17(s0)
   22f64:	fd070713          	addi	a4,a4,-48
   22f68:	0ff77713          	zext.b	a4,a4
   22f6c:	ff078793          	addi	a5,a5,-16
   22f70:	008787b3          	add	a5,a5,s0
   22f74:	fce78e23          	sb	a4,-36(a5)
   22f78:	fef44783          	lbu	a5,-17(s0)
   22f7c:	ff078793          	addi	a5,a5,-16
   22f80:	008787b3          	add	a5,a5,s0
   22f84:	fdc7c783          	lbu	a5,-36(a5)
   22f88:	00078713          	mv	a4,a5
   22f8c:	fe442783          	lw	a5,-28(s0)
   22f90:	02f707b3          	mul	a5,a4,a5
   22f94:	fe842703          	lw	a4,-24(s0)
   22f98:	00f707b3          	add	a5,a4,a5
   22f9c:	fef42423          	sw	a5,-24(s0)
   22fa0:	fe442703          	lw	a4,-28(s0)
   22fa4:	ccccd7b7          	lui	a5,0xccccd
   22fa8:	ccd78793          	addi	a5,a5,-819 # cccccccd <_heap_end+0xccca3d75>
   22fac:	02f737b3          	mulhu	a5,a4,a5
   22fb0:	0037d793          	srli	a5,a5,0x3
   22fb4:	fef42223          	sw	a5,-28(s0)
   22fb8:	fef44783          	lbu	a5,-17(s0)
   22fbc:	00178793          	addi	a5,a5,1
   22fc0:	fef407a3          	sb	a5,-17(s0)
   22fc4:	fef44703          	lbu	a4,-17(s0)
   22fc8:	fbf44783          	lbu	a5,-65(s0)
   22fcc:	f8f762e3          	bltu	a4,a5,22f50 <get_decimal+0x188>
   22fd0:	fe842783          	lw	a5,-24(s0)
   22fd4:	00078513          	mv	a0,a5
   22fd8:	04c12083          	lw	ra,76(sp)
   22fdc:	04812403          	lw	s0,72(sp)
   22fe0:	05010113          	addi	sp,sp,80
   22fe4:	00008067          	ret

00022fe8 <get_long_int>:
   22fe8:	fc010113          	addi	sp,sp,-64
   22fec:	02112e23          	sw	ra,60(sp)
   22ff0:	02812c23          	sw	s0,56(sp)
   22ff4:	04010413          	addi	s0,sp,64
   22ff8:	00050793          	mv	a5,a0
   22ffc:	fcf407a3          	sb	a5,-49(s0)
   23000:	fe0403a3          	sb	zero,-25(s0)
   23004:	fe042423          	sw	zero,-24(s0)
   23008:	fe0407a3          	sb	zero,-17(s0)
   2300c:	fef44703          	lbu	a4,-17(s0)
   23010:	fcf44783          	lbu	a5,-49(s0)
   23014:	08f77c63          	bgeu	a4,a5,230ac <get_long_int+0xc4>
   23018:	184000ef          	jal	2319c <get_hex>
   2301c:	00050793          	mv	a5,a0
   23020:	fef403a3          	sb	a5,-25(s0)
   23024:	fe744703          	lbu	a4,-25(s0)
   23028:	00800793          	li	a5,8
   2302c:	04f71e63          	bne	a4,a5,23088 <get_long_int+0xa0>
   23030:	fef44783          	lbu	a5,-17(s0)
   23034:	0e078c63          	beqz	a5,2312c <get_long_int+0x144>
   23038:	fe744783          	lbu	a5,-25(s0)
   2303c:	00078513          	mv	a0,a5
   23040:	ccdff0ef          	jal	22d0c <tx_uart>
   23044:	02000513          	li	a0,32
   23048:	cc5ff0ef          	jal	22d0c <tx_uart>
   2304c:	fe744783          	lbu	a5,-25(s0)
   23050:	00078513          	mv	a0,a5
   23054:	cb9ff0ef          	jal	22d0c <tx_uart>
   23058:	fe744783          	lbu	a5,-25(s0)
   2305c:	00078513          	mv	a0,a5
   23060:	cadff0ef          	jal	22d0c <tx_uart>
   23064:	02000513          	li	a0,32
   23068:	ca5ff0ef          	jal	22d0c <tx_uart>
   2306c:	fe744783          	lbu	a5,-25(s0)
   23070:	00078513          	mv	a0,a5
   23074:	c99ff0ef          	jal	22d0c <tx_uart>
   23078:	fef44783          	lbu	a5,-17(s0)
   2307c:	fff78793          	addi	a5,a5,-1
   23080:	fef407a3          	sb	a5,-17(s0)
   23084:	0a80006f          	j	2312c <get_long_int+0x144>
   23088:	fef44783          	lbu	a5,-17(s0)
   2308c:	ff078793          	addi	a5,a5,-16
   23090:	008787b3          	add	a5,a5,s0
   23094:	fe744703          	lbu	a4,-25(s0)
   23098:	fee78223          	sb	a4,-28(a5)
   2309c:	fef44783          	lbu	a5,-17(s0)
   230a0:	00178793          	addi	a5,a5,1
   230a4:	fef407a3          	sb	a5,-17(s0)
   230a8:	f65ff06f          	j	2300c <get_long_int+0x24>
   230ac:	fef44703          	lbu	a4,-17(s0)
   230b0:	fcf44783          	lbu	a5,-49(s0)
   230b4:	f4f71ce3          	bne	a4,a5,2300c <get_long_int+0x24>
   230b8:	cbdff0ef          	jal	22d74 <rx_uart>
   230bc:	00050793          	mv	a5,a0
   230c0:	fef403a3          	sb	a5,-25(s0)
   230c4:	fe744703          	lbu	a4,-25(s0)
   230c8:	00d00793          	li	a5,13
   230cc:	06f70463          	beq	a4,a5,23134 <get_long_int+0x14c>
   230d0:	fe744703          	lbu	a4,-25(s0)
   230d4:	00800793          	li	a5,8
   230d8:	f2f71ae3          	bne	a4,a5,2300c <get_long_int+0x24>
   230dc:	fe744783          	lbu	a5,-25(s0)
   230e0:	00078513          	mv	a0,a5
   230e4:	c29ff0ef          	jal	22d0c <tx_uart>
   230e8:	02000513          	li	a0,32
   230ec:	c21ff0ef          	jal	22d0c <tx_uart>
   230f0:	fe744783          	lbu	a5,-25(s0)
   230f4:	00078513          	mv	a0,a5
   230f8:	c15ff0ef          	jal	22d0c <tx_uart>
   230fc:	fe744783          	lbu	a5,-25(s0)
   23100:	00078513          	mv	a0,a5
   23104:	c09ff0ef          	jal	22d0c <tx_uart>
   23108:	02000513          	li	a0,32
   2310c:	c01ff0ef          	jal	22d0c <tx_uart>
   23110:	fe744783          	lbu	a5,-25(s0)
   23114:	00078513          	mv	a0,a5
   23118:	bf5ff0ef          	jal	22d0c <tx_uart>
   2311c:	fef44783          	lbu	a5,-17(s0)
   23120:	fff78793          	addi	a5,a5,-1
   23124:	fef407a3          	sb	a5,-17(s0)
   23128:	0080006f          	j	23130 <get_long_int+0x148>
   2312c:	00000013          	nop
   23130:	eddff06f          	j	2300c <get_long_int+0x24>
   23134:	00000013          	nop
   23138:	fe0407a3          	sb	zero,-17(s0)
   2313c:	03c0006f          	j	23178 <get_long_int+0x190>
   23140:	fe842783          	lw	a5,-24(s0)
   23144:	00879793          	slli	a5,a5,0x8
   23148:	fef42423          	sw	a5,-24(s0)
   2314c:	fef44783          	lbu	a5,-17(s0)
   23150:	ff078793          	addi	a5,a5,-16
   23154:	008787b3          	add	a5,a5,s0
   23158:	fe47c783          	lbu	a5,-28(a5)
   2315c:	00078713          	mv	a4,a5
   23160:	fe842783          	lw	a5,-24(s0)
   23164:	00e7e7b3          	or	a5,a5,a4
   23168:	fef42423          	sw	a5,-24(s0)
   2316c:	fef44783          	lbu	a5,-17(s0)
   23170:	00178793          	addi	a5,a5,1
   23174:	fef407a3          	sb	a5,-17(s0)
   23178:	fef44703          	lbu	a4,-17(s0)
   2317c:	fcf44783          	lbu	a5,-49(s0)
   23180:	fcf760e3          	bltu	a4,a5,23140 <get_long_int+0x158>
   23184:	fe842783          	lw	a5,-24(s0)
   23188:	00078513          	mv	a0,a5
   2318c:	03c12083          	lw	ra,60(sp)
   23190:	03812403          	lw	s0,56(sp)
   23194:	04010113          	addi	sp,sp,64
   23198:	00008067          	ret

0002319c <get_hex>:
   2319c:	fe010113          	addi	sp,sp,-32
   231a0:	00112e23          	sw	ra,28(sp)
   231a4:	00812c23          	sw	s0,24(sp)
   231a8:	02010413          	addi	s0,sp,32
   231ac:	fe0405a3          	sb	zero,-21(s0)
   231b0:	00200793          	li	a5,2
   231b4:	fef406a3          	sb	a5,-19(s0)
   231b8:	1240006f          	j	232dc <get_hex+0x140>
   231bc:	bb9ff0ef          	jal	22d74 <rx_uart>
   231c0:	00050793          	mv	a5,a0
   231c4:	fef40623          	sb	a5,-20(s0)
   231c8:	fec44703          	lbu	a4,-20(s0)
   231cc:	00800793          	li	a5,8
   231d0:	04f71463          	bne	a4,a5,23218 <get_hex+0x7c>
   231d4:	fed44703          	lbu	a4,-19(s0)
   231d8:	00100793          	li	a5,1
   231dc:	02e7ea63          	bltu	a5,a4,23210 <get_hex+0x74>
   231e0:	fec44783          	lbu	a5,-20(s0)
   231e4:	00078513          	mv	a0,a5
   231e8:	b25ff0ef          	jal	22d0c <tx_uart>
   231ec:	02000513          	li	a0,32
   231f0:	b1dff0ef          	jal	22d0c <tx_uart>
   231f4:	fec44783          	lbu	a5,-20(s0)
   231f8:	00078513          	mv	a0,a5
   231fc:	b11ff0ef          	jal	22d0c <tx_uart>
   23200:	fed44783          	lbu	a5,-19(s0)
   23204:	00178793          	addi	a5,a5,1
   23208:	fef406a3          	sb	a5,-19(s0)
   2320c:	0d00006f          	j	232dc <get_hex+0x140>
   23210:	fec44783          	lbu	a5,-20(s0)
   23214:	0f40006f          	j	23308 <get_hex+0x16c>
   23218:	fec44703          	lbu	a4,-20(s0)
   2321c:	02f00793          	li	a5,47
   23220:	02e7f663          	bgeu	a5,a4,2324c <get_hex+0xb0>
   23224:	fec44703          	lbu	a4,-20(s0)
   23228:	03900793          	li	a5,57
   2322c:	02e7e063          	bltu	a5,a4,2324c <get_hex+0xb0>
   23230:	fec44783          	lbu	a5,-20(s0)
   23234:	00078513          	mv	a0,a5
   23238:	ad5ff0ef          	jal	22d0c <tx_uart>
   2323c:	fec44783          	lbu	a5,-20(s0)
   23240:	fd078793          	addi	a5,a5,-48
   23244:	fef40623          	sb	a5,-20(s0)
   23248:	0680006f          	j	232b0 <get_hex+0x114>
   2324c:	fec44703          	lbu	a4,-20(s0)
   23250:	04000793          	li	a5,64
   23254:	02e7f663          	bgeu	a5,a4,23280 <get_hex+0xe4>
   23258:	fec44703          	lbu	a4,-20(s0)
   2325c:	04600793          	li	a5,70
   23260:	02e7e063          	bltu	a5,a4,23280 <get_hex+0xe4>
   23264:	fec44783          	lbu	a5,-20(s0)
   23268:	00078513          	mv	a0,a5
   2326c:	aa1ff0ef          	jal	22d0c <tx_uart>
   23270:	fec44783          	lbu	a5,-20(s0)
   23274:	fc978793          	addi	a5,a5,-55
   23278:	fef40623          	sb	a5,-20(s0)
   2327c:	0340006f          	j	232b0 <get_hex+0x114>
   23280:	fec44703          	lbu	a4,-20(s0)
   23284:	06000793          	li	a5,96
   23288:	04e7fa63          	bgeu	a5,a4,232dc <get_hex+0x140>
   2328c:	fec44703          	lbu	a4,-20(s0)
   23290:	06600793          	li	a5,102
   23294:	04e7e463          	bltu	a5,a4,232dc <get_hex+0x140>
   23298:	fec44783          	lbu	a5,-20(s0)
   2329c:	00078513          	mv	a0,a5
   232a0:	a6dff0ef          	jal	22d0c <tx_uart>
   232a4:	fec44783          	lbu	a5,-20(s0)
   232a8:	fa978793          	addi	a5,a5,-87
   232ac:	fef40623          	sb	a5,-20(s0)
   232b0:	fed44703          	lbu	a4,-19(s0)
   232b4:	00200793          	li	a5,2
   232b8:	00f71863          	bne	a4,a5,232c8 <get_hex+0x12c>
   232bc:	fec44783          	lbu	a5,-20(s0)
   232c0:	fef407a3          	sb	a5,-17(s0)
   232c4:	00c0006f          	j	232d0 <get_hex+0x134>
   232c8:	fec44783          	lbu	a5,-20(s0)
   232cc:	fef40723          	sb	a5,-18(s0)
   232d0:	fed44783          	lbu	a5,-19(s0)
   232d4:	fff78793          	addi	a5,a5,-1
   232d8:	fef406a3          	sb	a5,-19(s0)
   232dc:	fed44783          	lbu	a5,-19(s0)
   232e0:	ec079ee3          	bnez	a5,231bc <get_hex+0x20>
   232e4:	fef44783          	lbu	a5,-17(s0)
   232e8:	00479793          	slli	a5,a5,0x4
   232ec:	fef405a3          	sb	a5,-21(s0)
   232f0:	feb44783          	lbu	a5,-21(s0)
   232f4:	00078713          	mv	a4,a5
   232f8:	fee44783          	lbu	a5,-18(s0)
   232fc:	00f767b3          	or	a5,a4,a5
   23300:	fef405a3          	sb	a5,-21(s0)
   23304:	feb44783          	lbu	a5,-21(s0)
   23308:	00078513          	mv	a0,a5
   2330c:	01c12083          	lw	ra,28(sp)
   23310:	01812403          	lw	s0,24(sp)
   23314:	02010113          	addi	sp,sp,32
   23318:	00008067          	ret

0002331c <memset>:
   2331c:	00f00313          	li	t1,15
   23320:	00050713          	mv	a4,a0
   23324:	02c37e63          	bgeu	t1,a2,23360 <memset+0x44>
   23328:	00f77793          	andi	a5,a4,15
   2332c:	0a079063          	bnez	a5,233cc <memset+0xb0>
   23330:	08059263          	bnez	a1,233b4 <memset+0x98>
   23334:	ff067693          	andi	a3,a2,-16
   23338:	00f67613          	andi	a2,a2,15
   2333c:	00e686b3          	add	a3,a3,a4
   23340:	00b72023          	sw	a1,0(a4)
   23344:	00b72223          	sw	a1,4(a4)
   23348:	00b72423          	sw	a1,8(a4)
   2334c:	00b72623          	sw	a1,12(a4)
   23350:	01070713          	addi	a4,a4,16
   23354:	fed766e3          	bltu	a4,a3,23340 <memset+0x24>
   23358:	00061463          	bnez	a2,23360 <memset+0x44>
   2335c:	00008067          	ret
   23360:	40c306b3          	sub	a3,t1,a2
   23364:	00269693          	slli	a3,a3,0x2
   23368:	00000297          	auipc	t0,0x0
   2336c:	005686b3          	add	a3,a3,t0
   23370:	00c68067          	jr	12(a3)
   23374:	00b70723          	sb	a1,14(a4)
   23378:	00b706a3          	sb	a1,13(a4)
   2337c:	00b70623          	sb	a1,12(a4)
   23380:	00b705a3          	sb	a1,11(a4)
   23384:	00b70523          	sb	a1,10(a4)
   23388:	00b704a3          	sb	a1,9(a4)
   2338c:	00b70423          	sb	a1,8(a4)
   23390:	00b703a3          	sb	a1,7(a4)
   23394:	00b70323          	sb	a1,6(a4)
   23398:	00b702a3          	sb	a1,5(a4)
   2339c:	00b70223          	sb	a1,4(a4)
   233a0:	00b701a3          	sb	a1,3(a4)
   233a4:	00b70123          	sb	a1,2(a4)
   233a8:	00b700a3          	sb	a1,1(a4)
   233ac:	00b70023          	sb	a1,0(a4)
   233b0:	00008067          	ret
   233b4:	0ff5f593          	zext.b	a1,a1
   233b8:	00859693          	slli	a3,a1,0x8
   233bc:	00d5e5b3          	or	a1,a1,a3
   233c0:	01059693          	slli	a3,a1,0x10
   233c4:	00d5e5b3          	or	a1,a1,a3
   233c8:	f6dff06f          	j	23334 <memset+0x18>
   233cc:	00279693          	slli	a3,a5,0x2
   233d0:	00000297          	auipc	t0,0x0
   233d4:	005686b3          	add	a3,a3,t0
   233d8:	00008293          	mv	t0,ra
   233dc:	fa0680e7          	jalr	-96(a3)
   233e0:	00028093          	mv	ra,t0
   233e4:	ff078793          	addi	a5,a5,-16
   233e8:	40f70733          	sub	a4,a4,a5
   233ec:	00f60633          	add	a2,a2,a5
   233f0:	f6c378e3          	bgeu	t1,a2,23360 <memset+0x44>
   233f4:	f3dff06f          	j	23330 <memset+0x14>

000233f8 <__adddf3>:
   233f8:	00100837          	lui	a6,0x100
   233fc:	fff80813          	addi	a6,a6,-1 # fffff <_heap_end+0xd70a7>
   23400:	fe010113          	addi	sp,sp,-32
   23404:	00b878b3          	and	a7,a6,a1
   23408:	0145d713          	srli	a4,a1,0x14
   2340c:	00d87833          	and	a6,a6,a3
   23410:	01412423          	sw	s4,8(sp)
   23414:	7ff77a13          	andi	s4,a4,2047
   23418:	00389713          	slli	a4,a7,0x3
   2341c:	0146d893          	srli	a7,a3,0x14
   23420:	01d55793          	srli	a5,a0,0x1d
   23424:	00381813          	slli	a6,a6,0x3
   23428:	01312623          	sw	s3,12(sp)
   2342c:	7ff8f893          	andi	a7,a7,2047
   23430:	01f5d993          	srli	s3,a1,0x1f
   23434:	00112e23          	sw	ra,28(sp)
   23438:	01d65593          	srli	a1,a2,0x1d
   2343c:	00812c23          	sw	s0,24(sp)
   23440:	00912a23          	sw	s1,20(sp)
   23444:	01212823          	sw	s2,16(sp)
   23448:	01512223          	sw	s5,4(sp)
   2344c:	01f6d693          	srli	a3,a3,0x1f
   23450:	0105e5b3          	or	a1,a1,a6
   23454:	00e7e7b3          	or	a5,a5,a4
   23458:	00351513          	slli	a0,a0,0x3
   2345c:	00361613          	slli	a2,a2,0x3
   23460:	411a0833          	sub	a6,s4,a7
   23464:	7ff00313          	li	t1,2047
   23468:	32d99863          	bne	s3,a3,23798 <__adddf3+0x3a0>
   2346c:	17005e63          	blez	a6,235e8 <__adddf3+0x1f0>
   23470:	0a089863          	bnez	a7,23520 <__adddf3+0x128>
   23474:	00c5e733          	or	a4,a1,a2
   23478:	02070663          	beqz	a4,234a4 <__adddf3+0xac>
   2347c:	fffa0813          	addi	a6,s4,-1
   23480:	02081063          	bnez	a6,234a0 <__adddf3+0xa8>
   23484:	00c50633          	add	a2,a0,a2
   23488:	00a63733          	sltu	a4,a2,a0
   2348c:	00b785b3          	add	a1,a5,a1
   23490:	00060513          	mv	a0,a2
   23494:	00e587b3          	add	a5,a1,a4
   23498:	00100a13          	li	s4,1
   2349c:	0d40006f          	j	23570 <__adddf3+0x178>
   234a0:	086a1663          	bne	s4,t1,2352c <__adddf3+0x134>
   234a4:	01d79693          	slli	a3,a5,0x1d
   234a8:	00355513          	srli	a0,a0,0x3
   234ac:	7ff00713          	li	a4,2047
   234b0:	00a6e6b3          	or	a3,a3,a0
   234b4:	0037d793          	srli	a5,a5,0x3
   234b8:	00ea1e63          	bne	s4,a4,234d4 <__adddf3+0xdc>
   234bc:	00f6e6b3          	or	a3,a3,a5
   234c0:	00000793          	li	a5,0
   234c4:	00068863          	beqz	a3,234d4 <__adddf3+0xdc>
   234c8:	000807b7          	lui	a5,0x80
   234cc:	00000693          	li	a3,0
   234d0:	00000993          	li	s3,0
   234d4:	014a1713          	slli	a4,s4,0x14
   234d8:	7ff00637          	lui	a2,0x7ff00
   234dc:	00c79793          	slli	a5,a5,0xc
   234e0:	00c77733          	and	a4,a4,a2
   234e4:	01c12083          	lw	ra,28(sp)
   234e8:	01812403          	lw	s0,24(sp)
   234ec:	00c7d793          	srli	a5,a5,0xc
   234f0:	00f767b3          	or	a5,a4,a5
   234f4:	01f99713          	slli	a4,s3,0x1f
   234f8:	00e7e633          	or	a2,a5,a4
   234fc:	01412483          	lw	s1,20(sp)
   23500:	01012903          	lw	s2,16(sp)
   23504:	00c12983          	lw	s3,12(sp)
   23508:	00812a03          	lw	s4,8(sp)
   2350c:	00412a83          	lw	s5,4(sp)
   23510:	00068513          	mv	a0,a3
   23514:	00060593          	mv	a1,a2
   23518:	02010113          	addi	sp,sp,32
   2351c:	00008067          	ret
   23520:	f86a02e3          	beq	s4,t1,234a4 <__adddf3+0xac>
   23524:	00800737          	lui	a4,0x800
   23528:	00e5e5b3          	or	a1,a1,a4
   2352c:	03800713          	li	a4,56
   23530:	0b074663          	blt	a4,a6,235dc <__adddf3+0x1e4>
   23534:	01f00713          	li	a4,31
   23538:	02000893          	li	a7,32
   2353c:	07074863          	blt	a4,a6,235ac <__adddf3+0x1b4>
   23540:	410888b3          	sub	a7,a7,a6
   23544:	01159733          	sll	a4,a1,a7
   23548:	010656b3          	srl	a3,a2,a6
   2354c:	011618b3          	sll	a7,a2,a7
   23550:	00d76733          	or	a4,a4,a3
   23554:	011038b3          	snez	a7,a7
   23558:	01176733          	or	a4,a4,a7
   2355c:	0105d833          	srl	a6,a1,a6
   23560:	00a70533          	add	a0,a4,a0
   23564:	00f80833          	add	a6,a6,a5
   23568:	00e53733          	sltu	a4,a0,a4
   2356c:	00e807b3          	add	a5,a6,a4
   23570:	00879713          	slli	a4,a5,0x8
   23574:	1c075e63          	bgez	a4,23750 <__adddf3+0x358>
   23578:	001a0a13          	addi	s4,s4,1
   2357c:	7ff00713          	li	a4,2047
   23580:	5cea0863          	beq	s4,a4,23b50 <__adddf3+0x758>
   23584:	ff800737          	lui	a4,0xff800
   23588:	fff70713          	addi	a4,a4,-1 # ff7fffff <_heap_end+0xff7d70a7>
   2358c:	00e7f7b3          	and	a5,a5,a4
   23590:	00155713          	srli	a4,a0,0x1
   23594:	00157513          	andi	a0,a0,1
   23598:	00a76733          	or	a4,a4,a0
   2359c:	01f79513          	slli	a0,a5,0x1f
   235a0:	00e56533          	or	a0,a0,a4
   235a4:	0017d793          	srli	a5,a5,0x1
   235a8:	1a80006f          	j	23750 <__adddf3+0x358>
   235ac:	fe080713          	addi	a4,a6,-32
   235b0:	00e5d733          	srl	a4,a1,a4
   235b4:	00000693          	li	a3,0
   235b8:	01180863          	beq	a6,a7,235c8 <__adddf3+0x1d0>
   235bc:	04000693          	li	a3,64
   235c0:	410686b3          	sub	a3,a3,a6
   235c4:	00d596b3          	sll	a3,a1,a3
   235c8:	00c6e6b3          	or	a3,a3,a2
   235cc:	00d036b3          	snez	a3,a3
   235d0:	00d76733          	or	a4,a4,a3
   235d4:	00000813          	li	a6,0
   235d8:	f89ff06f          	j	23560 <__adddf3+0x168>
   235dc:	00c5e733          	or	a4,a1,a2
   235e0:	00e03733          	snez	a4,a4
   235e4:	ff1ff06f          	j	235d4 <__adddf3+0x1dc>
   235e8:	0c080663          	beqz	a6,236b4 <__adddf3+0x2bc>
   235ec:	41488733          	sub	a4,a7,s4
   235f0:	020a1463          	bnez	s4,23618 <__adddf3+0x220>
   235f4:	00a7e6b3          	or	a3,a5,a0
   235f8:	00068863          	beqz	a3,23608 <__adddf3+0x210>
   235fc:	fff70693          	addi	a3,a4,-1
   23600:	e80682e3          	beqz	a3,23484 <__adddf3+0x8c>
   23604:	02671263          	bne	a4,t1,23628 <__adddf3+0x230>
   23608:	00058793          	mv	a5,a1
   2360c:	00060513          	mv	a0,a2
   23610:	00070a13          	mv	s4,a4
   23614:	e91ff06f          	j	234a4 <__adddf3+0xac>
   23618:	54688263          	beq	a7,t1,23b5c <__adddf3+0x764>
   2361c:	008006b7          	lui	a3,0x800
   23620:	00d7e7b3          	or	a5,a5,a3
   23624:	00070693          	mv	a3,a4
   23628:	03800713          	li	a4,56
   2362c:	06d74e63          	blt	a4,a3,236a8 <__adddf3+0x2b0>
   23630:	01f00713          	li	a4,31
   23634:	02000313          	li	t1,32
   23638:	04d74063          	blt	a4,a3,23678 <__adddf3+0x280>
   2363c:	40d30333          	sub	t1,t1,a3
   23640:	00679733          	sll	a4,a5,t1
   23644:	00d55833          	srl	a6,a0,a3
   23648:	00651333          	sll	t1,a0,t1
   2364c:	01076733          	or	a4,a4,a6
   23650:	00603333          	snez	t1,t1
   23654:	00676733          	or	a4,a4,t1
   23658:	00d7d6b3          	srl	a3,a5,a3
   2365c:	00c70633          	add	a2,a4,a2
   23660:	00b686b3          	add	a3,a3,a1
   23664:	00e63733          	sltu	a4,a2,a4
   23668:	00060513          	mv	a0,a2
   2366c:	00e687b3          	add	a5,a3,a4
   23670:	00088a13          	mv	s4,a7
   23674:	efdff06f          	j	23570 <__adddf3+0x178>
   23678:	fe068713          	addi	a4,a3,-32 # 7fffe0 <_heap_end+0x7d7088>
   2367c:	00e7d733          	srl	a4,a5,a4
   23680:	00000813          	li	a6,0
   23684:	00668863          	beq	a3,t1,23694 <__adddf3+0x29c>
   23688:	04000813          	li	a6,64
   2368c:	40d80833          	sub	a6,a6,a3
   23690:	01079833          	sll	a6,a5,a6
   23694:	00a86833          	or	a6,a6,a0
   23698:	01003833          	snez	a6,a6
   2369c:	01076733          	or	a4,a4,a6
   236a0:	00000693          	li	a3,0
   236a4:	fb9ff06f          	j	2365c <__adddf3+0x264>
   236a8:	00a7e733          	or	a4,a5,a0
   236ac:	00e03733          	snez	a4,a4
   236b0:	ff1ff06f          	j	236a0 <__adddf3+0x2a8>
   236b4:	001a0713          	addi	a4,s4,1
   236b8:	7fe77693          	andi	a3,a4,2046
   236bc:	06069663          	bnez	a3,23728 <__adddf3+0x330>
   236c0:	00a7e733          	or	a4,a5,a0
   236c4:	040a1263          	bnez	s4,23708 <__adddf3+0x310>
   236c8:	46070263          	beqz	a4,23b2c <__adddf3+0x734>
   236cc:	00c5e733          	or	a4,a1,a2
   236d0:	46070263          	beqz	a4,23b34 <__adddf3+0x73c>
   236d4:	00c50733          	add	a4,a0,a2
   236d8:	00b785b3          	add	a1,a5,a1
   236dc:	00a737b3          	sltu	a5,a4,a0
   236e0:	00f587b3          	add	a5,a1,a5
   236e4:	00879693          	slli	a3,a5,0x8
   236e8:	00070613          	mv	a2,a4
   236ec:	2c06de63          	bgez	a3,239c8 <__adddf3+0x5d0>
   236f0:	ff8006b7          	lui	a3,0xff800
   236f4:	fff68693          	addi	a3,a3,-1 # ff7fffff <_heap_end+0xff7d70a7>
   236f8:	00d7f7b3          	and	a5,a5,a3
   236fc:	00070513          	mv	a0,a4
   23700:	00100a13          	li	s4,1
   23704:	da1ff06f          	j	234a4 <__adddf3+0xac>
   23708:	42070a63          	beqz	a4,23b3c <__adddf3+0x744>
   2370c:	00c5e633          	or	a2,a1,a2
   23710:	00030a13          	mv	s4,t1
   23714:	d80608e3          	beqz	a2,234a4 <__adddf3+0xac>
   23718:	00000993          	li	s3,0
   2371c:	004007b7          	lui	a5,0x400
   23720:	00000513          	li	a0,0
   23724:	d81ff06f          	j	234a4 <__adddf3+0xac>
   23728:	42670263          	beq	a4,t1,23b4c <__adddf3+0x754>
   2372c:	00c50633          	add	a2,a0,a2
   23730:	00a63533          	sltu	a0,a2,a0
   23734:	00b785b3          	add	a1,a5,a1
   23738:	00a585b3          	add	a1,a1,a0
   2373c:	01f59513          	slli	a0,a1,0x1f
   23740:	00165613          	srli	a2,a2,0x1
   23744:	00c56533          	or	a0,a0,a2
   23748:	0015d793          	srli	a5,a1,0x1
   2374c:	00070a13          	mv	s4,a4
   23750:	00757713          	andi	a4,a0,7
   23754:	02070063          	beqz	a4,23774 <__adddf3+0x37c>
   23758:	00f57713          	andi	a4,a0,15
   2375c:	00400693          	li	a3,4
   23760:	00d70a63          	beq	a4,a3,23774 <__adddf3+0x37c>
   23764:	00d50733          	add	a4,a0,a3
   23768:	00a736b3          	sltu	a3,a4,a0
   2376c:	00d787b3          	add	a5,a5,a3
   23770:	00070513          	mv	a0,a4
   23774:	00879713          	slli	a4,a5,0x8
   23778:	d20756e3          	bgez	a4,234a4 <__adddf3+0xac>
   2377c:	001a0a13          	addi	s4,s4,1
   23780:	7ff00713          	li	a4,2047
   23784:	3cea0663          	beq	s4,a4,23b50 <__adddf3+0x758>
   23788:	ff800737          	lui	a4,0xff800
   2378c:	fff70713          	addi	a4,a4,-1 # ff7fffff <_heap_end+0xff7d70a7>
   23790:	00e7f7b3          	and	a5,a5,a4
   23794:	d11ff06f          	j	234a4 <__adddf3+0xac>
   23798:	0f005463          	blez	a6,23880 <__adddf3+0x488>
   2379c:	08089c63          	bnez	a7,23834 <__adddf3+0x43c>
   237a0:	00c5e733          	or	a4,a1,a2
   237a4:	d00700e3          	beqz	a4,234a4 <__adddf3+0xac>
   237a8:	fffa0813          	addi	a6,s4,-1
   237ac:	02081063          	bnez	a6,237cc <__adddf3+0x3d4>
   237b0:	40c50633          	sub	a2,a0,a2
   237b4:	00c53733          	sltu	a4,a0,a2
   237b8:	40b785b3          	sub	a1,a5,a1
   237bc:	00060513          	mv	a0,a2
   237c0:	40e587b3          	sub	a5,a1,a4
   237c4:	00100a13          	li	s4,1
   237c8:	0500006f          	j	23818 <__adddf3+0x420>
   237cc:	cc6a0ce3          	beq	s4,t1,234a4 <__adddf3+0xac>
   237d0:	03800713          	li	a4,56
   237d4:	0b074063          	blt	a4,a6,23874 <__adddf3+0x47c>
   237d8:	01f00713          	li	a4,31
   237dc:	02000893          	li	a7,32
   237e0:	07074263          	blt	a4,a6,23844 <__adddf3+0x44c>
   237e4:	410888b3          	sub	a7,a7,a6
   237e8:	01159733          	sll	a4,a1,a7
   237ec:	010656b3          	srl	a3,a2,a6
   237f0:	011618b3          	sll	a7,a2,a7
   237f4:	00d76733          	or	a4,a4,a3
   237f8:	011038b3          	snez	a7,a7
   237fc:	01176733          	or	a4,a4,a7
   23800:	0105d833          	srl	a6,a1,a6
   23804:	40e50733          	sub	a4,a0,a4
   23808:	00e536b3          	sltu	a3,a0,a4
   2380c:	41078833          	sub	a6,a5,a6
   23810:	00070513          	mv	a0,a4
   23814:	40d807b3          	sub	a5,a6,a3
   23818:	00879713          	slli	a4,a5,0x8
   2381c:	f2075ae3          	bgez	a4,23750 <__adddf3+0x358>
   23820:	00800937          	lui	s2,0x800
   23824:	fff90913          	addi	s2,s2,-1 # 7fffff <_heap_end+0x7d70a7>
   23828:	0127f933          	and	s2,a5,s2
   2382c:	00050a93          	mv	s5,a0
   23830:	2180006f          	j	23a48 <__adddf3+0x650>
   23834:	c66a08e3          	beq	s4,t1,234a4 <__adddf3+0xac>
   23838:	00800737          	lui	a4,0x800
   2383c:	00e5e5b3          	or	a1,a1,a4
   23840:	f91ff06f          	j	237d0 <__adddf3+0x3d8>
   23844:	fe080713          	addi	a4,a6,-32
   23848:	00e5d733          	srl	a4,a1,a4
   2384c:	00000693          	li	a3,0
   23850:	01180863          	beq	a6,a7,23860 <__adddf3+0x468>
   23854:	04000693          	li	a3,64
   23858:	410686b3          	sub	a3,a3,a6
   2385c:	00d596b3          	sll	a3,a1,a3
   23860:	00c6e6b3          	or	a3,a3,a2
   23864:	00d036b3          	snez	a3,a3
   23868:	00d76733          	or	a4,a4,a3
   2386c:	00000813          	li	a6,0
   23870:	f95ff06f          	j	23804 <__adddf3+0x40c>
   23874:	00c5e733          	or	a4,a1,a2
   23878:	00e03733          	snez	a4,a4
   2387c:	ff1ff06f          	j	2386c <__adddf3+0x474>
   23880:	0e080463          	beqz	a6,23968 <__adddf3+0x570>
   23884:	41488833          	sub	a6,a7,s4
   23888:	040a1263          	bnez	s4,238cc <__adddf3+0x4d4>
   2388c:	00a7e733          	or	a4,a5,a0
   23890:	02070463          	beqz	a4,238b8 <__adddf3+0x4c0>
   23894:	fff80713          	addi	a4,a6,-1
   23898:	00071e63          	bnez	a4,238b4 <__adddf3+0x4bc>
   2389c:	40a60533          	sub	a0,a2,a0
   238a0:	40f585b3          	sub	a1,a1,a5
   238a4:	00a63633          	sltu	a2,a2,a0
   238a8:	40c587b3          	sub	a5,a1,a2
   238ac:	00068993          	mv	s3,a3
   238b0:	f15ff06f          	j	237c4 <__adddf3+0x3cc>
   238b4:	02681463          	bne	a6,t1,238dc <__adddf3+0x4e4>
   238b8:	00068993          	mv	s3,a3
   238bc:	00058793          	mv	a5,a1
   238c0:	00060513          	mv	a0,a2
   238c4:	00080a13          	mv	s4,a6
   238c8:	bddff06f          	j	234a4 <__adddf3+0xac>
   238cc:	28688663          	beq	a7,t1,23b58 <__adddf3+0x760>
   238d0:	00800737          	lui	a4,0x800
   238d4:	00e7e7b3          	or	a5,a5,a4
   238d8:	00080713          	mv	a4,a6
   238dc:	03800813          	li	a6,56
   238e0:	06e84e63          	blt	a6,a4,2395c <__adddf3+0x564>
   238e4:	01f00813          	li	a6,31
   238e8:	02000e13          	li	t3,32
   238ec:	04e84063          	blt	a6,a4,2392c <__adddf3+0x534>
   238f0:	40ee0e33          	sub	t3,t3,a4
   238f4:	00e55333          	srl	t1,a0,a4
   238f8:	01c79833          	sll	a6,a5,t3
   238fc:	01c51e33          	sll	t3,a0,t3
   23900:	00686833          	or	a6,a6,t1
   23904:	01c03e33          	snez	t3,t3
   23908:	01c86533          	or	a0,a6,t3
   2390c:	00e7d733          	srl	a4,a5,a4
   23910:	40a60533          	sub	a0,a2,a0
   23914:	40e58733          	sub	a4,a1,a4
   23918:	00a63633          	sltu	a2,a2,a0
   2391c:	40c707b3          	sub	a5,a4,a2
   23920:	00088a13          	mv	s4,a7
   23924:	00068993          	mv	s3,a3
   23928:	ef1ff06f          	j	23818 <__adddf3+0x420>
   2392c:	fe070813          	addi	a6,a4,-32 # 7fffe0 <_heap_end+0x7d7088>
   23930:	0107d833          	srl	a6,a5,a6
   23934:	00000313          	li	t1,0
   23938:	01c70863          	beq	a4,t3,23948 <__adddf3+0x550>
   2393c:	04000313          	li	t1,64
   23940:	40e30333          	sub	t1,t1,a4
   23944:	00679333          	sll	t1,a5,t1
   23948:	00a36333          	or	t1,t1,a0
   2394c:	00603333          	snez	t1,t1
   23950:	00686533          	or	a0,a6,t1
   23954:	00000713          	li	a4,0
   23958:	fb9ff06f          	j	23910 <__adddf3+0x518>
   2395c:	00a7e533          	or	a0,a5,a0
   23960:	00a03533          	snez	a0,a0
   23964:	ff1ff06f          	j	23954 <__adddf3+0x55c>
   23968:	001a0713          	addi	a4,s4,1
   2396c:	7fe77713          	andi	a4,a4,2046
   23970:	0a071463          	bnez	a4,23a18 <__adddf3+0x620>
   23974:	00a7e833          	or	a6,a5,a0
   23978:	00c5e733          	or	a4,a1,a2
   2397c:	060a1a63          	bnez	s4,239f0 <__adddf3+0x5f8>
   23980:	00081a63          	bnez	a6,23994 <__adddf3+0x59c>
   23984:	00058793          	mv	a5,a1
   23988:	02071e63          	bnez	a4,239c4 <__adddf3+0x5cc>
   2398c:	00000993          	li	s3,0
   23990:	1c00006f          	j	23b50 <__adddf3+0x758>
   23994:	1a070063          	beqz	a4,23b34 <__adddf3+0x73c>
   23998:	40c50833          	sub	a6,a0,a2
   2399c:	010538b3          	sltu	a7,a0,a6
   239a0:	40b78733          	sub	a4,a5,a1
   239a4:	41170733          	sub	a4,a4,a7
   239a8:	00871893          	slli	a7,a4,0x8
   239ac:	0208d863          	bgez	a7,239dc <__adddf3+0x5e4>
   239b0:	40a60533          	sub	a0,a2,a0
   239b4:	00a63733          	sltu	a4,a2,a0
   239b8:	40f585b3          	sub	a1,a1,a5
   239bc:	00050613          	mv	a2,a0
   239c0:	40e587b3          	sub	a5,a1,a4
   239c4:	00068993          	mv	s3,a3
   239c8:	00c7e533          	or	a0,a5,a2
   239cc:	0e050663          	beqz	a0,23ab8 <__adddf3+0x6c0>
   239d0:	00060513          	mv	a0,a2
   239d4:	00000a13          	li	s4,0
   239d8:	d79ff06f          	j	23750 <__adddf3+0x358>
   239dc:	00e86533          	or	a0,a6,a4
   239e0:	18050663          	beqz	a0,23b6c <__adddf3+0x774>
   239e4:	00070793          	mv	a5,a4
   239e8:	00080613          	mv	a2,a6
   239ec:	fddff06f          	j	239c8 <__adddf3+0x5d0>
   239f0:	00081e63          	bnez	a6,23a0c <__adddf3+0x614>
   239f4:	00068993          	mv	s3,a3
   239f8:	14071263          	bnez	a4,23b3c <__adddf3+0x744>
   239fc:	00000993          	li	s3,0
   23a00:	004007b7          	lui	a5,0x400
   23a04:	00000513          	li	a0,0
   23a08:	13c0006f          	j	23b44 <__adddf3+0x74c>
   23a0c:	00030a13          	mv	s4,t1
   23a10:	a8070ae3          	beqz	a4,234a4 <__adddf3+0xac>
   23a14:	d05ff06f          	j	23718 <__adddf3+0x320>
   23a18:	40c50733          	sub	a4,a0,a2
   23a1c:	00e53833          	sltu	a6,a0,a4
   23a20:	40b78933          	sub	s2,a5,a1
   23a24:	41090933          	sub	s2,s2,a6
   23a28:	00891813          	slli	a6,s2,0x8
   23a2c:	00070a93          	mv	s5,a4
   23a30:	06085e63          	bgez	a6,23aac <__adddf3+0x6b4>
   23a34:	40a60ab3          	sub	s5,a2,a0
   23a38:	40f58933          	sub	s2,a1,a5
   23a3c:	01563633          	sltu	a2,a2,s5
   23a40:	40c90933          	sub	s2,s2,a2
   23a44:	00068993          	mv	s3,a3
   23a48:	06090e63          	beqz	s2,23ac4 <__adddf3+0x6cc>
   23a4c:	00090513          	mv	a0,s2
   23a50:	38c020ef          	jal	25ddc <__clzsi2>
   23a54:	ff850613          	addi	a2,a0,-8
   23a58:	02000793          	li	a5,32
   23a5c:	40c787b3          	sub	a5,a5,a2
   23a60:	00c91933          	sll	s2,s2,a2
   23a64:	00fad7b3          	srl	a5,s5,a5
   23a68:	0127e7b3          	or	a5,a5,s2
   23a6c:	00ca9933          	sll	s2,s5,a2
   23a70:	0b464263          	blt	a2,s4,23b14 <__adddf3+0x71c>
   23a74:	41460633          	sub	a2,a2,s4
   23a78:	00160593          	addi	a1,a2,1 # 7ff00001 <_heap_end+0x7fed70a9>
   23a7c:	01f00713          	li	a4,31
   23a80:	02000693          	li	a3,32
   23a84:	06b74063          	blt	a4,a1,23ae4 <__adddf3+0x6ec>
   23a88:	40b686b3          	sub	a3,a3,a1
   23a8c:	00d79633          	sll	a2,a5,a3
   23a90:	00b95733          	srl	a4,s2,a1
   23a94:	00d916b3          	sll	a3,s2,a3
   23a98:	00e66633          	or	a2,a2,a4
   23a9c:	00d036b3          	snez	a3,a3
   23aa0:	00d66633          	or	a2,a2,a3
   23aa4:	00b7d7b3          	srl	a5,a5,a1
   23aa8:	f21ff06f          	j	239c8 <__adddf3+0x5d0>
   23aac:	01276533          	or	a0,a4,s2
   23ab0:	f8051ce3          	bnez	a0,23a48 <__adddf3+0x650>
   23ab4:	00000993          	li	s3,0
   23ab8:	00000793          	li	a5,0
   23abc:	00000a13          	li	s4,0
   23ac0:	9e5ff06f          	j	234a4 <__adddf3+0xac>
   23ac4:	000a8513          	mv	a0,s5
   23ac8:	314020ef          	jal	25ddc <__clzsi2>
   23acc:	01850613          	addi	a2,a0,24
   23ad0:	01f00793          	li	a5,31
   23ad4:	f8c7d2e3          	bge	a5,a2,23a58 <__adddf3+0x660>
   23ad8:	ff850793          	addi	a5,a0,-8
   23adc:	00fa97b3          	sll	a5,s5,a5
   23ae0:	f91ff06f          	j	23a70 <__adddf3+0x678>
   23ae4:	fe160613          	addi	a2,a2,-31
   23ae8:	00c7d633          	srl	a2,a5,a2
   23aec:	00000713          	li	a4,0
   23af0:	00d58863          	beq	a1,a3,23b00 <__adddf3+0x708>
   23af4:	04000713          	li	a4,64
   23af8:	40b70733          	sub	a4,a4,a1
   23afc:	00e79733          	sll	a4,a5,a4
   23b00:	00e96733          	or	a4,s2,a4
   23b04:	00e03733          	snez	a4,a4
   23b08:	00e66633          	or	a2,a2,a4
   23b0c:	00000793          	li	a5,0
   23b10:	eb9ff06f          	j	239c8 <__adddf3+0x5d0>
   23b14:	ff800737          	lui	a4,0xff800
   23b18:	fff70713          	addi	a4,a4,-1 # ff7fffff <_heap_end+0xff7d70a7>
   23b1c:	40ca0a33          	sub	s4,s4,a2
   23b20:	00e7f7b3          	and	a5,a5,a4
   23b24:	00090513          	mv	a0,s2
   23b28:	c29ff06f          	j	23750 <__adddf3+0x358>
   23b2c:	00058793          	mv	a5,a1
   23b30:	e99ff06f          	j	239c8 <__adddf3+0x5d0>
   23b34:	00050613          	mv	a2,a0
   23b38:	e91ff06f          	j	239c8 <__adddf3+0x5d0>
   23b3c:	00058793          	mv	a5,a1
   23b40:	00060513          	mv	a0,a2
   23b44:	00030a13          	mv	s4,t1
   23b48:	95dff06f          	j	234a4 <__adddf3+0xac>
   23b4c:	00070a13          	mv	s4,a4
   23b50:	00000793          	li	a5,0
   23b54:	bcdff06f          	j	23720 <__adddf3+0x328>
   23b58:	00068993          	mv	s3,a3
   23b5c:	00058793          	mv	a5,a1
   23b60:	00060513          	mv	a0,a2
   23b64:	00088a13          	mv	s4,a7
   23b68:	93dff06f          	j	234a4 <__adddf3+0xac>
   23b6c:	00000993          	li	s3,0
   23b70:	00000793          	li	a5,0
   23b74:	931ff06f          	j	234a4 <__adddf3+0xac>

00023b78 <__divdf3>:
   23b78:	fd010113          	addi	sp,sp,-48
   23b7c:	01812423          	sw	s8,8(sp)
   23b80:	0145dc13          	srli	s8,a1,0x14
   23b84:	02812423          	sw	s0,40(sp)
   23b88:	01412c23          	sw	s4,24(sp)
   23b8c:	01512a23          	sw	s5,20(sp)
   23b90:	01712623          	sw	s7,12(sp)
   23b94:	01912223          	sw	s9,4(sp)
   23b98:	00c59413          	slli	s0,a1,0xc
   23b9c:	02112623          	sw	ra,44(sp)
   23ba0:	02912223          	sw	s1,36(sp)
   23ba4:	03212023          	sw	s2,32(sp)
   23ba8:	01312e23          	sw	s3,28(sp)
   23bac:	01612823          	sw	s6,16(sp)
   23bb0:	7ffc7713          	andi	a4,s8,2047
   23bb4:	00050b93          	mv	s7,a0
   23bb8:	00060c93          	mv	s9,a2
   23bbc:	00068a93          	mv	s5,a3
   23bc0:	00c45413          	srli	s0,s0,0xc
   23bc4:	01f5da13          	srli	s4,a1,0x1f
   23bc8:	0a070063          	beqz	a4,23c68 <__divdf3+0xf0>
   23bcc:	7ff00793          	li	a5,2047
   23bd0:	10f70063          	beq	a4,a5,23cd0 <__divdf3+0x158>
   23bd4:	01d55b13          	srli	s6,a0,0x1d
   23bd8:	00341413          	slli	s0,s0,0x3
   23bdc:	008b6b33          	or	s6,s6,s0
   23be0:	008007b7          	lui	a5,0x800
   23be4:	00fb6b33          	or	s6,s6,a5
   23be8:	00351493          	slli	s1,a0,0x3
   23bec:	c0170c13          	addi	s8,a4,-1023
   23bf0:	00000b93          	li	s7,0
   23bf4:	014ad693          	srli	a3,s5,0x14
   23bf8:	00ca9413          	slli	s0,s5,0xc
   23bfc:	7ff6f693          	andi	a3,a3,2047
   23c00:	00c45413          	srli	s0,s0,0xc
   23c04:	01fada93          	srli	s5,s5,0x1f
   23c08:	10068263          	beqz	a3,23d0c <__divdf3+0x194>
   23c0c:	7ff00793          	li	a5,2047
   23c10:	16f68663          	beq	a3,a5,23d7c <__divdf3+0x204>
   23c14:	00341413          	slli	s0,s0,0x3
   23c18:	01dcd793          	srli	a5,s9,0x1d
   23c1c:	0087e7b3          	or	a5,a5,s0
   23c20:	00800437          	lui	s0,0x800
   23c24:	0087e433          	or	s0,a5,s0
   23c28:	003c9f13          	slli	t5,s9,0x3
   23c2c:	c0168693          	addi	a3,a3,-1023
   23c30:	00000593          	li	a1,0
   23c34:	002b9793          	slli	a5,s7,0x2
   23c38:	00b7e7b3          	or	a5,a5,a1
   23c3c:	40dc0733          	sub	a4,s8,a3
   23c40:	fff78793          	addi	a5,a5,-1 # 7fffff <_heap_end+0x7d70a7>
   23c44:	00e00693          	li	a3,14
   23c48:	015a4633          	xor	a2,s4,s5
   23c4c:	16f6e063          	bltu	a3,a5,23dac <__divdf3+0x234>
   23c50:	000276b7          	lui	a3,0x27
   23c54:	00279793          	slli	a5,a5,0x2
   23c58:	d5068693          	addi	a3,a3,-688 # 26d50 <__fpclassifyd+0x468>
   23c5c:	00d787b3          	add	a5,a5,a3
   23c60:	0007a783          	lw	a5,0(a5)
   23c64:	00078067          	jr	a5
   23c68:	00a46b33          	or	s6,s0,a0
   23c6c:	060b0e63          	beqz	s6,23ce8 <__divdf3+0x170>
   23c70:	02040e63          	beqz	s0,23cac <__divdf3+0x134>
   23c74:	00040513          	mv	a0,s0
   23c78:	164020ef          	jal	25ddc <__clzsi2>
   23c7c:	ff550793          	addi	a5,a0,-11
   23c80:	01d00b13          	li	s6,29
   23c84:	ff850713          	addi	a4,a0,-8
   23c88:	40fb0b33          	sub	s6,s6,a5
   23c8c:	00e41433          	sll	s0,s0,a4
   23c90:	016bdb33          	srl	s6,s7,s6
   23c94:	008b6b33          	or	s6,s6,s0
   23c98:	00eb9433          	sll	s0,s7,a4
   23c9c:	c0d00713          	li	a4,-1011
   23ca0:	40a70c33          	sub	s8,a4,a0
   23ca4:	00040493          	mv	s1,s0
   23ca8:	f49ff06f          	j	23bf0 <__divdf3+0x78>
   23cac:	130020ef          	jal	25ddc <__clzsi2>
   23cb0:	00050b13          	mv	s6,a0
   23cb4:	015b0793          	addi	a5,s6,21
   23cb8:	01c00713          	li	a4,28
   23cbc:	02050513          	addi	a0,a0,32
   23cc0:	fcf750e3          	bge	a4,a5,23c80 <__divdf3+0x108>
   23cc4:	ff8b0b13          	addi	s6,s6,-8
   23cc8:	016b9b33          	sll	s6,s7,s6
   23ccc:	fd1ff06f          	j	23c9c <__divdf3+0x124>
   23cd0:	00a46b33          	or	s6,s0,a0
   23cd4:	020b1263          	bnez	s6,23cf8 <__divdf3+0x180>
   23cd8:	00000493          	li	s1,0
   23cdc:	00070c13          	mv	s8,a4
   23ce0:	00200b93          	li	s7,2
   23ce4:	f11ff06f          	j	23bf4 <__divdf3+0x7c>
   23ce8:	00000493          	li	s1,0
   23cec:	00000c13          	li	s8,0
   23cf0:	00100b93          	li	s7,1
   23cf4:	f01ff06f          	j	23bf4 <__divdf3+0x7c>
   23cf8:	00050493          	mv	s1,a0
   23cfc:	00040b13          	mv	s6,s0
   23d00:	00070c13          	mv	s8,a4
   23d04:	00300b93          	li	s7,3
   23d08:	eedff06f          	j	23bf4 <__divdf3+0x7c>
   23d0c:	01946f33          	or	t5,s0,s9
   23d10:	080f0063          	beqz	t5,23d90 <__divdf3+0x218>
   23d14:	04040063          	beqz	s0,23d54 <__divdf3+0x1dc>
   23d18:	00040513          	mv	a0,s0
   23d1c:	0c0020ef          	jal	25ddc <__clzsi2>
   23d20:	ff550713          	addi	a4,a0,-11
   23d24:	01d00793          	li	a5,29
   23d28:	ff850693          	addi	a3,a0,-8
   23d2c:	40e787b3          	sub	a5,a5,a4
   23d30:	00d41433          	sll	s0,s0,a3
   23d34:	00fcd7b3          	srl	a5,s9,a5
   23d38:	0087e7b3          	or	a5,a5,s0
   23d3c:	00dc9433          	sll	s0,s9,a3
   23d40:	c0d00693          	li	a3,-1011
   23d44:	00040f13          	mv	t5,s0
   23d48:	40a686b3          	sub	a3,a3,a0
   23d4c:	00078413          	mv	s0,a5
   23d50:	ee1ff06f          	j	23c30 <__divdf3+0xb8>
   23d54:	000c8513          	mv	a0,s9
   23d58:	084020ef          	jal	25ddc <__clzsi2>
   23d5c:	00050793          	mv	a5,a0
   23d60:	01578713          	addi	a4,a5,21
   23d64:	01c00693          	li	a3,28
   23d68:	02050513          	addi	a0,a0,32
   23d6c:	fae6dce3          	bge	a3,a4,23d24 <__divdf3+0x1ac>
   23d70:	ff878793          	addi	a5,a5,-8
   23d74:	00fc97b3          	sll	a5,s9,a5
   23d78:	fc9ff06f          	j	23d40 <__divdf3+0x1c8>
   23d7c:	01946f33          	or	t5,s0,s9
   23d80:	020f1063          	bnez	t5,23da0 <__divdf3+0x228>
   23d84:	00000413          	li	s0,0
   23d88:	00200593          	li	a1,2
   23d8c:	ea9ff06f          	j	23c34 <__divdf3+0xbc>
   23d90:	00000413          	li	s0,0
   23d94:	00000693          	li	a3,0
   23d98:	00100593          	li	a1,1
   23d9c:	e99ff06f          	j	23c34 <__divdf3+0xbc>
   23da0:	000c8f13          	mv	t5,s9
   23da4:	00300593          	li	a1,3
   23da8:	e8dff06f          	j	23c34 <__divdf3+0xbc>
   23dac:	01646663          	bltu	s0,s6,23db8 <__divdf3+0x240>
   23db0:	348b1a63          	bne	s6,s0,24104 <__divdf3+0x58c>
   23db4:	35e4e863          	bltu	s1,t5,24104 <__divdf3+0x58c>
   23db8:	01fb1693          	slli	a3,s6,0x1f
   23dbc:	0014d793          	srli	a5,s1,0x1
   23dc0:	01f49313          	slli	t1,s1,0x1f
   23dc4:	001b5b13          	srli	s6,s6,0x1
   23dc8:	00f6e4b3          	or	s1,a3,a5
   23dcc:	00841813          	slli	a6,s0,0x8
   23dd0:	018f5693          	srli	a3,t5,0x18
   23dd4:	0106e6b3          	or	a3,a3,a6
   23dd8:	01085813          	srli	a6,a6,0x10
   23ddc:	030b5eb3          	divu	t4,s6,a6
   23de0:	01069893          	slli	a7,a3,0x10
   23de4:	0108d893          	srli	a7,a7,0x10
   23de8:	0104d793          	srli	a5,s1,0x10
   23dec:	008f1593          	slli	a1,t5,0x8
   23df0:	030b7b33          	remu	s6,s6,a6
   23df4:	000e8513          	mv	a0,t4
   23df8:	03d88e33          	mul	t3,a7,t4
   23dfc:	010b1b13          	slli	s6,s6,0x10
   23e00:	0167e7b3          	or	a5,a5,s6
   23e04:	01c7fe63          	bgeu	a5,t3,23e20 <__divdf3+0x2a8>
   23e08:	00f687b3          	add	a5,a3,a5
   23e0c:	fffe8513          	addi	a0,t4,-1
   23e10:	00d7e863          	bltu	a5,a3,23e20 <__divdf3+0x2a8>
   23e14:	01c7f663          	bgeu	a5,t3,23e20 <__divdf3+0x2a8>
   23e18:	ffee8513          	addi	a0,t4,-2
   23e1c:	00d787b3          	add	a5,a5,a3
   23e20:	41c787b3          	sub	a5,a5,t3
   23e24:	0307deb3          	divu	t4,a5,a6
   23e28:	01049493          	slli	s1,s1,0x10
   23e2c:	0104d493          	srli	s1,s1,0x10
   23e30:	0307f7b3          	remu	a5,a5,a6
   23e34:	03d88e33          	mul	t3,a7,t4
   23e38:	01079793          	slli	a5,a5,0x10
   23e3c:	00f4e4b3          	or	s1,s1,a5
   23e40:	000e8793          	mv	a5,t4
   23e44:	01c4fe63          	bgeu	s1,t3,23e60 <__divdf3+0x2e8>
   23e48:	009684b3          	add	s1,a3,s1
   23e4c:	fffe8793          	addi	a5,t4,-1
   23e50:	00d4e863          	bltu	s1,a3,23e60 <__divdf3+0x2e8>
   23e54:	01c4f663          	bgeu	s1,t3,23e60 <__divdf3+0x2e8>
   23e58:	ffee8793          	addi	a5,t4,-2
   23e5c:	00d484b3          	add	s1,s1,a3
   23e60:	01051513          	slli	a0,a0,0x10
   23e64:	00f56533          	or	a0,a0,a5
   23e68:	01051793          	slli	a5,a0,0x10
   23e6c:	01059e93          	slli	t4,a1,0x10
   23e70:	01055f93          	srli	t6,a0,0x10
   23e74:	0107d793          	srli	a5,a5,0x10
   23e78:	010ede93          	srli	t4,t4,0x10
   23e7c:	41c484b3          	sub	s1,s1,t3
   23e80:	0105de13          	srli	t3,a1,0x10
   23e84:	03d782b3          	mul	t0,a5,t4
   23e88:	03df83b3          	mul	t2,t6,t4
   23e8c:	02fe07b3          	mul	a5,t3,a5
   23e90:	00778f33          	add	t5,a5,t2
   23e94:	0102d793          	srli	a5,t0,0x10
   23e98:	01e787b3          	add	a5,a5,t5
   23e9c:	03cf8fb3          	mul	t6,t6,t3
   23ea0:	0077f663          	bgeu	a5,t2,23eac <__divdf3+0x334>
   23ea4:	00010f37          	lui	t5,0x10
   23ea8:	01ef8fb3          	add	t6,t6,t5
   23eac:	0107df13          	srli	t5,a5,0x10
   23eb0:	01029293          	slli	t0,t0,0x10
   23eb4:	01079793          	slli	a5,a5,0x10
   23eb8:	0102d293          	srli	t0,t0,0x10
   23ebc:	01ff0f33          	add	t5,t5,t6
   23ec0:	005787b3          	add	a5,a5,t0
   23ec4:	01e4e863          	bltu	s1,t5,23ed4 <__divdf3+0x35c>
   23ec8:	00050413          	mv	s0,a0
   23ecc:	05e49863          	bne	s1,t5,23f1c <__divdf3+0x3a4>
   23ed0:	04f37663          	bgeu	t1,a5,23f1c <__divdf3+0x3a4>
   23ed4:	00b30fb3          	add	t6,t1,a1
   23ed8:	006fb2b3          	sltu	t0,t6,t1
   23edc:	00d283b3          	add	t2,t0,a3
   23ee0:	007484b3          	add	s1,s1,t2
   23ee4:	fff50413          	addi	s0,a0,-1
   23ee8:	000f8313          	mv	t1,t6
   23eec:	0096e663          	bltu	a3,s1,23ef8 <__divdf3+0x380>
   23ef0:	02969663          	bne	a3,s1,23f1c <__divdf3+0x3a4>
   23ef4:	02029463          	bnez	t0,23f1c <__divdf3+0x3a4>
   23ef8:	01e4e663          	bltu	s1,t5,23f04 <__divdf3+0x38c>
   23efc:	029f1063          	bne	t5,s1,23f1c <__divdf3+0x3a4>
   23f00:	00fffe63          	bgeu	t6,a5,23f1c <__divdf3+0x3a4>
   23f04:	01f58fb3          	add	t6,a1,t6
   23f08:	ffe50413          	addi	s0,a0,-2
   23f0c:	00bfb533          	sltu	a0,t6,a1
   23f10:	00d50533          	add	a0,a0,a3
   23f14:	000f8313          	mv	t1,t6
   23f18:	00a484b3          	add	s1,s1,a0
   23f1c:	40f30533          	sub	a0,t1,a5
   23f20:	41e484b3          	sub	s1,s1,t5
   23f24:	00a33333          	sltu	t1,t1,a0
   23f28:	406484b3          	sub	s1,s1,t1
   23f2c:	fff00f13          	li	t5,-1
   23f30:	12968263          	beq	a3,s1,24054 <__divdf3+0x4dc>
   23f34:	0304dfb3          	divu	t6,s1,a6
   23f38:	01055793          	srli	a5,a0,0x10
   23f3c:	0304f4b3          	remu	s1,s1,a6
   23f40:	000f8313          	mv	t1,t6
   23f44:	03f88f33          	mul	t5,a7,t6
   23f48:	01049493          	slli	s1,s1,0x10
   23f4c:	0097e7b3          	or	a5,a5,s1
   23f50:	01e7fe63          	bgeu	a5,t5,23f6c <__divdf3+0x3f4>
   23f54:	00f687b3          	add	a5,a3,a5
   23f58:	ffff8313          	addi	t1,t6,-1
   23f5c:	00d7e863          	bltu	a5,a3,23f6c <__divdf3+0x3f4>
   23f60:	01e7f663          	bgeu	a5,t5,23f6c <__divdf3+0x3f4>
   23f64:	ffef8313          	addi	t1,t6,-2
   23f68:	00d787b3          	add	a5,a5,a3
   23f6c:	41e787b3          	sub	a5,a5,t5
   23f70:	0307df33          	divu	t5,a5,a6
   23f74:	01051513          	slli	a0,a0,0x10
   23f78:	01055513          	srli	a0,a0,0x10
   23f7c:	0307f7b3          	remu	a5,a5,a6
   23f80:	000f0813          	mv	a6,t5
   23f84:	03e888b3          	mul	a7,a7,t5
   23f88:	01079793          	slli	a5,a5,0x10
   23f8c:	00f567b3          	or	a5,a0,a5
   23f90:	0117fe63          	bgeu	a5,a7,23fac <__divdf3+0x434>
   23f94:	00f687b3          	add	a5,a3,a5
   23f98:	ffff0813          	addi	a6,t5,-1 # ffff <__heap_size+0xdfff>
   23f9c:	00d7e863          	bltu	a5,a3,23fac <__divdf3+0x434>
   23fa0:	0117f663          	bgeu	a5,a7,23fac <__divdf3+0x434>
   23fa4:	ffef0813          	addi	a6,t5,-2
   23fa8:	00d787b3          	add	a5,a5,a3
   23fac:	01031513          	slli	a0,t1,0x10
   23fb0:	01056533          	or	a0,a0,a6
   23fb4:	01051813          	slli	a6,a0,0x10
   23fb8:	01085813          	srli	a6,a6,0x10
   23fbc:	01055313          	srli	t1,a0,0x10
   23fc0:	030e8f33          	mul	t5,t4,a6
   23fc4:	411787b3          	sub	a5,a5,a7
   23fc8:	03d30eb3          	mul	t4,t1,t4
   23fcc:	026e0333          	mul	t1,t3,t1
   23fd0:	030e0e33          	mul	t3,t3,a6
   23fd4:	010f5813          	srli	a6,t5,0x10
   23fd8:	01de0e33          	add	t3,t3,t4
   23fdc:	01c80833          	add	a6,a6,t3
   23fe0:	01d87663          	bgeu	a6,t4,23fec <__divdf3+0x474>
   23fe4:	000108b7          	lui	a7,0x10
   23fe8:	01130333          	add	t1,t1,a7
   23fec:	01085893          	srli	a7,a6,0x10
   23ff0:	010f1f13          	slli	t5,t5,0x10
   23ff4:	01081813          	slli	a6,a6,0x10
   23ff8:	010f5f13          	srli	t5,t5,0x10
   23ffc:	006888b3          	add	a7,a7,t1
   24000:	01e80833          	add	a6,a6,t5
   24004:	0117e863          	bltu	a5,a7,24014 <__divdf3+0x49c>
   24008:	00050f13          	mv	t5,a0
   2400c:	05179263          	bne	a5,a7,24050 <__divdf3+0x4d8>
   24010:	04080263          	beqz	a6,24054 <__divdf3+0x4dc>
   24014:	00f687b3          	add	a5,a3,a5
   24018:	fff50f13          	addi	t5,a0,-1
   2401c:	00078313          	mv	t1,a5
   24020:	02d7e463          	bltu	a5,a3,24048 <__divdf3+0x4d0>
   24024:	0117e663          	bltu	a5,a7,24030 <__divdf3+0x4b8>
   24028:	03179463          	bne	a5,a7,24050 <__divdf3+0x4d8>
   2402c:	0305f063          	bgeu	a1,a6,2404c <__divdf3+0x4d4>
   24030:	ffe50f13          	addi	t5,a0,-2
   24034:	00159513          	slli	a0,a1,0x1
   24038:	00b53333          	sltu	t1,a0,a1
   2403c:	00d30333          	add	t1,t1,a3
   24040:	00678333          	add	t1,a5,t1
   24044:	00050593          	mv	a1,a0
   24048:	01131463          	bne	t1,a7,24050 <__divdf3+0x4d8>
   2404c:	00b80463          	beq	a6,a1,24054 <__divdf3+0x4dc>
   24050:	001f6f13          	ori	t5,t5,1
   24054:	3ff70793          	addi	a5,a4,1023
   24058:	0ef05a63          	blez	a5,2414c <__divdf3+0x5d4>
   2405c:	007f7693          	andi	a3,t5,7
   24060:	02068063          	beqz	a3,24080 <__divdf3+0x508>
   24064:	00ff7693          	andi	a3,t5,15
   24068:	00400593          	li	a1,4
   2406c:	00b68a63          	beq	a3,a1,24080 <__divdf3+0x508>
   24070:	00bf06b3          	add	a3,t5,a1
   24074:	01e6b5b3          	sltu	a1,a3,t5
   24078:	00b40433          	add	s0,s0,a1
   2407c:	00068f13          	mv	t5,a3
   24080:	00741693          	slli	a3,s0,0x7
   24084:	0006da63          	bgez	a3,24098 <__divdf3+0x520>
   24088:	ff0007b7          	lui	a5,0xff000
   2408c:	fff78793          	addi	a5,a5,-1 # feffffff <_heap_end+0xfefd70a7>
   24090:	00f47433          	and	s0,s0,a5
   24094:	40070793          	addi	a5,a4,1024
   24098:	7fe00713          	li	a4,2046
   2409c:	16f74c63          	blt	a4,a5,24214 <__divdf3+0x69c>
   240a0:	01d41713          	slli	a4,s0,0x1d
   240a4:	003f5f13          	srli	t5,t5,0x3
   240a8:	01e76733          	or	a4,a4,t5
   240ac:	00345413          	srli	s0,s0,0x3
   240b0:	00c41413          	slli	s0,s0,0xc
   240b4:	00c45413          	srli	s0,s0,0xc
   240b8:	01479793          	slli	a5,a5,0x14
   240bc:	02c12083          	lw	ra,44(sp)
   240c0:	0087e7b3          	or	a5,a5,s0
   240c4:	02812403          	lw	s0,40(sp)
   240c8:	01f61613          	slli	a2,a2,0x1f
   240cc:	00c7e6b3          	or	a3,a5,a2
   240d0:	02412483          	lw	s1,36(sp)
   240d4:	02012903          	lw	s2,32(sp)
   240d8:	01c12983          	lw	s3,28(sp)
   240dc:	01812a03          	lw	s4,24(sp)
   240e0:	01412a83          	lw	s5,20(sp)
   240e4:	01012b03          	lw	s6,16(sp)
   240e8:	00c12b83          	lw	s7,12(sp)
   240ec:	00812c03          	lw	s8,8(sp)
   240f0:	00412c83          	lw	s9,4(sp)
   240f4:	00070513          	mv	a0,a4
   240f8:	00068593          	mv	a1,a3
   240fc:	03010113          	addi	sp,sp,48
   24100:	00008067          	ret
   24104:	fff70713          	addi	a4,a4,-1
   24108:	00000313          	li	t1,0
   2410c:	cc1ff06f          	j	23dcc <__divdf3+0x254>
   24110:	000a8613          	mv	a2,s5
   24114:	00058b93          	mv	s7,a1
   24118:	00200793          	li	a5,2
   2411c:	0efb8c63          	beq	s7,a5,24214 <__divdf3+0x69c>
   24120:	00300793          	li	a5,3
   24124:	0cfb8e63          	beq	s7,a5,24200 <__divdf3+0x688>
   24128:	00100793          	li	a5,1
   2412c:	f2fb94e3          	bne	s7,a5,24054 <__divdf3+0x4dc>
   24130:	00000413          	li	s0,0
   24134:	00000713          	li	a4,0
   24138:	08c0006f          	j	241c4 <__divdf3+0x64c>
   2413c:	000a0613          	mv	a2,s4
   24140:	000b0413          	mv	s0,s6
   24144:	00048f13          	mv	t5,s1
   24148:	fd1ff06f          	j	24118 <__divdf3+0x5a0>
   2414c:	00100593          	li	a1,1
   24150:	00078c63          	beqz	a5,24168 <__divdf3+0x5f0>
   24154:	40f585b3          	sub	a1,a1,a5
   24158:	03800693          	li	a3,56
   2415c:	fcb6cae3          	blt	a3,a1,24130 <__divdf3+0x5b8>
   24160:	01f00693          	li	a3,31
   24164:	06b6c463          	blt	a3,a1,241cc <__divdf3+0x654>
   24168:	41e70713          	addi	a4,a4,1054
   2416c:	00bf57b3          	srl	a5,t5,a1
   24170:	00ef1f33          	sll	t5,t5,a4
   24174:	01e03f33          	snez	t5,t5
   24178:	00e41733          	sll	a4,s0,a4
   2417c:	00ef6f33          	or	t5,t5,a4
   24180:	01e7e7b3          	or	a5,a5,t5
   24184:	00b45433          	srl	s0,s0,a1
   24188:	0077f713          	andi	a4,a5,7
   2418c:	02070063          	beqz	a4,241ac <__divdf3+0x634>
   24190:	00f7f713          	andi	a4,a5,15
   24194:	00400693          	li	a3,4
   24198:	00d70a63          	beq	a4,a3,241ac <__divdf3+0x634>
   2419c:	00d78733          	add	a4,a5,a3
   241a0:	00f736b3          	sltu	a3,a4,a5
   241a4:	00d40433          	add	s0,s0,a3
   241a8:	00070793          	mv	a5,a4
   241ac:	00841713          	slli	a4,s0,0x8
   241b0:	06074a63          	bltz	a4,24224 <__divdf3+0x6ac>
   241b4:	01d41713          	slli	a4,s0,0x1d
   241b8:	0037d793          	srli	a5,a5,0x3
   241bc:	00f76733          	or	a4,a4,a5
   241c0:	00345413          	srli	s0,s0,0x3
   241c4:	00000793          	li	a5,0
   241c8:	ee9ff06f          	j	240b0 <__divdf3+0x538>
   241cc:	fe100693          	li	a3,-31
   241d0:	40f687b3          	sub	a5,a3,a5
   241d4:	02000513          	li	a0,32
   241d8:	00f457b3          	srl	a5,s0,a5
   241dc:	00000693          	li	a3,0
   241e0:	00a58663          	beq	a1,a0,241ec <__divdf3+0x674>
   241e4:	43e70713          	addi	a4,a4,1086
   241e8:	00e416b3          	sll	a3,s0,a4
   241ec:	01e6e6b3          	or	a3,a3,t5
   241f0:	00d036b3          	snez	a3,a3
   241f4:	00d7e7b3          	or	a5,a5,a3
   241f8:	00000413          	li	s0,0
   241fc:	f8dff06f          	j	24188 <__divdf3+0x610>
   24200:	00080437          	lui	s0,0x80
   24204:	00000713          	li	a4,0
   24208:	7ff00793          	li	a5,2047
   2420c:	00000613          	li	a2,0
   24210:	ea1ff06f          	j	240b0 <__divdf3+0x538>
   24214:	00000413          	li	s0,0
   24218:	00000713          	li	a4,0
   2421c:	7ff00793          	li	a5,2047
   24220:	e91ff06f          	j	240b0 <__divdf3+0x538>
   24224:	00000413          	li	s0,0
   24228:	00000713          	li	a4,0
   2422c:	00100793          	li	a5,1
   24230:	e81ff06f          	j	240b0 <__divdf3+0x538>

00024234 <__eqdf2>:
   24234:	0145d713          	srli	a4,a1,0x14
   24238:	001007b7          	lui	a5,0x100
   2423c:	fff78793          	addi	a5,a5,-1 # fffff <_heap_end+0xd70a7>
   24240:	0146d813          	srli	a6,a3,0x14
   24244:	00050313          	mv	t1,a0
   24248:	00050e93          	mv	t4,a0
   2424c:	7ff77713          	andi	a4,a4,2047
   24250:	7ff00513          	li	a0,2047
   24254:	00b7f8b3          	and	a7,a5,a1
   24258:	00060f13          	mv	t5,a2
   2425c:	00d7f7b3          	and	a5,a5,a3
   24260:	01f5d593          	srli	a1,a1,0x1f
   24264:	7ff87813          	andi	a6,a6,2047
   24268:	01f6d693          	srli	a3,a3,0x1f
   2426c:	00a71c63          	bne	a4,a0,24284 <__eqdf2+0x50>
   24270:	0068ee33          	or	t3,a7,t1
   24274:	00100513          	li	a0,1
   24278:	000e1463          	bnez	t3,24280 <__eqdf2+0x4c>
   2427c:	00e80663          	beq	a6,a4,24288 <__eqdf2+0x54>
   24280:	00008067          	ret
   24284:	00a81863          	bne	a6,a0,24294 <__eqdf2+0x60>
   24288:	00c7e633          	or	a2,a5,a2
   2428c:	00100513          	li	a0,1
   24290:	fe0618e3          	bnez	a2,24280 <__eqdf2+0x4c>
   24294:	00100513          	li	a0,1
   24298:	ff0714e3          	bne	a4,a6,24280 <__eqdf2+0x4c>
   2429c:	fef892e3          	bne	a7,a5,24280 <__eqdf2+0x4c>
   242a0:	ffee90e3          	bne	t4,t5,24280 <__eqdf2+0x4c>
   242a4:	00d58a63          	beq	a1,a3,242b8 <__eqdf2+0x84>
   242a8:	fc071ce3          	bnez	a4,24280 <__eqdf2+0x4c>
   242ac:	0068e8b3          	or	a7,a7,t1
   242b0:	01103533          	snez	a0,a7
   242b4:	00008067          	ret
   242b8:	00000513          	li	a0,0
   242bc:	00008067          	ret

000242c0 <__gedf2>:
   242c0:	0146d793          	srli	a5,a3,0x14
   242c4:	0145d893          	srli	a7,a1,0x14
   242c8:	00100737          	lui	a4,0x100
   242cc:	fff70713          	addi	a4,a4,-1 # fffff <_heap_end+0xd70a7>
   242d0:	00050813          	mv	a6,a0
   242d4:	00050e13          	mv	t3,a0
   242d8:	7ff8f893          	andi	a7,a7,2047
   242dc:	7ff7f513          	andi	a0,a5,2047
   242e0:	7ff00793          	li	a5,2047
   242e4:	00b77333          	and	t1,a4,a1
   242e8:	00060e93          	mv	t4,a2
   242ec:	00d77733          	and	a4,a4,a3
   242f0:	01f5d593          	srli	a1,a1,0x1f
   242f4:	01f6d693          	srli	a3,a3,0x1f
   242f8:	00f89663          	bne	a7,a5,24304 <__gedf2+0x44>
   242fc:	01036f33          	or	t5,t1,a6
   24300:	060f1663          	bnez	t5,2436c <__gedf2+0xac>
   24304:	00f51663          	bne	a0,a5,24310 <__gedf2+0x50>
   24308:	00c767b3          	or	a5,a4,a2
   2430c:	06079063          	bnez	a5,2436c <__gedf2+0xac>
   24310:	00000793          	li	a5,0
   24314:	00089663          	bnez	a7,24320 <__gedf2+0x60>
   24318:	01036833          	or	a6,t1,a6
   2431c:	00183793          	seqz	a5,a6
   24320:	04051a63          	bnez	a0,24374 <__gedf2+0xb4>
   24324:	00c76633          	or	a2,a4,a2
   24328:	00078a63          	beqz	a5,2433c <__gedf2+0x7c>
   2432c:	06060063          	beqz	a2,2438c <__gedf2+0xcc>
   24330:	00169513          	slli	a0,a3,0x1
   24334:	fff50513          	addi	a0,a0,-1
   24338:	00008067          	ret
   2433c:	02061e63          	bnez	a2,24378 <__gedf2+0xb8>
   24340:	40b005b3          	neg	a1,a1
   24344:	0015e513          	ori	a0,a1,1
   24348:	00008067          	ret
   2434c:	fea8c2e3          	blt	a7,a0,24330 <__gedf2+0x70>
   24350:	fe6768e3          	bltu	a4,t1,24340 <__gedf2+0x80>
   24354:	00e31863          	bne	t1,a4,24364 <__gedf2+0xa4>
   24358:	ffcee4e3          	bltu	t4,t3,24340 <__gedf2+0x80>
   2435c:	00000513          	li	a0,0
   24360:	03de7663          	bgeu	t3,t4,2438c <__gedf2+0xcc>
   24364:	00159513          	slli	a0,a1,0x1
   24368:	fcdff06f          	j	24334 <__gedf2+0x74>
   2436c:	ffe00513          	li	a0,-2
   24370:	00008067          	ret
   24374:	fa079ee3          	bnez	a5,24330 <__gedf2+0x70>
   24378:	fcb694e3          	bne	a3,a1,24340 <__gedf2+0x80>
   2437c:	fd1558e3          	bge	a0,a7,2434c <__gedf2+0x8c>
   24380:	40d006b3          	neg	a3,a3
   24384:	0016e513          	ori	a0,a3,1
   24388:	00008067          	ret
   2438c:	00008067          	ret

00024390 <__ledf2>:
   24390:	0146d793          	srli	a5,a3,0x14
   24394:	0145d893          	srli	a7,a1,0x14
   24398:	00100737          	lui	a4,0x100
   2439c:	fff70713          	addi	a4,a4,-1 # fffff <_heap_end+0xd70a7>
   243a0:	00050813          	mv	a6,a0
   243a4:	00050e13          	mv	t3,a0
   243a8:	7ff8f893          	andi	a7,a7,2047
   243ac:	7ff7f513          	andi	a0,a5,2047
   243b0:	7ff00793          	li	a5,2047
   243b4:	00b77333          	and	t1,a4,a1
   243b8:	00060e93          	mv	t4,a2
   243bc:	00d77733          	and	a4,a4,a3
   243c0:	01f5d593          	srli	a1,a1,0x1f
   243c4:	01f6d693          	srli	a3,a3,0x1f
   243c8:	00f89663          	bne	a7,a5,243d4 <__ledf2+0x44>
   243cc:	01036f33          	or	t5,t1,a6
   243d0:	060f1663          	bnez	t5,2443c <__ledf2+0xac>
   243d4:	00f51663          	bne	a0,a5,243e0 <__ledf2+0x50>
   243d8:	00c767b3          	or	a5,a4,a2
   243dc:	06079063          	bnez	a5,2443c <__ledf2+0xac>
   243e0:	00000793          	li	a5,0
   243e4:	00089663          	bnez	a7,243f0 <__ledf2+0x60>
   243e8:	01036833          	or	a6,t1,a6
   243ec:	00183793          	seqz	a5,a6
   243f0:	04051a63          	bnez	a0,24444 <__ledf2+0xb4>
   243f4:	00c76633          	or	a2,a4,a2
   243f8:	00078a63          	beqz	a5,2440c <__ledf2+0x7c>
   243fc:	06060063          	beqz	a2,2445c <__ledf2+0xcc>
   24400:	00169513          	slli	a0,a3,0x1
   24404:	fff50513          	addi	a0,a0,-1
   24408:	00008067          	ret
   2440c:	02061e63          	bnez	a2,24448 <__ledf2+0xb8>
   24410:	40b005b3          	neg	a1,a1
   24414:	0015e513          	ori	a0,a1,1
   24418:	00008067          	ret
   2441c:	fea8c2e3          	blt	a7,a0,24400 <__ledf2+0x70>
   24420:	fe6768e3          	bltu	a4,t1,24410 <__ledf2+0x80>
   24424:	00e31863          	bne	t1,a4,24434 <__ledf2+0xa4>
   24428:	ffcee4e3          	bltu	t4,t3,24410 <__ledf2+0x80>
   2442c:	00000513          	li	a0,0
   24430:	03de7663          	bgeu	t3,t4,2445c <__ledf2+0xcc>
   24434:	00159513          	slli	a0,a1,0x1
   24438:	fcdff06f          	j	24404 <__ledf2+0x74>
   2443c:	00200513          	li	a0,2
   24440:	00008067          	ret
   24444:	fa079ee3          	bnez	a5,24400 <__ledf2+0x70>
   24448:	fcb694e3          	bne	a3,a1,24410 <__ledf2+0x80>
   2444c:	fd1558e3          	bge	a0,a7,2441c <__ledf2+0x8c>
   24450:	40d006b3          	neg	a3,a3
   24454:	0016e513          	ori	a0,a3,1
   24458:	00008067          	ret
   2445c:	00008067          	ret

00024460 <__muldf3>:
   24460:	fd010113          	addi	sp,sp,-48
   24464:	01712623          	sw	s7,12(sp)
   24468:	0145db93          	srli	s7,a1,0x14
   2446c:	02812423          	sw	s0,40(sp)
   24470:	02912223          	sw	s1,36(sp)
   24474:	01512a23          	sw	s5,20(sp)
   24478:	01612823          	sw	s6,16(sp)
   2447c:	01812423          	sw	s8,8(sp)
   24480:	00c59493          	slli	s1,a1,0xc
   24484:	02112623          	sw	ra,44(sp)
   24488:	03212023          	sw	s2,32(sp)
   2448c:	01312e23          	sw	s3,28(sp)
   24490:	01412c23          	sw	s4,24(sp)
   24494:	01912223          	sw	s9,4(sp)
   24498:	7ffbfb93          	andi	s7,s7,2047
   2449c:	00050413          	mv	s0,a0
   244a0:	00060c13          	mv	s8,a2
   244a4:	00068a93          	mv	s5,a3
   244a8:	00c4d493          	srli	s1,s1,0xc
   244ac:	01f5db13          	srli	s6,a1,0x1f
   244b0:	0c0b8263          	beqz	s7,24574 <__muldf3+0x114>
   244b4:	7ff00793          	li	a5,2047
   244b8:	12fb8463          	beq	s7,a5,245e0 <__muldf3+0x180>
   244bc:	00349493          	slli	s1,s1,0x3
   244c0:	01d55793          	srli	a5,a0,0x1d
   244c4:	0097e7b3          	or	a5,a5,s1
   244c8:	008004b7          	lui	s1,0x800
   244cc:	0097e4b3          	or	s1,a5,s1
   244d0:	00351a13          	slli	s4,a0,0x3
   244d4:	c01b8b93          	addi	s7,s7,-1023
   244d8:	00000c93          	li	s9,0
   244dc:	014ad693          	srli	a3,s5,0x14
   244e0:	00ca9413          	slli	s0,s5,0xc
   244e4:	7ff6f693          	andi	a3,a3,2047
   244e8:	00c45413          	srli	s0,s0,0xc
   244ec:	01fada93          	srli	s5,s5,0x1f
   244f0:	12068063          	beqz	a3,24610 <__muldf3+0x1b0>
   244f4:	7ff00793          	li	a5,2047
   244f8:	18f68463          	beq	a3,a5,24680 <__muldf3+0x220>
   244fc:	00341413          	slli	s0,s0,0x3
   24500:	01dc5793          	srli	a5,s8,0x1d
   24504:	0087e7b3          	or	a5,a5,s0
   24508:	00800437          	lui	s0,0x800
   2450c:	0087e433          	or	s0,a5,s0
   24510:	c0168693          	addi	a3,a3,-1023
   24514:	003c1793          	slli	a5,s8,0x3
   24518:	00000513          	li	a0,0
   2451c:	002c9713          	slli	a4,s9,0x2
   24520:	00db8bb3          	add	s7,s7,a3
   24524:	00a76733          	or	a4,a4,a0
   24528:	00a00693          	li	a3,10
   2452c:	001b8593          	addi	a1,s7,1
   24530:	1ae6c263          	blt	a3,a4,246d4 <__muldf3+0x274>
   24534:	00200813          	li	a6,2
   24538:	015b4633          	xor	a2,s6,s5
   2453c:	00100693          	li	a3,1
   24540:	16e84863          	blt	a6,a4,246b0 <__muldf3+0x250>
   24544:	fff70713          	addi	a4,a4,-1
   24548:	1ae6e663          	bltu	a3,a4,246f4 <__muldf3+0x294>
   2454c:	00050c93          	mv	s9,a0
   24550:	00200713          	li	a4,2
   24554:	4eec8063          	beq	s9,a4,24a34 <__muldf3+0x5d4>
   24558:	00300713          	li	a4,3
   2455c:	4cec8663          	beq	s9,a4,24a28 <__muldf3+0x5c8>
   24560:	00100713          	li	a4,1
   24564:	34ec9463          	bne	s9,a4,248ac <__muldf3+0x44c>
   24568:	00000413          	li	s0,0
   2456c:	00000693          	li	a3,0
   24570:	46c0006f          	j	249dc <__muldf3+0x57c>
   24574:	00a4ea33          	or	s4,s1,a0
   24578:	060a0e63          	beqz	s4,245f4 <__muldf3+0x194>
   2457c:	04048063          	beqz	s1,245bc <__muldf3+0x15c>
   24580:	00048513          	mv	a0,s1
   24584:	059010ef          	jal	25ddc <__clzsi2>
   24588:	ff550713          	addi	a4,a0,-11
   2458c:	01d00793          	li	a5,29
   24590:	ff850693          	addi	a3,a0,-8
   24594:	40e787b3          	sub	a5,a5,a4
   24598:	00d494b3          	sll	s1,s1,a3
   2459c:	00f457b3          	srl	a5,s0,a5
   245a0:	0097e7b3          	or	a5,a5,s1
   245a4:	00d414b3          	sll	s1,s0,a3
   245a8:	c0d00b93          	li	s7,-1011
   245ac:	00048a13          	mv	s4,s1
   245b0:	40ab8bb3          	sub	s7,s7,a0
   245b4:	00078493          	mv	s1,a5
   245b8:	f21ff06f          	j	244d8 <__muldf3+0x78>
   245bc:	021010ef          	jal	25ddc <__clzsi2>
   245c0:	00050793          	mv	a5,a0
   245c4:	01578713          	addi	a4,a5,21
   245c8:	01c00693          	li	a3,28
   245cc:	02050513          	addi	a0,a0,32
   245d0:	fae6dee3          	bge	a3,a4,2458c <__muldf3+0x12c>
   245d4:	ff878793          	addi	a5,a5,-8
   245d8:	00f417b3          	sll	a5,s0,a5
   245dc:	fcdff06f          	j	245a8 <__muldf3+0x148>
   245e0:	00a4ea33          	or	s4,s1,a0
   245e4:	020a1063          	bnez	s4,24604 <__muldf3+0x1a4>
   245e8:	00000493          	li	s1,0
   245ec:	00200c93          	li	s9,2
   245f0:	eedff06f          	j	244dc <__muldf3+0x7c>
   245f4:	00000493          	li	s1,0
   245f8:	00000b93          	li	s7,0
   245fc:	00100c93          	li	s9,1
   24600:	eddff06f          	j	244dc <__muldf3+0x7c>
   24604:	00050a13          	mv	s4,a0
   24608:	00300c93          	li	s9,3
   2460c:	ed1ff06f          	j	244dc <__muldf3+0x7c>
   24610:	018467b3          	or	a5,s0,s8
   24614:	08078063          	beqz	a5,24694 <__muldf3+0x234>
   24618:	04040063          	beqz	s0,24658 <__muldf3+0x1f8>
   2461c:	00040513          	mv	a0,s0
   24620:	7bc010ef          	jal	25ddc <__clzsi2>
   24624:	ff550693          	addi	a3,a0,-11
   24628:	01d00713          	li	a4,29
   2462c:	ff850793          	addi	a5,a0,-8
   24630:	40d70733          	sub	a4,a4,a3
   24634:	00f41433          	sll	s0,s0,a5
   24638:	00ec5733          	srl	a4,s8,a4
   2463c:	00876733          	or	a4,a4,s0
   24640:	00fc1433          	sll	s0,s8,a5
   24644:	c0d00693          	li	a3,-1011
   24648:	00040793          	mv	a5,s0
   2464c:	40a686b3          	sub	a3,a3,a0
   24650:	00070413          	mv	s0,a4
   24654:	ec5ff06f          	j	24518 <__muldf3+0xb8>
   24658:	000c0513          	mv	a0,s8
   2465c:	780010ef          	jal	25ddc <__clzsi2>
   24660:	00050793          	mv	a5,a0
   24664:	01578693          	addi	a3,a5,21
   24668:	01c00713          	li	a4,28
   2466c:	02050513          	addi	a0,a0,32
   24670:	fad75ce3          	bge	a4,a3,24628 <__muldf3+0x1c8>
   24674:	ff878793          	addi	a5,a5,-8
   24678:	00fc1733          	sll	a4,s8,a5
   2467c:	fc9ff06f          	j	24644 <__muldf3+0x1e4>
   24680:	018467b3          	or	a5,s0,s8
   24684:	02079063          	bnez	a5,246a4 <__muldf3+0x244>
   24688:	00000413          	li	s0,0
   2468c:	00200513          	li	a0,2
   24690:	e8dff06f          	j	2451c <__muldf3+0xbc>
   24694:	00000413          	li	s0,0
   24698:	00000693          	li	a3,0
   2469c:	00100513          	li	a0,1
   246a0:	e7dff06f          	j	2451c <__muldf3+0xbc>
   246a4:	000c0793          	mv	a5,s8
   246a8:	00300513          	li	a0,3
   246ac:	e71ff06f          	j	2451c <__muldf3+0xbc>
   246b0:	00e69733          	sll	a4,a3,a4
   246b4:	53077693          	andi	a3,a4,1328
   246b8:	02069863          	bnez	a3,246e8 <__muldf3+0x288>
   246bc:	24077813          	andi	a6,a4,576
   246c0:	34081c63          	bnez	a6,24a18 <__muldf3+0x5b8>
   246c4:	08877713          	andi	a4,a4,136
   246c8:	02070663          	beqz	a4,246f4 <__muldf3+0x294>
   246cc:	000a8613          	mv	a2,s5
   246d0:	e7dff06f          	j	2454c <__muldf3+0xec>
   246d4:	00f00693          	li	a3,15
   246d8:	34d70863          	beq	a4,a3,24a28 <__muldf3+0x5c8>
   246dc:	00b00693          	li	a3,11
   246e0:	000b0613          	mv	a2,s6
   246e4:	fed704e3          	beq	a4,a3,246cc <__muldf3+0x26c>
   246e8:	00048413          	mv	s0,s1
   246ec:	000a0793          	mv	a5,s4
   246f0:	e61ff06f          	j	24550 <__muldf3+0xf0>
   246f4:	010a5693          	srli	a3,s4,0x10
   246f8:	0107d893          	srli	a7,a5,0x10
   246fc:	010a1a13          	slli	s4,s4,0x10
   24700:	01079793          	slli	a5,a5,0x10
   24704:	010a5a13          	srli	s4,s4,0x10
   24708:	0107d793          	srli	a5,a5,0x10
   2470c:	02fa0533          	mul	a0,s4,a5
   24710:	02f68e33          	mul	t3,a3,a5
   24714:	01055813          	srli	a6,a0,0x10
   24718:	03488333          	mul	t1,a7,s4
   2471c:	01c30333          	add	t1,t1,t3
   24720:	00680833          	add	a6,a6,t1
   24724:	03168733          	mul	a4,a3,a7
   24728:	01c87663          	bgeu	a6,t3,24734 <__muldf3+0x2d4>
   2472c:	00010337          	lui	t1,0x10
   24730:	00670733          	add	a4,a4,t1
   24734:	01051513          	slli	a0,a0,0x10
   24738:	01055513          	srli	a0,a0,0x10
   2473c:	01085f93          	srli	t6,a6,0x10
   24740:	01081813          	slli	a6,a6,0x10
   24744:	00a80833          	add	a6,a6,a0
   24748:	01045513          	srli	a0,s0,0x10
   2474c:	01041413          	slli	s0,s0,0x10
   24750:	01045413          	srli	s0,s0,0x10
   24754:	028a0e33          	mul	t3,s4,s0
   24758:	02868eb3          	mul	t4,a3,s0
   2475c:	010e5313          	srli	t1,t3,0x10
   24760:	03450a33          	mul	s4,a0,s4
   24764:	01da0a33          	add	s4,s4,t4
   24768:	01430333          	add	t1,t1,s4
   2476c:	02a686b3          	mul	a3,a3,a0
   24770:	01d37663          	bgeu	t1,t4,2477c <__muldf3+0x31c>
   24774:	00010eb7          	lui	t4,0x10
   24778:	01d686b3          	add	a3,a3,t4
   2477c:	01035f13          	srli	t5,t1,0x10
   24780:	00df0f33          	add	t5,t5,a3
   24784:	01031693          	slli	a3,t1,0x10
   24788:	0104d313          	srli	t1,s1,0x10
   2478c:	01049493          	slli	s1,s1,0x10
   24790:	0104d493          	srli	s1,s1,0x10
   24794:	02f48eb3          	mul	t4,s1,a5
   24798:	010e1e13          	slli	t3,t3,0x10
   2479c:	010e5e13          	srli	t3,t3,0x10
   247a0:	01c686b3          	add	a3,a3,t3
   247a4:	00df8fb3          	add	t6,t6,a3
   247a8:	02f307b3          	mul	a5,t1,a5
   247ac:	010ede13          	srli	t3,t4,0x10
   247b0:	026882b3          	mul	t0,a7,t1
   247b4:	029888b3          	mul	a7,a7,s1
   247b8:	00f888b3          	add	a7,a7,a5
   247bc:	011e08b3          	add	a7,t3,a7
   247c0:	00f8f663          	bgeu	a7,a5,247cc <__muldf3+0x36c>
   247c4:	000107b7          	lui	a5,0x10
   247c8:	00f282b3          	add	t0,t0,a5
   247cc:	028487b3          	mul	a5,s1,s0
   247d0:	010e9e93          	slli	t4,t4,0x10
   247d4:	0108de13          	srli	t3,a7,0x10
   247d8:	010ede93          	srli	t4,t4,0x10
   247dc:	01089893          	slli	a7,a7,0x10
   247e0:	01d888b3          	add	a7,a7,t4
   247e4:	005e0e33          	add	t3,t3,t0
   247e8:	02830433          	mul	s0,t1,s0
   247ec:	0107de93          	srli	t4,a5,0x10
   247f0:	02650333          	mul	t1,a0,t1
   247f4:	02950533          	mul	a0,a0,s1
   247f8:	00850533          	add	a0,a0,s0
   247fc:	00ae8eb3          	add	t4,t4,a0
   24800:	008ef663          	bgeu	t4,s0,2480c <__muldf3+0x3ac>
   24804:	00010537          	lui	a0,0x10
   24808:	00a30333          	add	t1,t1,a0
   2480c:	01079793          	slli	a5,a5,0x10
   24810:	010e9513          	slli	a0,t4,0x10
   24814:	0107d793          	srli	a5,a5,0x10
   24818:	01f70733          	add	a4,a4,t6
   2481c:	00f50533          	add	a0,a0,a5
   24820:	01e50f33          	add	t5,a0,t5
   24824:	00d737b3          	sltu	a5,a4,a3
   24828:	00ff07b3          	add	a5,t5,a5
   2482c:	011708b3          	add	a7,a4,a7
   24830:	01c78e33          	add	t3,a5,t3
   24834:	00e8b6b3          	sltu	a3,a7,a4
   24838:	00de06b3          	add	a3,t3,a3
   2483c:	00af3533          	sltu	a0,t5,a0
   24840:	01e7bf33          	sltu	t5,a5,t5
   24844:	00fe3733          	sltu	a4,t3,a5
   24848:	01e56533          	or	a0,a0,t5
   2484c:	01c6be33          	sltu	t3,a3,t3
   24850:	010ede93          	srli	t4,t4,0x10
   24854:	00989793          	slli	a5,a7,0x9
   24858:	01d50533          	add	a0,a0,t4
   2485c:	01c76733          	or	a4,a4,t3
   24860:	00a70733          	add	a4,a4,a0
   24864:	0107e7b3          	or	a5,a5,a6
   24868:	00670733          	add	a4,a4,t1
   2486c:	00f037b3          	snez	a5,a5
   24870:	0178d893          	srli	a7,a7,0x17
   24874:	00971713          	slli	a4,a4,0x9
   24878:	0176d413          	srli	s0,a3,0x17
   2487c:	0117e7b3          	or	a5,a5,a7
   24880:	00969693          	slli	a3,a3,0x9
   24884:	00d7e7b3          	or	a5,a5,a3
   24888:	00771693          	slli	a3,a4,0x7
   2488c:	00876433          	or	s0,a4,s0
   24890:	0c06d663          	bgez	a3,2495c <__muldf3+0x4fc>
   24894:	0017d713          	srli	a4,a5,0x1
   24898:	0017f793          	andi	a5,a5,1
   2489c:	00f76733          	or	a4,a4,a5
   248a0:	01f41793          	slli	a5,s0,0x1f
   248a4:	00f767b3          	or	a5,a4,a5
   248a8:	00145413          	srli	s0,s0,0x1
   248ac:	3ff58713          	addi	a4,a1,1023
   248b0:	0ae05a63          	blez	a4,24964 <__muldf3+0x504>
   248b4:	0077f693          	andi	a3,a5,7
   248b8:	02068063          	beqz	a3,248d8 <__muldf3+0x478>
   248bc:	00f7f693          	andi	a3,a5,15
   248c0:	00400513          	li	a0,4
   248c4:	00a68a63          	beq	a3,a0,248d8 <__muldf3+0x478>
   248c8:	00a786b3          	add	a3,a5,a0
   248cc:	00f6b533          	sltu	a0,a3,a5
   248d0:	00a40433          	add	s0,s0,a0
   248d4:	00068793          	mv	a5,a3
   248d8:	00741693          	slli	a3,s0,0x7
   248dc:	0006da63          	bgez	a3,248f0 <__muldf3+0x490>
   248e0:	ff000737          	lui	a4,0xff000
   248e4:	fff70713          	addi	a4,a4,-1 # feffffff <_heap_end+0xfefd70a7>
   248e8:	00e47433          	and	s0,s0,a4
   248ec:	40058713          	addi	a4,a1,1024
   248f0:	7fe00693          	li	a3,2046
   248f4:	14e6c063          	blt	a3,a4,24a34 <__muldf3+0x5d4>
   248f8:	01d41693          	slli	a3,s0,0x1d
   248fc:	0037d793          	srli	a5,a5,0x3
   24900:	00f6e6b3          	or	a3,a3,a5
   24904:	00345413          	srli	s0,s0,0x3
   24908:	00c41413          	slli	s0,s0,0xc
   2490c:	00c45413          	srli	s0,s0,0xc
   24910:	01471713          	slli	a4,a4,0x14
   24914:	02c12083          	lw	ra,44(sp)
   24918:	00876733          	or	a4,a4,s0
   2491c:	02812403          	lw	s0,40(sp)
   24920:	01f61613          	slli	a2,a2,0x1f
   24924:	00c767b3          	or	a5,a4,a2
   24928:	02412483          	lw	s1,36(sp)
   2492c:	02012903          	lw	s2,32(sp)
   24930:	01c12983          	lw	s3,28(sp)
   24934:	01812a03          	lw	s4,24(sp)
   24938:	01412a83          	lw	s5,20(sp)
   2493c:	01012b03          	lw	s6,16(sp)
   24940:	00c12b83          	lw	s7,12(sp)
   24944:	00812c03          	lw	s8,8(sp)
   24948:	00412c83          	lw	s9,4(sp)
   2494c:	00068513          	mv	a0,a3
   24950:	00078593          	mv	a1,a5
   24954:	03010113          	addi	sp,sp,48
   24958:	00008067          	ret
   2495c:	000b8593          	mv	a1,s7
   24960:	f4dff06f          	j	248ac <__muldf3+0x44c>
   24964:	00100513          	li	a0,1
   24968:	00070c63          	beqz	a4,24980 <__muldf3+0x520>
   2496c:	40e50533          	sub	a0,a0,a4
   24970:	03800693          	li	a3,56
   24974:	bea6cae3          	blt	a3,a0,24568 <__muldf3+0x108>
   24978:	01f00693          	li	a3,31
   2497c:	06a6c463          	blt	a3,a0,249e4 <__muldf3+0x584>
   24980:	41e58593          	addi	a1,a1,1054
   24984:	00a7d733          	srl	a4,a5,a0
   24988:	00b797b3          	sll	a5,a5,a1
   2498c:	00f037b3          	snez	a5,a5
   24990:	00b415b3          	sll	a1,s0,a1
   24994:	00b7e7b3          	or	a5,a5,a1
   24998:	00f767b3          	or	a5,a4,a5
   2499c:	00a45433          	srl	s0,s0,a0
   249a0:	0077f713          	andi	a4,a5,7
   249a4:	02070063          	beqz	a4,249c4 <__muldf3+0x564>
   249a8:	00f7f713          	andi	a4,a5,15
   249ac:	00400693          	li	a3,4
   249b0:	00d70a63          	beq	a4,a3,249c4 <__muldf3+0x564>
   249b4:	00d78733          	add	a4,a5,a3
   249b8:	00f736b3          	sltu	a3,a4,a5
   249bc:	00d40433          	add	s0,s0,a3
   249c0:	00070793          	mv	a5,a4
   249c4:	00841713          	slli	a4,s0,0x8
   249c8:	06074e63          	bltz	a4,24a44 <__muldf3+0x5e4>
   249cc:	01d41693          	slli	a3,s0,0x1d
   249d0:	0037d793          	srli	a5,a5,0x3
   249d4:	00f6e6b3          	or	a3,a3,a5
   249d8:	00345413          	srli	s0,s0,0x3
   249dc:	00000713          	li	a4,0
   249e0:	f29ff06f          	j	24908 <__muldf3+0x4a8>
   249e4:	fe100693          	li	a3,-31
   249e8:	40e68733          	sub	a4,a3,a4
   249ec:	02000813          	li	a6,32
   249f0:	00e45733          	srl	a4,s0,a4
   249f4:	00000693          	li	a3,0
   249f8:	01050663          	beq	a0,a6,24a04 <__muldf3+0x5a4>
   249fc:	43e58593          	addi	a1,a1,1086
   24a00:	00b416b3          	sll	a3,s0,a1
   24a04:	00f6e6b3          	or	a3,a3,a5
   24a08:	00d036b3          	snez	a3,a3
   24a0c:	00d767b3          	or	a5,a4,a3
   24a10:	00000413          	li	s0,0
   24a14:	f8dff06f          	j	249a0 <__muldf3+0x540>
   24a18:	00080437          	lui	s0,0x80
   24a1c:	7ff00713          	li	a4,2047
   24a20:	00000613          	li	a2,0
   24a24:	ee5ff06f          	j	24908 <__muldf3+0x4a8>
   24a28:	00080437          	lui	s0,0x80
   24a2c:	00000693          	li	a3,0
   24a30:	fedff06f          	j	24a1c <__muldf3+0x5bc>
   24a34:	00000413          	li	s0,0
   24a38:	00000693          	li	a3,0
   24a3c:	7ff00713          	li	a4,2047
   24a40:	ec9ff06f          	j	24908 <__muldf3+0x4a8>
   24a44:	00000413          	li	s0,0
   24a48:	00000693          	li	a3,0
   24a4c:	00100713          	li	a4,1
   24a50:	eb9ff06f          	j	24908 <__muldf3+0x4a8>

00024a54 <__subdf3>:
   24a54:	00100837          	lui	a6,0x100
   24a58:	fff80813          	addi	a6,a6,-1 # fffff <_heap_end+0xd70a7>
   24a5c:	fe010113          	addi	sp,sp,-32
   24a60:	00b878b3          	and	a7,a6,a1
   24a64:	0145d713          	srli	a4,a1,0x14
   24a68:	01d55793          	srli	a5,a0,0x1d
   24a6c:	00d87833          	and	a6,a6,a3
   24a70:	01412423          	sw	s4,8(sp)
   24a74:	7ff77a13          	andi	s4,a4,2047
   24a78:	00389713          	slli	a4,a7,0x3
   24a7c:	0146d893          	srli	a7,a3,0x14
   24a80:	01312623          	sw	s3,12(sp)
   24a84:	00e7e7b3          	or	a5,a5,a4
   24a88:	01f5d993          	srli	s3,a1,0x1f
   24a8c:	00381813          	slli	a6,a6,0x3
   24a90:	01d65593          	srli	a1,a2,0x1d
   24a94:	00112e23          	sw	ra,28(sp)
   24a98:	00812c23          	sw	s0,24(sp)
   24a9c:	00912a23          	sw	s1,20(sp)
   24aa0:	01212823          	sw	s2,16(sp)
   24aa4:	01512223          	sw	s5,4(sp)
   24aa8:	7ff8f893          	andi	a7,a7,2047
   24aac:	7ff00713          	li	a4,2047
   24ab0:	00351513          	slli	a0,a0,0x3
   24ab4:	01f6d693          	srli	a3,a3,0x1f
   24ab8:	0105e5b3          	or	a1,a1,a6
   24abc:	00361613          	slli	a2,a2,0x3
   24ac0:	00e89663          	bne	a7,a4,24acc <__subdf3+0x78>
   24ac4:	00c5e733          	or	a4,a1,a2
   24ac8:	00071463          	bnez	a4,24ad0 <__subdf3+0x7c>
   24acc:	0016c693          	xori	a3,a3,1
   24ad0:	411a0833          	sub	a6,s4,a7
   24ad4:	7ff00313          	li	t1,2047
   24ad8:	33369663          	bne	a3,s3,24e04 <__subdf3+0x3b0>
   24adc:	17005e63          	blez	a6,24c58 <__subdf3+0x204>
   24ae0:	0a089863          	bnez	a7,24b90 <__subdf3+0x13c>
   24ae4:	00c5e733          	or	a4,a1,a2
   24ae8:	02070663          	beqz	a4,24b14 <__subdf3+0xc0>
   24aec:	fffa0813          	addi	a6,s4,-1
   24af0:	02081063          	bnez	a6,24b10 <__subdf3+0xbc>
   24af4:	00c50633          	add	a2,a0,a2
   24af8:	00a63733          	sltu	a4,a2,a0
   24afc:	00b786b3          	add	a3,a5,a1
   24b00:	00060513          	mv	a0,a2
   24b04:	00e687b3          	add	a5,a3,a4
   24b08:	00100a13          	li	s4,1
   24b0c:	0d40006f          	j	24be0 <__subdf3+0x18c>
   24b10:	086a1663          	bne	s4,t1,24b9c <__subdf3+0x148>
   24b14:	01d79693          	slli	a3,a5,0x1d
   24b18:	00355513          	srli	a0,a0,0x3
   24b1c:	7ff00713          	li	a4,2047
   24b20:	00a6e6b3          	or	a3,a3,a0
   24b24:	0037d793          	srli	a5,a5,0x3
   24b28:	00ea1e63          	bne	s4,a4,24b44 <__subdf3+0xf0>
   24b2c:	00f6e6b3          	or	a3,a3,a5
   24b30:	00000793          	li	a5,0
   24b34:	00068863          	beqz	a3,24b44 <__subdf3+0xf0>
   24b38:	000807b7          	lui	a5,0x80
   24b3c:	00000693          	li	a3,0
   24b40:	00000993          	li	s3,0
   24b44:	014a1713          	slli	a4,s4,0x14
   24b48:	7ff00637          	lui	a2,0x7ff00
   24b4c:	00c79793          	slli	a5,a5,0xc
   24b50:	00c77733          	and	a4,a4,a2
   24b54:	01c12083          	lw	ra,28(sp)
   24b58:	01812403          	lw	s0,24(sp)
   24b5c:	00c7d793          	srli	a5,a5,0xc
   24b60:	00f767b3          	or	a5,a4,a5
   24b64:	01f99713          	slli	a4,s3,0x1f
   24b68:	00e7e633          	or	a2,a5,a4
   24b6c:	01412483          	lw	s1,20(sp)
   24b70:	01012903          	lw	s2,16(sp)
   24b74:	00c12983          	lw	s3,12(sp)
   24b78:	00812a03          	lw	s4,8(sp)
   24b7c:	00412a83          	lw	s5,4(sp)
   24b80:	00068513          	mv	a0,a3
   24b84:	00060593          	mv	a1,a2
   24b88:	02010113          	addi	sp,sp,32
   24b8c:	00008067          	ret
   24b90:	f86a02e3          	beq	s4,t1,24b14 <__subdf3+0xc0>
   24b94:	00800737          	lui	a4,0x800
   24b98:	00e5e5b3          	or	a1,a1,a4
   24b9c:	03800713          	li	a4,56
   24ba0:	0b074663          	blt	a4,a6,24c4c <__subdf3+0x1f8>
   24ba4:	01f00713          	li	a4,31
   24ba8:	02000893          	li	a7,32
   24bac:	07074863          	blt	a4,a6,24c1c <__subdf3+0x1c8>
   24bb0:	410888b3          	sub	a7,a7,a6
   24bb4:	01159733          	sll	a4,a1,a7
   24bb8:	010656b3          	srl	a3,a2,a6
   24bbc:	011618b3          	sll	a7,a2,a7
   24bc0:	00d76733          	or	a4,a4,a3
   24bc4:	011038b3          	snez	a7,a7
   24bc8:	01176733          	or	a4,a4,a7
   24bcc:	0105d833          	srl	a6,a1,a6
   24bd0:	00a70533          	add	a0,a4,a0
   24bd4:	00f80833          	add	a6,a6,a5
   24bd8:	00e53733          	sltu	a4,a0,a4
   24bdc:	00e807b3          	add	a5,a6,a4
   24be0:	00879713          	slli	a4,a5,0x8
   24be4:	1c075c63          	bgez	a4,24dbc <__subdf3+0x368>
   24be8:	001a0a13          	addi	s4,s4,1
   24bec:	7ff00713          	li	a4,2047
   24bf0:	5cea0263          	beq	s4,a4,251b4 <__subdf3+0x760>
   24bf4:	ff800737          	lui	a4,0xff800
   24bf8:	fff70713          	addi	a4,a4,-1 # ff7fffff <_heap_end+0xff7d70a7>
   24bfc:	00e7f7b3          	and	a5,a5,a4
   24c00:	00155713          	srli	a4,a0,0x1
   24c04:	00157513          	andi	a0,a0,1
   24c08:	00a76733          	or	a4,a4,a0
   24c0c:	01f79513          	slli	a0,a5,0x1f
   24c10:	00e56533          	or	a0,a0,a4
   24c14:	0017d793          	srli	a5,a5,0x1
   24c18:	1a40006f          	j	24dbc <__subdf3+0x368>
   24c1c:	fe080713          	addi	a4,a6,-32
   24c20:	00e5d733          	srl	a4,a1,a4
   24c24:	00000693          	li	a3,0
   24c28:	01180863          	beq	a6,a7,24c38 <__subdf3+0x1e4>
   24c2c:	04000693          	li	a3,64
   24c30:	410686b3          	sub	a3,a3,a6
   24c34:	00d596b3          	sll	a3,a1,a3
   24c38:	00c6e6b3          	or	a3,a3,a2
   24c3c:	00d036b3          	snez	a3,a3
   24c40:	00d76733          	or	a4,a4,a3
   24c44:	00000813          	li	a6,0
   24c48:	f89ff06f          	j	24bd0 <__subdf3+0x17c>
   24c4c:	00c5e733          	or	a4,a1,a2
   24c50:	00e03733          	snez	a4,a4
   24c54:	ff1ff06f          	j	24c44 <__subdf3+0x1f0>
   24c58:	0c080663          	beqz	a6,24d24 <__subdf3+0x2d0>
   24c5c:	41488733          	sub	a4,a7,s4
   24c60:	020a1463          	bnez	s4,24c88 <__subdf3+0x234>
   24c64:	00a7e6b3          	or	a3,a5,a0
   24c68:	00068863          	beqz	a3,24c78 <__subdf3+0x224>
   24c6c:	fff70693          	addi	a3,a4,-1
   24c70:	e80682e3          	beqz	a3,24af4 <__subdf3+0xa0>
   24c74:	02671263          	bne	a4,t1,24c98 <__subdf3+0x244>
   24c78:	00058793          	mv	a5,a1
   24c7c:	00060513          	mv	a0,a2
   24c80:	00070a13          	mv	s4,a4
   24c84:	e91ff06f          	j	24b14 <__subdf3+0xc0>
   24c88:	52688c63          	beq	a7,t1,251c0 <__subdf3+0x76c>
   24c8c:	008006b7          	lui	a3,0x800
   24c90:	00d7e7b3          	or	a5,a5,a3
   24c94:	00070693          	mv	a3,a4
   24c98:	03800713          	li	a4,56
   24c9c:	06d74e63          	blt	a4,a3,24d18 <__subdf3+0x2c4>
   24ca0:	01f00713          	li	a4,31
   24ca4:	02000313          	li	t1,32
   24ca8:	04d74063          	blt	a4,a3,24ce8 <__subdf3+0x294>
   24cac:	40d30333          	sub	t1,t1,a3
   24cb0:	00679733          	sll	a4,a5,t1
   24cb4:	00d55833          	srl	a6,a0,a3
   24cb8:	00651333          	sll	t1,a0,t1
   24cbc:	01076733          	or	a4,a4,a6
   24cc0:	00603333          	snez	t1,t1
   24cc4:	00676733          	or	a4,a4,t1
   24cc8:	00d7d6b3          	srl	a3,a5,a3
   24ccc:	00c70633          	add	a2,a4,a2
   24cd0:	00b686b3          	add	a3,a3,a1
   24cd4:	00e63733          	sltu	a4,a2,a4
   24cd8:	00060513          	mv	a0,a2
   24cdc:	00e687b3          	add	a5,a3,a4
   24ce0:	00088a13          	mv	s4,a7
   24ce4:	efdff06f          	j	24be0 <__subdf3+0x18c>
   24ce8:	fe068713          	addi	a4,a3,-32 # 7fffe0 <_heap_end+0x7d7088>
   24cec:	00e7d733          	srl	a4,a5,a4
   24cf0:	00000813          	li	a6,0
   24cf4:	00668863          	beq	a3,t1,24d04 <__subdf3+0x2b0>
   24cf8:	04000813          	li	a6,64
   24cfc:	40d80833          	sub	a6,a6,a3
   24d00:	01079833          	sll	a6,a5,a6
   24d04:	00a86833          	or	a6,a6,a0
   24d08:	01003833          	snez	a6,a6
   24d0c:	01076733          	or	a4,a4,a6
   24d10:	00000693          	li	a3,0
   24d14:	fb9ff06f          	j	24ccc <__subdf3+0x278>
   24d18:	00a7e733          	or	a4,a5,a0
   24d1c:	00e03733          	snez	a4,a4
   24d20:	ff1ff06f          	j	24d10 <__subdf3+0x2bc>
   24d24:	001a0713          	addi	a4,s4,1
   24d28:	7fe77693          	andi	a3,a4,2046
   24d2c:	06069463          	bnez	a3,24d94 <__subdf3+0x340>
   24d30:	00a7e733          	or	a4,a5,a0
   24d34:	040a1063          	bnez	s4,24d74 <__subdf3+0x320>
   24d38:	2c070063          	beqz	a4,24ff8 <__subdf3+0x5a4>
   24d3c:	00c5e733          	or	a4,a1,a2
   24d40:	44070a63          	beqz	a4,25194 <__subdf3+0x740>
   24d44:	00c50633          	add	a2,a0,a2
   24d48:	00b786b3          	add	a3,a5,a1
   24d4c:	00a63533          	sltu	a0,a2,a0
   24d50:	00a685b3          	add	a1,a3,a0
   24d54:	00859793          	slli	a5,a1,0x8
   24d58:	2a07d063          	bgez	a5,24ff8 <__subdf3+0x5a4>
   24d5c:	ff8007b7          	lui	a5,0xff800
   24d60:	fff78793          	addi	a5,a5,-1 # ff7fffff <_heap_end+0xff7d70a7>
   24d64:	00f5f7b3          	and	a5,a1,a5
   24d68:	00060513          	mv	a0,a2
   24d6c:	00100a13          	li	s4,1
   24d70:	da5ff06f          	j	24b14 <__subdf3+0xc0>
   24d74:	42070663          	beqz	a4,251a0 <__subdf3+0x74c>
   24d78:	00c5e633          	or	a2,a1,a2
   24d7c:	00030a13          	mv	s4,t1
   24d80:	d8060ae3          	beqz	a2,24b14 <__subdf3+0xc0>
   24d84:	00000993          	li	s3,0
   24d88:	004007b7          	lui	a5,0x400
   24d8c:	00000513          	li	a0,0
   24d90:	d85ff06f          	j	24b14 <__subdf3+0xc0>
   24d94:	40670e63          	beq	a4,t1,251b0 <__subdf3+0x75c>
   24d98:	00c50633          	add	a2,a0,a2
   24d9c:	00a63533          	sltu	a0,a2,a0
   24da0:	00b786b3          	add	a3,a5,a1
   24da4:	00a686b3          	add	a3,a3,a0
   24da8:	01f69513          	slli	a0,a3,0x1f
   24dac:	00165613          	srli	a2,a2,0x1
   24db0:	00c56533          	or	a0,a0,a2
   24db4:	0016d793          	srli	a5,a3,0x1
   24db8:	00070a13          	mv	s4,a4
   24dbc:	00757713          	andi	a4,a0,7
   24dc0:	02070063          	beqz	a4,24de0 <__subdf3+0x38c>
   24dc4:	00f57713          	andi	a4,a0,15
   24dc8:	00400693          	li	a3,4
   24dcc:	00d70a63          	beq	a4,a3,24de0 <__subdf3+0x38c>
   24dd0:	00d50733          	add	a4,a0,a3
   24dd4:	00a736b3          	sltu	a3,a4,a0
   24dd8:	00d787b3          	add	a5,a5,a3
   24ddc:	00070513          	mv	a0,a4
   24de0:	00879713          	slli	a4,a5,0x8
   24de4:	d20758e3          	bgez	a4,24b14 <__subdf3+0xc0>
   24de8:	001a0a13          	addi	s4,s4,1
   24dec:	7ff00713          	li	a4,2047
   24df0:	3cea0263          	beq	s4,a4,251b4 <__subdf3+0x760>
   24df4:	ff800737          	lui	a4,0xff800
   24df8:	fff70713          	addi	a4,a4,-1 # ff7fffff <_heap_end+0xff7d70a7>
   24dfc:	00e7f7b3          	and	a5,a5,a4
   24e00:	d15ff06f          	j	24b14 <__subdf3+0xc0>
   24e04:	0f005463          	blez	a6,24eec <__subdf3+0x498>
   24e08:	08089c63          	bnez	a7,24ea0 <__subdf3+0x44c>
   24e0c:	00c5e733          	or	a4,a1,a2
   24e10:	d00702e3          	beqz	a4,24b14 <__subdf3+0xc0>
   24e14:	fffa0813          	addi	a6,s4,-1
   24e18:	02081063          	bnez	a6,24e38 <__subdf3+0x3e4>
   24e1c:	40c50633          	sub	a2,a0,a2
   24e20:	00c53733          	sltu	a4,a0,a2
   24e24:	40b786b3          	sub	a3,a5,a1
   24e28:	00060513          	mv	a0,a2
   24e2c:	40e687b3          	sub	a5,a3,a4
   24e30:	00100a13          	li	s4,1
   24e34:	0500006f          	j	24e84 <__subdf3+0x430>
   24e38:	cc6a0ee3          	beq	s4,t1,24b14 <__subdf3+0xc0>
   24e3c:	03800713          	li	a4,56
   24e40:	0b074063          	blt	a4,a6,24ee0 <__subdf3+0x48c>
   24e44:	01f00713          	li	a4,31
   24e48:	02000893          	li	a7,32
   24e4c:	07074263          	blt	a4,a6,24eb0 <__subdf3+0x45c>
   24e50:	410888b3          	sub	a7,a7,a6
   24e54:	01159733          	sll	a4,a1,a7
   24e58:	010656b3          	srl	a3,a2,a6
   24e5c:	011618b3          	sll	a7,a2,a7
   24e60:	00d76733          	or	a4,a4,a3
   24e64:	011038b3          	snez	a7,a7
   24e68:	01176733          	or	a4,a4,a7
   24e6c:	0105d833          	srl	a6,a1,a6
   24e70:	40e50733          	sub	a4,a0,a4
   24e74:	00e536b3          	sltu	a3,a0,a4
   24e78:	41078833          	sub	a6,a5,a6
   24e7c:	00070513          	mv	a0,a4
   24e80:	40d807b3          	sub	a5,a6,a3
   24e84:	00879713          	slli	a4,a5,0x8
   24e88:	f2075ae3          	bgez	a4,24dbc <__subdf3+0x368>
   24e8c:	00800937          	lui	s2,0x800
   24e90:	fff90913          	addi	s2,s2,-1 # 7fffff <_heap_end+0x7d70a7>
   24e94:	0127f933          	and	s2,a5,s2
   24e98:	00050a93          	mv	s5,a0
   24e9c:	2140006f          	j	250b0 <__subdf3+0x65c>
   24ea0:	c66a0ae3          	beq	s4,t1,24b14 <__subdf3+0xc0>
   24ea4:	00800737          	lui	a4,0x800
   24ea8:	00e5e5b3          	or	a1,a1,a4
   24eac:	f91ff06f          	j	24e3c <__subdf3+0x3e8>
   24eb0:	fe080713          	addi	a4,a6,-32
   24eb4:	00e5d733          	srl	a4,a1,a4
   24eb8:	00000693          	li	a3,0
   24ebc:	01180863          	beq	a6,a7,24ecc <__subdf3+0x478>
   24ec0:	04000693          	li	a3,64
   24ec4:	410686b3          	sub	a3,a3,a6
   24ec8:	00d596b3          	sll	a3,a1,a3
   24ecc:	00c6e6b3          	or	a3,a3,a2
   24ed0:	00d036b3          	snez	a3,a3
   24ed4:	00d76733          	or	a4,a4,a3
   24ed8:	00000813          	li	a6,0
   24edc:	f95ff06f          	j	24e70 <__subdf3+0x41c>
   24ee0:	00c5e733          	or	a4,a1,a2
   24ee4:	00e03733          	snez	a4,a4
   24ee8:	ff1ff06f          	j	24ed8 <__subdf3+0x484>
   24eec:	0e080463          	beqz	a6,24fd4 <__subdf3+0x580>
   24ef0:	41488833          	sub	a6,a7,s4
   24ef4:	040a1263          	bnez	s4,24f38 <__subdf3+0x4e4>
   24ef8:	00a7e733          	or	a4,a5,a0
   24efc:	02070463          	beqz	a4,24f24 <__subdf3+0x4d0>
   24f00:	fff80713          	addi	a4,a6,-1
   24f04:	00071e63          	bnez	a4,24f20 <__subdf3+0x4cc>
   24f08:	40a60533          	sub	a0,a2,a0
   24f0c:	40f585b3          	sub	a1,a1,a5
   24f10:	00a63633          	sltu	a2,a2,a0
   24f14:	40c587b3          	sub	a5,a1,a2
   24f18:	00068993          	mv	s3,a3
   24f1c:	f15ff06f          	j	24e30 <__subdf3+0x3dc>
   24f20:	02681463          	bne	a6,t1,24f48 <__subdf3+0x4f4>
   24f24:	00068993          	mv	s3,a3
   24f28:	00058793          	mv	a5,a1
   24f2c:	00060513          	mv	a0,a2
   24f30:	00080a13          	mv	s4,a6
   24f34:	be1ff06f          	j	24b14 <__subdf3+0xc0>
   24f38:	28688263          	beq	a7,t1,251bc <__subdf3+0x768>
   24f3c:	00800737          	lui	a4,0x800
   24f40:	00e7e7b3          	or	a5,a5,a4
   24f44:	00080713          	mv	a4,a6
   24f48:	03800813          	li	a6,56
   24f4c:	06e84e63          	blt	a6,a4,24fc8 <__subdf3+0x574>
   24f50:	01f00813          	li	a6,31
   24f54:	02000e13          	li	t3,32
   24f58:	04e84063          	blt	a6,a4,24f98 <__subdf3+0x544>
   24f5c:	40ee0e33          	sub	t3,t3,a4
   24f60:	00e55333          	srl	t1,a0,a4
   24f64:	01c79833          	sll	a6,a5,t3
   24f68:	01c51e33          	sll	t3,a0,t3
   24f6c:	00686833          	or	a6,a6,t1
   24f70:	01c03e33          	snez	t3,t3
   24f74:	01c86533          	or	a0,a6,t3
   24f78:	00e7d733          	srl	a4,a5,a4
   24f7c:	40a60533          	sub	a0,a2,a0
   24f80:	40e58733          	sub	a4,a1,a4
   24f84:	00a63633          	sltu	a2,a2,a0
   24f88:	40c707b3          	sub	a5,a4,a2
   24f8c:	00088a13          	mv	s4,a7
   24f90:	00068993          	mv	s3,a3
   24f94:	ef1ff06f          	j	24e84 <__subdf3+0x430>
   24f98:	fe070813          	addi	a6,a4,-32 # 7fffe0 <_heap_end+0x7d7088>
   24f9c:	0107d833          	srl	a6,a5,a6
   24fa0:	00000313          	li	t1,0
   24fa4:	01c70863          	beq	a4,t3,24fb4 <__subdf3+0x560>
   24fa8:	04000313          	li	t1,64
   24fac:	40e30333          	sub	t1,t1,a4
   24fb0:	00679333          	sll	t1,a5,t1
   24fb4:	00a36333          	or	t1,t1,a0
   24fb8:	00603333          	snez	t1,t1
   24fbc:	00686533          	or	a0,a6,t1
   24fc0:	00000713          	li	a4,0
   24fc4:	fb9ff06f          	j	24f7c <__subdf3+0x528>
   24fc8:	00a7e533          	or	a0,a5,a0
   24fcc:	00a03533          	snez	a0,a0
   24fd0:	ff1ff06f          	j	24fc0 <__subdf3+0x56c>
   24fd4:	001a0713          	addi	a4,s4,1
   24fd8:	7fe77713          	andi	a4,a4,2046
   24fdc:	0a071263          	bnez	a4,25080 <__subdf3+0x62c>
   24fe0:	00c5e733          	or	a4,a1,a2
   24fe4:	00a7e833          	or	a6,a5,a0
   24fe8:	060a1863          	bnez	s4,25058 <__subdf3+0x604>
   24fec:	02081263          	bnez	a6,25010 <__subdf3+0x5bc>
   24ff0:	1e070063          	beqz	a4,251d0 <__subdf3+0x77c>
   24ff4:	00068993          	mv	s3,a3
   24ff8:	00b66533          	or	a0,a2,a1
   24ffc:	12050263          	beqz	a0,25120 <__subdf3+0x6cc>
   25000:	00058793          	mv	a5,a1
   25004:	00060513          	mv	a0,a2
   25008:	00000a13          	li	s4,0
   2500c:	db1ff06f          	j	24dbc <__subdf3+0x368>
   25010:	18070263          	beqz	a4,25194 <__subdf3+0x740>
   25014:	40c50833          	sub	a6,a0,a2
   25018:	010538b3          	sltu	a7,a0,a6
   2501c:	40b78733          	sub	a4,a5,a1
   25020:	41170733          	sub	a4,a4,a7
   25024:	00871893          	slli	a7,a4,0x8
   25028:	0008de63          	bgez	a7,25044 <__subdf3+0x5f0>
   2502c:	40a60533          	sub	a0,a2,a0
   25030:	00a63733          	sltu	a4,a2,a0
   25034:	40f585b3          	sub	a1,a1,a5
   25038:	00050613          	mv	a2,a0
   2503c:	40e585b3          	sub	a1,a1,a4
   25040:	fb5ff06f          	j	24ff4 <__subdf3+0x5a0>
   25044:	00e86533          	or	a0,a6,a4
   25048:	18050863          	beqz	a0,251d8 <__subdf3+0x784>
   2504c:	00070593          	mv	a1,a4
   25050:	00080613          	mv	a2,a6
   25054:	fa5ff06f          	j	24ff8 <__subdf3+0x5a4>
   25058:	00081e63          	bnez	a6,25074 <__subdf3+0x620>
   2505c:	00068993          	mv	s3,a3
   25060:	14071063          	bnez	a4,251a0 <__subdf3+0x74c>
   25064:	00000993          	li	s3,0
   25068:	004007b7          	lui	a5,0x400
   2506c:	00000513          	li	a0,0
   25070:	1380006f          	j	251a8 <__subdf3+0x754>
   25074:	00030a13          	mv	s4,t1
   25078:	a8070ee3          	beqz	a4,24b14 <__subdf3+0xc0>
   2507c:	d09ff06f          	j	24d84 <__subdf3+0x330>
   25080:	40c50733          	sub	a4,a0,a2
   25084:	00e53833          	sltu	a6,a0,a4
   25088:	40b78933          	sub	s2,a5,a1
   2508c:	41090933          	sub	s2,s2,a6
   25090:	00891813          	slli	a6,s2,0x8
   25094:	00070a93          	mv	s5,a4
   25098:	06085e63          	bgez	a6,25114 <__subdf3+0x6c0>
   2509c:	40a60ab3          	sub	s5,a2,a0
   250a0:	40f58933          	sub	s2,a1,a5
   250a4:	01563633          	sltu	a2,a2,s5
   250a8:	40c90933          	sub	s2,s2,a2
   250ac:	00068993          	mv	s3,a3
   250b0:	06090e63          	beqz	s2,2512c <__subdf3+0x6d8>
   250b4:	00090513          	mv	a0,s2
   250b8:	525000ef          	jal	25ddc <__clzsi2>
   250bc:	ff850613          	addi	a2,a0,-8 # fff8 <__heap_size+0xdff8>
   250c0:	02000693          	li	a3,32
   250c4:	40c686b3          	sub	a3,a3,a2
   250c8:	00c91933          	sll	s2,s2,a2
   250cc:	00dad6b3          	srl	a3,s5,a3
   250d0:	0126e6b3          	or	a3,a3,s2
   250d4:	00ca9933          	sll	s2,s5,a2
   250d8:	0b464263          	blt	a2,s4,2517c <__subdf3+0x728>
   250dc:	41460633          	sub	a2,a2,s4
   250e0:	00160593          	addi	a1,a2,1 # 7ff00001 <_heap_end+0x7fed70a9>
   250e4:	01f00793          	li	a5,31
   250e8:	02000713          	li	a4,32
   250ec:	06b7c063          	blt	a5,a1,2514c <__subdf3+0x6f8>
   250f0:	40b70733          	sub	a4,a4,a1
   250f4:	00e69633          	sll	a2,a3,a4
   250f8:	00b957b3          	srl	a5,s2,a1
   250fc:	00e91733          	sll	a4,s2,a4
   25100:	00f66633          	or	a2,a2,a5
   25104:	00e03733          	snez	a4,a4
   25108:	00e66633          	or	a2,a2,a4
   2510c:	00b6d5b3          	srl	a1,a3,a1
   25110:	ee9ff06f          	j	24ff8 <__subdf3+0x5a4>
   25114:	01276533          	or	a0,a4,s2
   25118:	f8051ce3          	bnez	a0,250b0 <__subdf3+0x65c>
   2511c:	00000993          	li	s3,0
   25120:	00000793          	li	a5,0
   25124:	00000a13          	li	s4,0
   25128:	9edff06f          	j	24b14 <__subdf3+0xc0>
   2512c:	000a8513          	mv	a0,s5
   25130:	4ad000ef          	jal	25ddc <__clzsi2>
   25134:	01850613          	addi	a2,a0,24
   25138:	01f00793          	li	a5,31
   2513c:	f8c7d2e3          	bge	a5,a2,250c0 <__subdf3+0x66c>
   25140:	ff850693          	addi	a3,a0,-8
   25144:	00da96b3          	sll	a3,s5,a3
   25148:	f91ff06f          	j	250d8 <__subdf3+0x684>
   2514c:	fe160613          	addi	a2,a2,-31
   25150:	00c6d633          	srl	a2,a3,a2
   25154:	00000793          	li	a5,0
   25158:	00e58863          	beq	a1,a4,25168 <__subdf3+0x714>
   2515c:	04000793          	li	a5,64
   25160:	40b787b3          	sub	a5,a5,a1
   25164:	00f697b3          	sll	a5,a3,a5
   25168:	00f967b3          	or	a5,s2,a5
   2516c:	00f037b3          	snez	a5,a5
   25170:	00f66633          	or	a2,a2,a5
   25174:	00000593          	li	a1,0
   25178:	e81ff06f          	j	24ff8 <__subdf3+0x5a4>
   2517c:	ff8007b7          	lui	a5,0xff800
   25180:	fff78793          	addi	a5,a5,-1 # ff7fffff <_heap_end+0xff7d70a7>
   25184:	40ca0a33          	sub	s4,s4,a2
   25188:	00f6f7b3          	and	a5,a3,a5
   2518c:	00090513          	mv	a0,s2
   25190:	c2dff06f          	j	24dbc <__subdf3+0x368>
   25194:	00078593          	mv	a1,a5
   25198:	00050613          	mv	a2,a0
   2519c:	e5dff06f          	j	24ff8 <__subdf3+0x5a4>
   251a0:	00058793          	mv	a5,a1
   251a4:	00060513          	mv	a0,a2
   251a8:	00030a13          	mv	s4,t1
   251ac:	969ff06f          	j	24b14 <__subdf3+0xc0>
   251b0:	00070a13          	mv	s4,a4
   251b4:	00000793          	li	a5,0
   251b8:	bd5ff06f          	j	24d8c <__subdf3+0x338>
   251bc:	00068993          	mv	s3,a3
   251c0:	00058793          	mv	a5,a1
   251c4:	00060513          	mv	a0,a2
   251c8:	00088a13          	mv	s4,a7
   251cc:	949ff06f          	j	24b14 <__subdf3+0xc0>
   251d0:	00000993          	li	s3,0
   251d4:	fe1ff06f          	j	251b4 <__subdf3+0x760>
   251d8:	00000993          	li	s3,0
   251dc:	00000793          	li	a5,0
   251e0:	935ff06f          	j	24b14 <__subdf3+0xc0>

000251e4 <__fixdfsi>:
   251e4:	0145d713          	srli	a4,a1,0x14
   251e8:	001006b7          	lui	a3,0x100
   251ec:	fff68793          	addi	a5,a3,-1 # fffff <_heap_end+0xd70a7>
   251f0:	7ff77713          	andi	a4,a4,2047
   251f4:	3fe00613          	li	a2,1022
   251f8:	00b7f7b3          	and	a5,a5,a1
   251fc:	01f5d593          	srli	a1,a1,0x1f
   25200:	04e65e63          	bge	a2,a4,2525c <__fixdfsi+0x78>
   25204:	41d00613          	li	a2,1053
   25208:	00e65a63          	bge	a2,a4,2521c <__fixdfsi+0x38>
   2520c:	80000537          	lui	a0,0x80000
   25210:	fff50513          	addi	a0,a0,-1 # 7fffffff <_heap_end+0x7ffd70a7>
   25214:	00a58533          	add	a0,a1,a0
   25218:	00008067          	ret
   2521c:	00d7e7b3          	or	a5,a5,a3
   25220:	43300693          	li	a3,1075
   25224:	40e686b3          	sub	a3,a3,a4
   25228:	01f00613          	li	a2,31
   2522c:	02d64063          	blt	a2,a3,2524c <__fixdfsi+0x68>
   25230:	bed70713          	addi	a4,a4,-1043
   25234:	00e797b3          	sll	a5,a5,a4
   25238:	00d55533          	srl	a0,a0,a3
   2523c:	00a7e533          	or	a0,a5,a0
   25240:	02058063          	beqz	a1,25260 <__fixdfsi+0x7c>
   25244:	40a00533          	neg	a0,a0
   25248:	00008067          	ret
   2524c:	41300693          	li	a3,1043
   25250:	40e68733          	sub	a4,a3,a4
   25254:	00e7d533          	srl	a0,a5,a4
   25258:	fe9ff06f          	j	25240 <__fixdfsi+0x5c>
   2525c:	00000513          	li	a0,0
   25260:	00008067          	ret

00025264 <__addsf3>:
   25264:	ff010113          	addi	sp,sp,-16
   25268:	00800737          	lui	a4,0x800
   2526c:	fff70713          	addi	a4,a4,-1 # 7fffff <_heap_end+0x7d70a7>
   25270:	0175d613          	srli	a2,a1,0x17
   25274:	00812423          	sw	s0,8(sp)
   25278:	01755413          	srli	s0,a0,0x17
   2527c:	00a777b3          	and	a5,a4,a0
   25280:	00912223          	sw	s1,4(sp)
   25284:	00b77733          	and	a4,a4,a1
   25288:	0ff47413          	zext.b	s0,s0
   2528c:	0ff67613          	zext.b	a2,a2
   25290:	00112623          	sw	ra,12(sp)
   25294:	01212023          	sw	s2,0(sp)
   25298:	01f55493          	srli	s1,a0,0x1f
   2529c:	01f5d593          	srli	a1,a1,0x1f
   252a0:	00379793          	slli	a5,a5,0x3
   252a4:	00371713          	slli	a4,a4,0x3
   252a8:	40c406b3          	sub	a3,s0,a2
   252ac:	1cb49e63          	bne	s1,a1,25488 <__addsf3+0x224>
   252b0:	08d05e63          	blez	a3,2534c <__addsf3+0xe8>
   252b4:	0ff00593          	li	a1,255
   252b8:	02061663          	bnez	a2,252e4 <__addsf3+0x80>
   252bc:	00070e63          	beqz	a4,252d8 <__addsf3+0x74>
   252c0:	fff68613          	addi	a2,a3,-1
   252c4:	00061863          	bnez	a2,252d4 <__addsf3+0x70>
   252c8:	00e787b3          	add	a5,a5,a4
   252cc:	00100413          	li	s0,1
   252d0:	04c0006f          	j	2531c <__addsf3+0xb8>
   252d4:	02b69063          	bne	a3,a1,252f4 <__addsf3+0x90>
   252d8:	00068413          	mv	s0,a3
   252dc:	00078713          	mv	a4,a5
   252e0:	2c40006f          	j	255a4 <__addsf3+0x340>
   252e4:	feb40ce3          	beq	s0,a1,252dc <__addsf3+0x78>
   252e8:	04000637          	lui	a2,0x4000
   252ec:	00c76733          	or	a4,a4,a2
   252f0:	00068613          	mv	a2,a3
   252f4:	01b00593          	li	a1,27
   252f8:	00100693          	li	a3,1
   252fc:	00c5ce63          	blt	a1,a2,25318 <__addsf3+0xb4>
   25300:	02000693          	li	a3,32
   25304:	40c686b3          	sub	a3,a3,a2
   25308:	00c755b3          	srl	a1,a4,a2
   2530c:	00d71733          	sll	a4,a4,a3
   25310:	00e03733          	snez	a4,a4
   25314:	00e5e6b3          	or	a3,a1,a4
   25318:	00d787b3          	add	a5,a5,a3
   2531c:	00579713          	slli	a4,a5,0x5
   25320:	12075463          	bgez	a4,25448 <__addsf3+0x1e4>
   25324:	00140413          	addi	s0,s0,1 # 80001 <_heap_end+0x570a9>
   25328:	0ff00713          	li	a4,255
   2532c:	36e40063          	beq	s0,a4,2568c <__addsf3+0x428>
   25330:	7e000737          	lui	a4,0x7e000
   25334:	0017f693          	andi	a3,a5,1
   25338:	fff70713          	addi	a4,a4,-1 # 7dffffff <_heap_end+0x7dfd70a7>
   2533c:	0017d793          	srli	a5,a5,0x1
   25340:	00e7f7b3          	and	a5,a5,a4
   25344:	00d7e7b3          	or	a5,a5,a3
   25348:	1000006f          	j	25448 <__addsf3+0x1e4>
   2534c:	06068463          	beqz	a3,253b4 <__addsf3+0x150>
   25350:	408606b3          	sub	a3,a2,s0
   25354:	0ff00513          	li	a0,255
   25358:	00041e63          	bnez	s0,25374 <__addsf3+0x110>
   2535c:	32078263          	beqz	a5,25680 <__addsf3+0x41c>
   25360:	fff68593          	addi	a1,a3,-1
   25364:	f60582e3          	beqz	a1,252c8 <__addsf3+0x64>
   25368:	00a69e63          	bne	a3,a0,25384 <__addsf3+0x120>
   2536c:	0ff00413          	li	s0,255
   25370:	2340006f          	j	255a4 <__addsf3+0x340>
   25374:	fea60ce3          	beq	a2,a0,2536c <__addsf3+0x108>
   25378:	040005b7          	lui	a1,0x4000
   2537c:	00b7e7b3          	or	a5,a5,a1
   25380:	00068593          	mv	a1,a3
   25384:	01b00513          	li	a0,27
   25388:	00100693          	li	a3,1
   2538c:	00b54e63          	blt	a0,a1,253a8 <__addsf3+0x144>
   25390:	02000693          	li	a3,32
   25394:	40b686b3          	sub	a3,a3,a1
   25398:	00b7d533          	srl	a0,a5,a1
   2539c:	00d797b3          	sll	a5,a5,a3
   253a0:	00f037b3          	snez	a5,a5
   253a4:	00f566b3          	or	a3,a0,a5
   253a8:	00e687b3          	add	a5,a3,a4
   253ac:	00060413          	mv	s0,a2
   253b0:	f6dff06f          	j	2531c <__addsf3+0xb8>
   253b4:	00140693          	addi	a3,s0,1
   253b8:	0fe6f613          	andi	a2,a3,254
   253bc:	06061c63          	bnez	a2,25434 <__addsf3+0x1d0>
   253c0:	06041263          	bnez	s0,25424 <__addsf3+0x1c0>
   253c4:	2a078863          	beqz	a5,25674 <__addsf3+0x410>
   253c8:	08070c63          	beqz	a4,25460 <__addsf3+0x1fc>
   253cc:	00f70733          	add	a4,a4,a5
   253d0:	00571793          	slli	a5,a4,0x5
   253d4:	1c07d863          	bgez	a5,255a4 <__addsf3+0x340>
   253d8:	1f8007b7          	lui	a5,0x1f800
   253dc:	00375713          	srli	a4,a4,0x3
   253e0:	fff78793          	addi	a5,a5,-1 # 1f7fffff <_heap_end+0x1f7d70a7>
   253e4:	00f777b3          	and	a5,a4,a5
   253e8:	00100413          	li	s0,1
   253ec:	01741413          	slli	s0,s0,0x17
   253f0:	7f800737          	lui	a4,0x7f800
   253f4:	00979793          	slli	a5,a5,0x9
   253f8:	00e47433          	and	s0,s0,a4
   253fc:	0097d793          	srli	a5,a5,0x9
   25400:	00f46433          	or	s0,s0,a5
   25404:	01f49513          	slli	a0,s1,0x1f
   25408:	00c12083          	lw	ra,12(sp)
   2540c:	00a46533          	or	a0,s0,a0
   25410:	00812403          	lw	s0,8(sp)
   25414:	00412483          	lw	s1,4(sp)
   25418:	00012903          	lw	s2,0(sp)
   2541c:	01010113          	addi	sp,sp,16
   25420:	00008067          	ret
   25424:	f40784e3          	beqz	a5,2536c <__addsf3+0x108>
   25428:	1c071863          	bnez	a4,255f8 <__addsf3+0x394>
   2542c:	00078713          	mv	a4,a5
   25430:	f3dff06f          	j	2536c <__addsf3+0x108>
   25434:	0ff00613          	li	a2,255
   25438:	24c68863          	beq	a3,a2,25688 <__addsf3+0x424>
   2543c:	00e78733          	add	a4,a5,a4
   25440:	00175793          	srli	a5,a4,0x1
   25444:	00068413          	mv	s0,a3
   25448:	0077f713          	andi	a4,a5,7
   2544c:	00070a63          	beqz	a4,25460 <__addsf3+0x1fc>
   25450:	00f7f713          	andi	a4,a5,15
   25454:	00400693          	li	a3,4
   25458:	00d70463          	beq	a4,a3,25460 <__addsf3+0x1fc>
   2545c:	00d787b3          	add	a5,a5,a3
   25460:	00579713          	slli	a4,a5,0x5
   25464:	e6075ce3          	bgez	a4,252dc <__addsf3+0x78>
   25468:	00140413          	addi	s0,s0,1
   2546c:	0ff00713          	li	a4,255
   25470:	20e40e63          	beq	s0,a4,2568c <__addsf3+0x428>
   25474:	1f800737          	lui	a4,0x1f800
   25478:	0037d793          	srli	a5,a5,0x3
   2547c:	fff70713          	addi	a4,a4,-1 # 1f7fffff <_heap_end+0x1f7d70a7>
   25480:	00e7f7b3          	and	a5,a5,a4
   25484:	f69ff06f          	j	253ec <__addsf3+0x188>
   25488:	08d05063          	blez	a3,25508 <__addsf3+0x2a4>
   2548c:	06061263          	bnez	a2,254f0 <__addsf3+0x28c>
   25490:	e40704e3          	beqz	a4,252d8 <__addsf3+0x74>
   25494:	fff68613          	addi	a2,a3,-1
   25498:	00061863          	bnez	a2,254a8 <__addsf3+0x244>
   2549c:	40e787b3          	sub	a5,a5,a4
   254a0:	00100413          	li	s0,1
   254a4:	0340006f          	j	254d8 <__addsf3+0x274>
   254a8:	0ff00593          	li	a1,255
   254ac:	e2b686e3          	beq	a3,a1,252d8 <__addsf3+0x74>
   254b0:	01b00593          	li	a1,27
   254b4:	00100693          	li	a3,1
   254b8:	00c5ce63          	blt	a1,a2,254d4 <__addsf3+0x270>
   254bc:	02000693          	li	a3,32
   254c0:	40c686b3          	sub	a3,a3,a2
   254c4:	00c755b3          	srl	a1,a4,a2
   254c8:	00d71733          	sll	a4,a4,a3
   254cc:	00e03733          	snez	a4,a4
   254d0:	00e5e6b3          	or	a3,a1,a4
   254d4:	40d787b3          	sub	a5,a5,a3
   254d8:	00579713          	slli	a4,a5,0x5
   254dc:	f60756e3          	bgez	a4,25448 <__addsf3+0x1e4>
   254e0:	04000937          	lui	s2,0x4000
   254e4:	fff90913          	addi	s2,s2,-1 # 3ffffff <_heap_end+0x3fd70a7>
   254e8:	0127f933          	and	s2,a5,s2
   254ec:	1300006f          	j	2561c <__addsf3+0x3b8>
   254f0:	0ff00613          	li	a2,255
   254f4:	dec404e3          	beq	s0,a2,252dc <__addsf3+0x78>
   254f8:	04000637          	lui	a2,0x4000
   254fc:	00c76733          	or	a4,a4,a2
   25500:	00068613          	mv	a2,a3
   25504:	fadff06f          	j	254b0 <__addsf3+0x24c>
   25508:	06068e63          	beqz	a3,25584 <__addsf3+0x320>
   2550c:	408606b3          	sub	a3,a2,s0
   25510:	02041663          	bnez	s0,2553c <__addsf3+0x2d8>
   25514:	16078463          	beqz	a5,2567c <__addsf3+0x418>
   25518:	fff68513          	addi	a0,a3,-1
   2551c:	00051863          	bnez	a0,2552c <__addsf3+0x2c8>
   25520:	40f707b3          	sub	a5,a4,a5
   25524:	00058493          	mv	s1,a1
   25528:	f79ff06f          	j	254a0 <__addsf3+0x23c>
   2552c:	0ff00813          	li	a6,255
   25530:	03069063          	bne	a3,a6,25550 <__addsf3+0x2ec>
   25534:	00058493          	mv	s1,a1
   25538:	e35ff06f          	j	2536c <__addsf3+0x108>
   2553c:	0ff00513          	li	a0,255
   25540:	fea60ae3          	beq	a2,a0,25534 <__addsf3+0x2d0>
   25544:	04000537          	lui	a0,0x4000
   25548:	00a7e7b3          	or	a5,a5,a0
   2554c:	00068513          	mv	a0,a3
   25550:	01b00813          	li	a6,27
   25554:	00100693          	li	a3,1
   25558:	00a84e63          	blt	a6,a0,25574 <__addsf3+0x310>
   2555c:	02000693          	li	a3,32
   25560:	40a686b3          	sub	a3,a3,a0
   25564:	00a7d833          	srl	a6,a5,a0
   25568:	00d797b3          	sll	a5,a5,a3
   2556c:	00f037b3          	snez	a5,a5
   25570:	00f866b3          	or	a3,a6,a5
   25574:	40d707b3          	sub	a5,a4,a3
   25578:	00060413          	mv	s0,a2
   2557c:	00058493          	mv	s1,a1
   25580:	f59ff06f          	j	254d8 <__addsf3+0x274>
   25584:	00140693          	addi	a3,s0,1
   25588:	0fe6f693          	andi	a3,a3,254
   2558c:	06069e63          	bnez	a3,25608 <__addsf3+0x3a4>
   25590:	06041263          	bnez	s0,255f4 <__addsf3+0x390>
   25594:	02079463          	bnez	a5,255bc <__addsf3+0x358>
   25598:	00000493          	li	s1,0
   2559c:	e40708e3          	beqz	a4,253ec <__addsf3+0x188>
   255a0:	00058493          	mv	s1,a1
   255a4:	00375793          	srli	a5,a4,0x3
   255a8:	0ff00713          	li	a4,255
   255ac:	e4e410e3          	bne	s0,a4,253ec <__addsf3+0x188>
   255b0:	e2078ee3          	beqz	a5,253ec <__addsf3+0x188>
   255b4:	004007b7          	lui	a5,0x400
   255b8:	0340006f          	j	255ec <__addsf3+0x388>
   255bc:	ea0702e3          	beqz	a4,25460 <__addsf3+0x1fc>
   255c0:	40e786b3          	sub	a3,a5,a4
   255c4:	00569613          	slli	a2,a3,0x5
   255c8:	00065c63          	bgez	a2,255e0 <__addsf3+0x37c>
   255cc:	40f707b3          	sub	a5,a4,a5
   255d0:	00058493          	mv	s1,a1
   255d4:	00000413          	li	s0,0
   255d8:	e0078ae3          	beqz	a5,253ec <__addsf3+0x188>
   255dc:	e6dff06f          	j	25448 <__addsf3+0x1e4>
   255e0:	00068713          	mv	a4,a3
   255e4:	fc0690e3          	bnez	a3,255a4 <__addsf3+0x340>
   255e8:	00000793          	li	a5,0
   255ec:	00000493          	li	s1,0
   255f0:	dfdff06f          	j	253ec <__addsf3+0x188>
   255f4:	e2079ae3          	bnez	a5,25428 <__addsf3+0x1c4>
   255f8:	00000493          	li	s1,0
   255fc:	0ff00413          	li	s0,255
   25600:	004007b7          	lui	a5,0x400
   25604:	de9ff06f          	j	253ec <__addsf3+0x188>
   25608:	40e78933          	sub	s2,a5,a4
   2560c:	00591693          	slli	a3,s2,0x5
   25610:	0406d263          	bgez	a3,25654 <__addsf3+0x3f0>
   25614:	40f70933          	sub	s2,a4,a5
   25618:	00058493          	mv	s1,a1
   2561c:	00090513          	mv	a0,s2
   25620:	7bc000ef          	jal	25ddc <__clzsi2>
   25624:	ffb50513          	addi	a0,a0,-5 # 3fffffb <_heap_end+0x3fd70a3>
   25628:	00a91933          	sll	s2,s2,a0
   2562c:	02854a63          	blt	a0,s0,25660 <__addsf3+0x3fc>
   25630:	40850533          	sub	a0,a0,s0
   25634:	00150513          	addi	a0,a0,1
   25638:	02000713          	li	a4,32
   2563c:	40a70733          	sub	a4,a4,a0
   25640:	00a957b3          	srl	a5,s2,a0
   25644:	00e91933          	sll	s2,s2,a4
   25648:	01203933          	snez	s2,s2
   2564c:	0127e7b3          	or	a5,a5,s2
   25650:	f85ff06f          	j	255d4 <__addsf3+0x370>
   25654:	fc0914e3          	bnez	s2,2561c <__addsf3+0x3b8>
   25658:	00000413          	li	s0,0
   2565c:	f8dff06f          	j	255e8 <__addsf3+0x384>
   25660:	fc0007b7          	lui	a5,0xfc000
   25664:	fff78793          	addi	a5,a5,-1 # fbffffff <_heap_end+0xfbfd70a7>
   25668:	40a40433          	sub	s0,s0,a0
   2566c:	00f977b3          	and	a5,s2,a5
   25670:	dd9ff06f          	j	25448 <__addsf3+0x1e4>
