
build/arducam.elf:     file format elf32-littleriscv
build/arducam.elf
architecture: riscv:rv32, flags 0x00000112:
EXEC_P, HAS_SYMS, D_PAGED
start address 0x00020000

Program Header:
0x70000003 off    0x00007f97 vaddr 0x00000000 paddr 0x00000000 align 2**0
         filesz 0x0000004f memsz 0x00000000 flags r--
    LOAD off    0x00001000 vaddr 0x00020000 paddr 0x00020000 align 2**12
         filesz 0x00006f6c memsz 0x00006fc0 flags rwx
   STACK off    0x00000000 vaddr 0x00000000 paddr 0x00000000 align 2**4
         filesz 0x00000000 memsz 0x00000000 flags rw-

Sections:
Idx Name                        Size      VMA       LMA       File off  Algn  Flags
  0 .text.init                  00000210  00020000  00020000  00001000  2**2  CONTENTS, ALLOC, LOAD, READONLY, CODE
  1 .text                       00005c40  00020210  00020210  00001210  2**2  CONTENTS, ALLOC, LOAD, READONLY, CODE
  2 .text.delay_loop            0000004c  00025e50  00025e50  00006e50  2**2  CONTENTS, ALLOC, LOAD, READONLY, CODE
  3 .text.uart_init_safe        00000030  00025e9c  00025e9c  00006e9c  2**2  CONTENTS, ALLOC, LOAD, READONLY, CODE
  4 .text.uart_read_safe        00000048  00025ecc  00025ecc  00006ecc  2**2  CONTENTS, ALLOC, LOAD, READONLY, CODE
  5 .text.uart_write_raw        00000050  00025f14  00025f14  00006f14  2**2  CONTENTS, ALLOC, LOAD, READONLY, CODE
  6 .text.spi_init              00000060  00025f64  00025f64  00006f64  2**2  CONTENTS, ALLOC, LOAD, READONLY, CODE
  7 .text.spi_transfer          00000080  00025fc4  00025fc4  00006fc4  2**2  CONTENTS, ALLOC, LOAD, READONLY, CODE
  8 .text.arducam_write_reg     00000080  00026044  00026044  00007044  2**2  CONTENTS, ALLOC, LOAD, READONLY, CODE
  9 .text.arducam_read_reg      0000007c  000260c4  000260c4  000070c4  2**2  CONTENTS, ALLOC, LOAD, READONLY, CODE
 10 .text.i2c_init              0000004c  00026140  00026140  00007140  2**2  CONTENTS, ALLOC, LOAD, READONLY, CODE
 11 .text.i2c_write_reg         000000e4  0002618c  0002618c  0000718c  2**2  CONTENTS, ALLOC, LOAD, READONLY, CODE
 12 .text.sensor_write_array    0000009c  00026270  00026270  00007270  2**2  CONTENTS, ALLOC, LOAD, READONLY, CODE
 13 .text.main                  00000274  0002630c  0002630c  0000730c  2**2  CONTENTS, ALLOC, LOAD, READONLY, CODE
 14 .text.strnlen               00000030  00026580  00026580  00007580  2**2  CONTENTS, ALLOC, LOAD, READONLY, CODE
 15 .text.memcpy                00000128  000265b0  000265b0  000075b0  2**2  CONTENTS, ALLOC, LOAD, READONLY, CODE
 16 .text.modf                  000001b8  000266d8  000266d8  000076d8  2**2  CONTENTS, ALLOC, LOAD, READONLY, CODE
 17 .text.__fpclassifyd         00000070  00026890  00026890  00007890  2**2  CONTENTS, ALLOC, LOAD, READONLY, CODE
 18 .rodata                     00000478  00026900  00026900  00007900  2**3  CONTENTS, ALLOC, LOAD, READONLY, DATA
 19 .rodata.OV2640_JPEG_INIT    0000017e  00026d78  00026d78  00007d78  2**2  CONTENTS, ALLOC, LOAD, READONLY, DATA
 20 .rodata.OV2640_320x240_JPEG 00000050  00026ef8  00026ef8  00007ef8  2**2  CONTENTS, ALLOC, LOAD, READONLY, DATA
 21 .got                        00000010  00026f48  00026f48  00007f48  2**2  CONTENTS, ALLOC, LOAD, DATA
 22 .got.plt                    00000008  00026f58  00026f58  00007f58  2**2  CONTENTS, ALLOC, LOAD, DATA
 23 .sdata                      0000000c  00026f60  00026f60  00007f60  2**2  CONTENTS, ALLOC, LOAD, DATA
 24 .sbss                       00000004  00026f6c  00026f6c  00007f6c  2**2  ALLOC
 25 .bss                        00000050  00026f70  00026f70  00007f6c  2**2  ALLOC
 26 .comment                    0000002b  00000000  00000000  00007f6c  2**0  CONTENTS, READONLY
 27 .riscv.attributes           0000004f  00000000  00000000  00007f97  2**0  CONTENTS, READONLY
 28 .debug_info                 00002d29  00000000  00000000  00007fe6  2**0  CONTENTS, READONLY, DEBUGGING, OCTETS
 29 .debug_abbrev               0000125a  00000000  00000000  0000ad0f  2**0  CONTENTS, READONLY, DEBUGGING, OCTETS
 30 .debug_loclists             00003b9c  00000000  00000000  0000bf69  2**0  CONTENTS, READONLY, DEBUGGING, OCTETS
 31 .debug_aranges              000001b8  00000000  00000000  0000fb05  2**0  CONTENTS, READONLY, DEBUGGING, OCTETS
 32 .debug_rnglists             0000068f  00000000  00000000  0000fcbd  2**0  CONTENTS, READONLY, DEBUGGING, OCTETS
 33 .debug_line                 000074ac  00000000  00000000  0001034c  2**0  CONTENTS, READONLY, DEBUGGING, OCTETS
 34 .debug_str                  000007bf  00000000  00000000  000177f8  2**0  CONTENTS, READONLY, DEBUGGING, OCTETS
 35 .debug_line_str             000002a8  00000000  00000000  00017fb7  2**0  CONTENTS, READONLY, DEBUGGING, OCTETS
 36 .debug_frame                00000300  00000000  00000000  00018260  2**2  CONTENTS, READONLY, DEBUGGING, OCTETS
SYMBOL TABLE:
00020000 l    d  .text.init	00000000 .text.init
00020210 l    d  .text	00000000 .text
00025e50 l    d  .text.delay_loop	00000000 .text.delay_loop
00025e9c l    d  .text.uart_init_safe	00000000 .text.uart_init_safe
00025ecc l    d  .text.uart_read_safe	00000000 .text.uart_read_safe
00025f14 l    d  .text.uart_write_raw	00000000 .text.uart_write_raw
00025f64 l    d  .text.spi_init	00000000 .text.spi_init
00025fc4 l    d  .text.spi_transfer	00000000 .text.spi_transfer
00026044 l    d  .text.arducam_write_reg	00000000 .text.arducam_write_reg
000260c4 l    d  .text.arducam_read_reg	00000000 .text.arducam_read_reg
00026140 l    d  .text.i2c_init	00000000 .text.i2c_init
0002618c l    d  .text.i2c_write_reg	00000000 .text.i2c_write_reg
00026270 l    d  .text.sensor_write_array	00000000 .text.sensor_write_array
0002630c l    d  .text.main	00000000 .text.main
00026580 l    d  .text.strnlen	00000000 .text.strnlen
000265b0 l    d  .text.memcpy	00000000 .text.memcpy
000266d8 l    d  .text.modf	00000000 .text.modf
00026890 l    d  .text.__fpclassifyd	00000000 .text.__fpclassifyd
00026900 l    d  .rodata	00000000 .rodata
00026d78 l    d  .rodata.OV2640_JPEG_INIT	00000000 .rodata.OV2640_JPEG_INIT
00026ef8 l    d  .rodata.OV2640_320x240_JPEG	00000000 .rodata.OV2640_320x240_JPEG
00026f48 l    d  .got	00000000 .got
00026f58 l    d  .got.plt	00000000 .got.plt
00026f60 l    d  .sdata	00000000 .sdata
00026f6c l    d  .sbss	00000000 .sbss
00026f70 l    d  .bss	00000000 .bss
00000000 l    d  .comment	00000000 .comment
00000000 l    d  .riscv.attributes	00000000 .riscv.attributes
00000000 l    d  .debug_info	00000000 .debug_info
00000000 l    d  .debug_abbrev	00000000 .debug_abbrev
00000000 l    d  .debug_loclists	00000000 .debug_loclists
00000000 l    d  .debug_aranges	00000000 .debug_aranges
00000000 l    d  .debug_rnglists	00000000 .debug_rnglists
00000000 l    d  .debug_line	00000000 .debug_line
00000000 l    d  .debug_str	00000000 .debug_str
00000000 l    d  .debug_line_str	00000000 .debug_line_str
00000000 l    d  .debug_frame	00000000 .debug_frame
00000000 l    df *ABS*	00000000 crt.o
00000000 l    df *ABS*	00000000 stdlib.c
000203c0 l     F .text	0000009c init_tls
0002059c l     F .text	000000b0 getuint
0002064c l     F .text	000000b8 getint
00026f60 l     O .sdata	00000004 digits
00026f64 l     O .sdata	00000004 upper_digits
00020704 l     F .text	00000098 skip_atoi
000209ac l       .text	00000000 loop_us
00020a98 l       .text	00000000 final
00020a78 l       .text	00000000 cycle_loop
00020a64 l       .text	00000000 loop
00020a84 l       .text	00000000 mul_loop
00020a90 l       .text	00000000 loop1
00020ae4 l     F .text	00000394 number
00020e78 l     F .text	000001cc eaddr
00021044 l     F .text	00000328 iaddr
0002136c l     F .text	00000074 ee_bufcpy
000213e0 l     F .text	00000520 parse_float
00021900 l     F .text	00000100 decimal_point
00021a00 l     F .text	00000114 cropzeros
00021b14 l     F .text	000002ac flt
00021dc0 l     F .text	00000670 ee_vsprintf
00026f68 l     O .sdata	00000004 curbrk.0
00000000 l    df *ABS*	00000000 rawfloat.c
00026f70 l     O .bss	00000050 CVTBUF
00022684 l     F .text	000004d4 cvt
00000000 l    df *ABS*	00000000 debug_uart.c
00000000 l    df *ABS*	00000000 libc_a-memset.o
00000000 l    df *ABS*	00000000 adddf3.c
00000000 l    df *ABS*	00000000 divdf3.c
00000000 l    df *ABS*	00000000 eqdf2.c
00000000 l    df *ABS*	00000000 gedf2.c
00000000 l    df *ABS*	00000000 ledf2.c
00000000 l    df *ABS*	00000000 muldf3.c
00000000 l    df *ABS*	00000000 subdf3.c
00000000 l    df *ABS*	00000000 fixdfsi.c
00000000 l    df *ABS*	00000000 addsf3.c
00000000 l    df *ABS*	00000000 divsf3.c
00000000 l    df *ABS*	00000000 mulsf3.c
00000000 l    df *ABS*	00000000 floatsisf.c
00000000 l    df *ABS*	00000000 libgcc2.c
00000000 l    df *ABS*	00000000 peri_test.c
00000000 l    df *ABS*	00000000 strnlen.c
00000000 l    df *ABS*	00000000 memcpy.c
00000000 l    df *ABS*	00000000 s_modf.c
00000000 l    df *ABS*	00000000 s_fpclassify.c
00000000 l    df *ABS*	00000000 libgcc2.c
00026f48 l     O .got	00000000 _GLOBAL_OFFSET_TABLE_
0002049c g     F .text	00000050 putchar
0002096c g     F .text	0000006c _usleep
0002425c g     F .text	0000008c .hidden __eqdf2
00020314 g     F .text	00000034 printstr
000224b8 g     F .text	000000b8 printf
00027760 g       .sdata	00000000 __global_pointer$
00022c78 g     F .text	00000060 fcvtbuf
000256bc g     F .text	0000031c .hidden __divsf3
000242e8 g     F .text	000000d0 .hidden __gtdf2
000231c4 g     F .text	00000180 get_hex
00020a38 g     F .text	00000074 usleep
00020aac g     F .text	00000038 get_time
000265b0 g     F .text.memcpy	00000128 memcpy
000243b8 g     F .text	000000d0 .hidden __ltdf2
00022430 g     F .text	00000088 puts
00026890 g     F .text.__fpclassifyd	00000070 __fpclassifyd
00026f6c g     O .sbss	00000004 loop_count
00025f64 g     F .text.spi_init	00000060 spi_init
0002618c g     F .text.i2c_write_reg	000000e4 i2c_write_reg
00025e50 g     F .text.delay_loop	0000004c delay_loop
00020210  w    F .text	000000b0 handle_trap
00026f6c g       .sdata	00000000 _bss_start
00025fc4 g     F .text.spi_transfer	00000080 spi_transfer
00022cd8 g     F .text	0000005c init_uart
00023420 g     F .text	00000780 .hidden __adddf3
00028fc0 g       .comment	00000000 _heap_end
00026fc0 g       .bss	00000000 _tls_data
000202e4 g     F .text	00000030 abort
000225e4 g     F .text	000000a0 _sbrk
0002045c g     F .text	00000040 _init
00026580 g     F .text.strnlen	00000030 strnlen
00026fc0 g       .bss	00000000 _bss_end
00026044 g     F .text.arducam_write_reg	00000080 arducam_write_reg
0002520c g     F .text	00000080 .hidden __fixdfsi
00022d34 g     F .text	00000068 tx_uart
00020828 g     F .text	00000144 atof
00025ecc g     F .text.uart_read_safe	00000048 uart_read_safe
000243b8 g     F .text	000000d0 .hidden __ledf2
00002000 g       *ABS*	00000000 __heap_size
000266d8 g     F .text.modf	000001b8 modf
00025e04 g     F .text	0000004c .hidden __clzsi2
00020000 g       .text.init	00000000 _start
00023010 g     F .text	000001b4 get_long_int
000260c4 g     F .text.arducam_read_reg	0000007c arducam_read_reg
00025cf4 g     F .text	00000110 .hidden __floatsisf
000209d8 g     F .text	00000060 udelay
00026d78 g     O .rodata.OV2640_JPEG_INIT	0000017e OV2640_JPEG_INIT
00023ba0 g     F .text	000006bc .hidden __divdf3
00024488 g     F .text	000005f4 .hidden __muldf3
00023344 g     F .text	000000dc memset
0002630c g     F .text.main	00000274 main
00022c18 g     F .text	00000060 fcvt
000200ec g       .text.init	00000000 trap_entry
00022bb8 g     F .text	00000060 ecvtbuf
000259d8 g     F .text	0000031c .hidden __mulsf3
00022d9c g     F .text	00000054 rx_uart
0002425c g     F .text	0000008c .hidden __nedf2
00022570 g     F .text	00000074 sprintf
00026c78 g     O .rodata	00000100 .hidden __clz_tab
000204ec g     F .text	000000b0 printhex
00026140 g     F .text.i2c_init	0000004c i2c_init
00022b58 g     F .text	00000060 ecvt
00000000 g       .bss	00000000 _tdata_end
00026fc0 g       .bss	00000000 _end
00000000 g       .bss	00000000 _tdata_begin
000202c0 g     F .text	00000024 exit
0002079c g     F .text	0000008c atoi
00000000 g       .bss	00000000 _tbss_end
00022df0 g     F .text	00000220 get_decimal
000242e8 g     F .text	000000d0 .hidden __gedf2
00026270 g     F .text.sensor_write_array	0000009c sensor_write_array
00025e9c g     F .text.uart_init_safe	00000030 uart_init_safe
00024a7c g     F .text	00000790 .hidden __subdf3
00020348  w    F .text	0000003c thread_entry
0002528c g     F .text	00000430 .hidden __addsf3
00026ef8 g     O .rodata.OV2640_320x240_JPEG	00000050 OV2640_320x240_JPEG
00025f14 g     F .text.uart_write_raw	00000050 uart_write_raw



Disassembly of section .text.init:

00020000 <_start>:
_start():
   20000:	00000093          	li	ra,0
   20004:	00000113          	li	sp,0
   20008:	00000193          	li	gp,0
   2000c:	00000213          	li	tp,0
   20010:	00000293          	li	t0,0
   20014:	00000313          	li	t1,0
   20018:	00000393          	li	t2,0
   2001c:	00000413          	li	s0,0
   20020:	00000493          	li	s1,0
   20024:	00000513          	li	a0,0
   20028:	00000593          	li	a1,0
   2002c:	00000613          	li	a2,0
   20030:	00000693          	li	a3,0
   20034:	00000713          	li	a4,0
   20038:	00000793          	li	a5,0
   2003c:	00000813          	li	a6,0
   20040:	00000893          	li	a7,0
   20044:	00000913          	li	s2,0
   20048:	00000993          	li	s3,0
   2004c:	00000a13          	li	s4,0
   20050:	00000a93          	li	s5,0
   20054:	00000b13          	li	s6,0
   20058:	00000b93          	li	s7,0
   2005c:	00000c13          	li	s8,0
   20060:	00000c93          	li	s9,0
   20064:	00000d13          	li	s10,0
   20068:	00000d93          	li	s11,0
   2006c:	00000e13          	li	t3,0
   20070:	00000e93          	li	t4,0
   20074:	00000f13          	li	t5,0
   20078:	00000f93          	li	t6,0
   2007c:	00100293          	li	t0,1
   20080:	01f29293          	slli	t0,t0,0x1f
   20084:	0002c463          	bltz	t0,2008c <_start+0x8c>
   20088:	0000006f          	j	20088 <_start+0x88>
   2008c:	00000297          	auipc	t0,0x0
   20090:	06028293          	addi	t0,t0,96 # 200ec <trap_entry>
   20094:	30529073          	csrw	mtvec,t0
   20098:	00007197          	auipc	gp,0x7
   2009c:	6c818193          	addi	gp,gp,1736 # 27760 <__global_pointer$>
   200a0:	00007217          	auipc	tp,0x7
   200a4:	f5f20213          	addi	tp,tp,-161 # 26fff <_bss_end+0x3f>
   200a8:	fc027213          	andi	tp,tp,-64
   200ac:	f1402573          	csrr	a0,mhartid
   200b0:	00100593          	li	a1,1
   200b4:	00b57063          	bgeu	a0,a1,200b4 <_start+0xb4>
   200b8:	00007697          	auipc	a3,0x7
   200bc:	eb468693          	addi	a3,a3,-332 # 26f6c <loop_count>
   200c0:	00007717          	auipc	a4,0x7
   200c4:	f0070713          	addi	a4,a4,-256 # 26fc0 <_bss_end>
   200c8:	0006a023          	sw	zero,0(a3)
   200cc:	00468693          	addi	a3,a3,4
   200d0:	fed77ce3          	bgeu	a4,a3,200c8 <_start+0xc8>
   200d4:	00f51613          	slli	a2,a0,0xf
   200d8:	00c20233          	add	tp,tp,a2
   200dc:	00150113          	addi	sp,a0,1
   200e0:	00f11113          	slli	sp,sp,0xf
   200e4:	00410133          	add	sp,sp,tp
   200e8:	3740006f          	j	2045c <_init>

000200ec <trap_entry>:
trap_entry():
   200ec:	ef010113          	addi	sp,sp,-272
   200f0:	00112223          	sw	ra,4(sp)
   200f4:	00212423          	sw	sp,8(sp)
   200f8:	00312623          	sw	gp,12(sp)
   200fc:	00412823          	sw	tp,16(sp)
   20100:	00512a23          	sw	t0,20(sp)
   20104:	00612c23          	sw	t1,24(sp)
   20108:	00712e23          	sw	t2,28(sp)
   2010c:	02812023          	sw	s0,32(sp)
   20110:	02912223          	sw	s1,36(sp)
   20114:	02a12423          	sw	a0,40(sp)
   20118:	02b12623          	sw	a1,44(sp)
   2011c:	02c12823          	sw	a2,48(sp)
   20120:	02d12a23          	sw	a3,52(sp)
   20124:	02e12c23          	sw	a4,56(sp)
   20128:	02f12e23          	sw	a5,60(sp)
   2012c:	05012023          	sw	a6,64(sp)
   20130:	05112223          	sw	a7,68(sp)
   20134:	05212423          	sw	s2,72(sp)
   20138:	05312623          	sw	s3,76(sp)
   2013c:	05412823          	sw	s4,80(sp)
   20140:	05512a23          	sw	s5,84(sp)
   20144:	05612c23          	sw	s6,88(sp)
   20148:	05712e23          	sw	s7,92(sp)
   2014c:	07812023          	sw	s8,96(sp)
   20150:	07912223          	sw	s9,100(sp)
   20154:	07a12423          	sw	s10,104(sp)
   20158:	07b12623          	sw	s11,108(sp)
   2015c:	07c12823          	sw	t3,112(sp)
   20160:	07d12a23          	sw	t4,116(sp)
   20164:	07e12c23          	sw	t5,120(sp)
   20168:	07f12e23          	sw	t6,124(sp)
   2016c:	34202573          	csrr	a0,mcause
   20170:	341025f3          	csrr	a1,mepc
   20174:	00010613          	mv	a2,sp
   20178:	098000ef          	jal	20210 <handle_trap>
   2017c:	34151073          	csrw	mepc,a0
   20180:	000022b7          	lui	t0,0x2
   20184:	80028293          	addi	t0,t0,-2048 # 1800 <_tbss_end+0x1800>
   20188:	3002a073          	csrs	mstatus,t0
   2018c:	00412083          	lw	ra,4(sp)
   20190:	00812103          	lw	sp,8(sp)
   20194:	00c12183          	lw	gp,12(sp)
   20198:	01012203          	lw	tp,16(sp)
   2019c:	01412283          	lw	t0,20(sp)
   201a0:	01812303          	lw	t1,24(sp)
   201a4:	01c12383          	lw	t2,28(sp)
   201a8:	02012403          	lw	s0,32(sp)
   201ac:	02412483          	lw	s1,36(sp)
   201b0:	02812503          	lw	a0,40(sp)
   201b4:	02c12583          	lw	a1,44(sp)
   201b8:	03012603          	lw	a2,48(sp)
   201bc:	03412683          	lw	a3,52(sp)
   201c0:	03812703          	lw	a4,56(sp)
   201c4:	03c12783          	lw	a5,60(sp)
   201c8:	04012803          	lw	a6,64(sp)
   201cc:	04412883          	lw	a7,68(sp)
   201d0:	04812903          	lw	s2,72(sp)
   201d4:	04c12983          	lw	s3,76(sp)
   201d8:	05012a03          	lw	s4,80(sp)
   201dc:	05412a83          	lw	s5,84(sp)
   201e0:	05812b03          	lw	s6,88(sp)
   201e4:	05c12b83          	lw	s7,92(sp)
   201e8:	06012c03          	lw	s8,96(sp)
   201ec:	06412c83          	lw	s9,100(sp)
   201f0:	06812d03          	lw	s10,104(sp)
   201f4:	06c12d83          	lw	s11,108(sp)
   201f8:	07012e03          	lw	t3,112(sp)
   201fc:	07412e83          	lw	t4,116(sp)
   20200:	07812f03          	lw	t5,120(sp)
   20204:	07c12f83          	lw	t6,124(sp)
   20208:	11010113          	addi	sp,sp,272
   2020c:	30200073          	mret

Disassembly of section .text:

00020210 <handle_trap>:
handle_trap():
   20210:	fd010113          	addi	sp,sp,-48
   20214:	02112623          	sw	ra,44(sp)
   20218:	02812423          	sw	s0,40(sp)
   2021c:	03010413          	addi	s0,sp,48
   20220:	fca42e23          	sw	a0,-36(s0)
   20224:	fcb42c23          	sw	a1,-40(s0)
   20228:	fcc42a23          	sw	a2,-44(s0)
   2022c:	00006517          	auipc	a0,0x6
   20230:	7b050513          	addi	a0,a0,1968 # 269dc <__fpclassifyd+0x14c>
   20234:	284020ef          	jal	224b8 <printf>
   20238:	fd842583          	lw	a1,-40(s0)
   2023c:	00006517          	auipc	a0,0x6
   20240:	7ac50513          	addi	a0,a0,1964 # 269e8 <__fpclassifyd+0x158>
   20244:	274020ef          	jal	224b8 <printf>
   20248:	fdc42583          	lw	a1,-36(s0)
   2024c:	00006517          	auipc	a0,0x6
   20250:	7a850513          	addi	a0,a0,1960 # 269f4 <__fpclassifyd+0x164>
   20254:	264020ef          	jal	224b8 <printf>
   20258:	343027f3          	csrr	a5,mtval
   2025c:	fef42423          	sw	a5,-24(s0)
   20260:	fe842783          	lw	a5,-24(s0)
   20264:	00078593          	mv	a1,a5
   20268:	00006517          	auipc	a0,0x6
   2026c:	79c50513          	addi	a0,a0,1948 # 26a04 <__fpclassifyd+0x174>
   20270:	248020ef          	jal	224b8 <printf>
   20274:	fe042623          	sw	zero,-20(s0)
   20278:	0380006f          	j	202b0 <handle_trap+0xa0>
   2027c:	fec42783          	lw	a5,-20(s0)
   20280:	00279793          	slli	a5,a5,0x2
   20284:	fd442703          	lw	a4,-44(s0)
   20288:	00f707b3          	add	a5,a4,a5
   2028c:	0007a783          	lw	a5,0(a5)
   20290:	00078613          	mv	a2,a5
   20294:	fec42583          	lw	a1,-20(s0)
   20298:	00006517          	auipc	a0,0x6
   2029c:	78050513          	addi	a0,a0,1920 # 26a18 <__fpclassifyd+0x188>
   202a0:	218020ef          	jal	224b8 <printf>
   202a4:	fec42783          	lw	a5,-20(s0)
   202a8:	00178793          	addi	a5,a5,1
   202ac:	fef42623          	sw	a5,-20(s0)
   202b0:	fec42703          	lw	a4,-20(s0)
   202b4:	01f00793          	li	a5,31
   202b8:	fce7d2e3          	bge	a5,a4,2027c <handle_trap+0x6c>
   202bc:	0000006f          	j	202bc <handle_trap+0xac>

000202c0 <exit>:
exit():
   202c0:	fe010113          	addi	sp,sp,-32
   202c4:	00112e23          	sw	ra,28(sp)
   202c8:	00812c23          	sw	s0,24(sp)
   202cc:	02010413          	addi	s0,sp,32
   202d0:	fea42623          	sw	a0,-20(s0)
   202d4:	00006517          	auipc	a0,0x6
   202d8:	75450513          	addi	a0,a0,1876 # 26a28 <__fpclassifyd+0x198>
   202dc:	1dc020ef          	jal	224b8 <printf>
   202e0:	0000006f          	j	202e0 <exit+0x20>

000202e4 <abort>:
abort():
   202e4:	ff010113          	addi	sp,sp,-16
   202e8:	00112623          	sw	ra,12(sp)
   202ec:	00812423          	sw	s0,8(sp)
   202f0:	01010413          	addi	s0,sp,16
   202f4:	00006517          	auipc	a0,0x6
   202f8:	74050513          	addi	a0,a0,1856 # 26a34 <__fpclassifyd+0x1a4>
   202fc:	1bc020ef          	jal	224b8 <printf>
   20300:	00000013          	nop
   20304:	00c12083          	lw	ra,12(sp)
   20308:	00812403          	lw	s0,8(sp)
   2030c:	01010113          	addi	sp,sp,16
   20310:	00008067          	ret

00020314 <printstr>:
printstr():
   20314:	fe010113          	addi	sp,sp,-32
   20318:	00112e23          	sw	ra,28(sp)
   2031c:	00812c23          	sw	s0,24(sp)
   20320:	02010413          	addi	s0,sp,32
   20324:	fea42623          	sw	a0,-20(s0)
   20328:	00006517          	auipc	a0,0x6
   2032c:	70050513          	addi	a0,a0,1792 # 26a28 <__fpclassifyd+0x198>
   20330:	188020ef          	jal	224b8 <printf>
   20334:	00000013          	nop
   20338:	01c12083          	lw	ra,28(sp)
   2033c:	01812403          	lw	s0,24(sp)
   20340:	02010113          	addi	sp,sp,32
   20344:	00008067          	ret

00020348 <thread_entry>:
thread_entry():
   20348:	fe010113          	addi	sp,sp,-32
   2034c:	00112e23          	sw	ra,28(sp)
   20350:	00812c23          	sw	s0,24(sp)
   20354:	02010413          	addi	s0,sp,32
   20358:	fea42623          	sw	a0,-20(s0)
   2035c:	feb42423          	sw	a1,-24(s0)
   20360:	00000013          	nop
   20364:	fec42783          	lw	a5,-20(s0)
   20368:	fe079ee3          	bnez	a5,20364 <thread_entry+0x1c>
   2036c:	00000013          	nop
   20370:	00000013          	nop
   20374:	01c12083          	lw	ra,28(sp)
   20378:	01812403          	lw	s0,24(sp)
   2037c:	02010113          	addi	sp,sp,32
   20380:	00008067          	ret
   20384:	fe010113          	addi	sp,sp,-32
   20388:	00112e23          	sw	ra,28(sp)
   2038c:	00812c23          	sw	s0,24(sp)
   20390:	02010413          	addi	s0,sp,32
   20394:	fea42623          	sw	a0,-20(s0)
   20398:	feb42423          	sw	a1,-24(s0)
   2039c:	00006517          	auipc	a0,0x6
   203a0:	6a450513          	addi	a0,a0,1700 # 26a40 <__fpclassifyd+0x1b0>
   203a4:	f71ff0ef          	jal	20314 <printstr>
   203a8:	fff00793          	li	a5,-1
   203ac:	00078513          	mv	a0,a5
   203b0:	01c12083          	lw	ra,28(sp)
   203b4:	01812403          	lw	s0,24(sp)
   203b8:	02010113          	addi	sp,sp,32
   203bc:	00008067          	ret

000203c0 <init_tls>:
init_tls():
   203c0:	fe010113          	addi	sp,sp,-32
   203c4:	00112e23          	sw	ra,28(sp)
   203c8:	00812c23          	sw	s0,24(sp)
   203cc:	02010413          	addi	s0,sp,32
   203d0:	00007797          	auipc	a5,0x7
   203d4:	b7c7a783          	lw	a5,-1156(a5) # 26f4c <_GLOBAL_OFFSET_TABLE_+0x4>
   203d8:	004787b3          	add	a5,a5,tp
   203dc:	00078713          	mv	a4,a5
   203e0:	00007797          	auipc	a5,0x7
   203e4:	b707a783          	lw	a5,-1168(a5) # 26f50 <_GLOBAL_OFFSET_TABLE_+0x8>
   203e8:	004787b3          	add	a5,a5,tp
   203ec:	40f707b3          	sub	a5,a4,a5
   203f0:	fef42623          	sw	a5,-20(s0)
   203f4:	00020793          	mv	a5,tp
   203f8:	fec42603          	lw	a2,-20(s0)
   203fc:	86018593          	addi	a1,gp,-1952 # 26fc0 <_bss_end>
   20400:	00078513          	mv	a0,a5
   20404:	1ac060ef          	jal	265b0 <memcpy>
   20408:	00007797          	auipc	a5,0x7
   2040c:	b4c7a783          	lw	a5,-1204(a5) # 26f54 <_GLOBAL_OFFSET_TABLE_+0xc>
   20410:	004787b3          	add	a5,a5,tp
   20414:	00078713          	mv	a4,a5
   20418:	00007797          	auipc	a5,0x7
   2041c:	b347a783          	lw	a5,-1228(a5) # 26f4c <_GLOBAL_OFFSET_TABLE_+0x4>
   20420:	004787b3          	add	a5,a5,tp
   20424:	40f707b3          	sub	a5,a4,a5
   20428:	fef42423          	sw	a5,-24(s0)
   2042c:	00020713          	mv	a4,tp
   20430:	fec42783          	lw	a5,-20(s0)
   20434:	00f707b3          	add	a5,a4,a5
   20438:	fe842603          	lw	a2,-24(s0)
   2043c:	00000593          	li	a1,0
   20440:	00078513          	mv	a0,a5
   20444:	701020ef          	jal	23344 <memset>
   20448:	00000013          	nop
   2044c:	01c12083          	lw	ra,28(sp)
   20450:	01812403          	lw	s0,24(sp)
   20454:	02010113          	addi	sp,sp,32
   20458:	00008067          	ret

0002045c <_init>:
_init():
   2045c:	fd010113          	addi	sp,sp,-48
   20460:	02112623          	sw	ra,44(sp)
   20464:	02812423          	sw	s0,40(sp)
   20468:	03010413          	addi	s0,sp,48
   2046c:	fca42e23          	sw	a0,-36(s0)
   20470:	fcb42c23          	sw	a1,-40(s0)
   20474:	f4dff0ef          	jal	203c0 <init_tls>
   20478:	fd842583          	lw	a1,-40(s0)
   2047c:	fdc42503          	lw	a0,-36(s0)
   20480:	ec9ff0ef          	jal	20348 <thread_entry>
   20484:	00000593          	li	a1,0
   20488:	00000513          	li	a0,0
   2048c:	681050ef          	jal	2630c <main>
   20490:	fea42623          	sw	a0,-20(s0)
   20494:	00000513          	li	a0,0
   20498:	e29ff0ef          	jal	202c0 <exit>

0002049c <putchar>:
putchar():
   2049c:	fe010113          	addi	sp,sp,-32
   204a0:	00112e23          	sw	ra,28(sp)
   204a4:	00812c23          	sw	s0,24(sp)
   204a8:	02010413          	addi	s0,sp,32
   204ac:	fea42623          	sw	a0,-20(s0)
   204b0:	fec42783          	lw	a5,-20(s0)
   204b4:	0ff7f793          	zext.b	a5,a5
   204b8:	00078513          	mv	a0,a5
   204bc:	079020ef          	jal	22d34 <tx_uart>
   204c0:	fec42703          	lw	a4,-20(s0)
   204c4:	00a00793          	li	a5,10
   204c8:	00f71663          	bne	a4,a5,204d4 <putchar+0x38>
   204cc:	00d00513          	li	a0,13
   204d0:	065020ef          	jal	22d34 <tx_uart>
   204d4:	00000793          	li	a5,0
   204d8:	00078513          	mv	a0,a5
   204dc:	01c12083          	lw	ra,28(sp)
   204e0:	01812403          	lw	s0,24(sp)
   204e4:	02010113          	addi	sp,sp,32
   204e8:	00008067          	ret

000204ec <printhex>:
printhex():
   204ec:	fc010113          	addi	sp,sp,-64
   204f0:	02112e23          	sw	ra,60(sp)
   204f4:	02812c23          	sw	s0,56(sp)
   204f8:	04010413          	addi	s0,sp,64
   204fc:	fca42623          	sw	a0,-52(s0)
   20500:	fe042623          	sw	zero,-20(s0)
   20504:	0680006f          	j	2056c <printhex+0x80>
   20508:	fcc42783          	lw	a5,-52(s0)
   2050c:	0ff7f793          	zext.b	a5,a5
   20510:	00f7f793          	andi	a5,a5,15
   20514:	0ff7f713          	zext.b	a4,a5
   20518:	fcc42783          	lw	a5,-52(s0)
   2051c:	00f7f693          	andi	a3,a5,15
   20520:	00900793          	li	a5,9
   20524:	00d7e663          	bltu	a5,a3,20530 <printhex+0x44>
   20528:	03000793          	li	a5,48
   2052c:	0080006f          	j	20534 <printhex+0x48>
   20530:	05700793          	li	a5,87
   20534:	00f00613          	li	a2,15
   20538:	fec42683          	lw	a3,-20(s0)
   2053c:	40d606b3          	sub	a3,a2,a3
   20540:	00e787b3          	add	a5,a5,a4
   20544:	0ff7f713          	zext.b	a4,a5
   20548:	ff068793          	addi	a5,a3,-16
   2054c:	008787b3          	add	a5,a5,s0
   20550:	fee78423          	sb	a4,-24(a5)
   20554:	fcc42783          	lw	a5,-52(s0)
   20558:	0047d793          	srli	a5,a5,0x4
   2055c:	fcf42623          	sw	a5,-52(s0)
   20560:	fec42783          	lw	a5,-20(s0)
   20564:	00178793          	addi	a5,a5,1
   20568:	fef42623          	sw	a5,-20(s0)
   2056c:	fec42703          	lw	a4,-20(s0)
   20570:	00f00793          	li	a5,15
   20574:	f8e7dae3          	bge	a5,a4,20508 <printhex+0x1c>
   20578:	fe040423          	sb	zero,-24(s0)
   2057c:	fd840793          	addi	a5,s0,-40
   20580:	00078513          	mv	a0,a5
   20584:	d91ff0ef          	jal	20314 <printstr>
   20588:	00000013          	nop
   2058c:	03c12083          	lw	ra,60(sp)
   20590:	03812403          	lw	s0,56(sp)
   20594:	04010113          	addi	sp,sp,64
   20598:	00008067          	ret

0002059c <getuint>:
getuint():
   2059c:	fe010113          	addi	sp,sp,-32
   205a0:	00112e23          	sw	ra,28(sp)
   205a4:	00812c23          	sw	s0,24(sp)
   205a8:	02010413          	addi	s0,sp,32
   205ac:	fea42623          	sw	a0,-20(s0)
   205b0:	feb42423          	sw	a1,-24(s0)
   205b4:	fe842603          	lw	a2,-24(s0)
   205b8:	00100693          	li	a3,1
   205bc:	02c6d663          	bge	a3,a2,205e8 <getuint+0x4c>
   205c0:	fec42783          	lw	a5,-20(s0)
   205c4:	0007a783          	lw	a5,0(a5)
   205c8:	00778793          	addi	a5,a5,7
   205cc:	ff87f793          	andi	a5,a5,-8
   205d0:	00878693          	addi	a3,a5,8
   205d4:	fec42703          	lw	a4,-20(s0)
   205d8:	00d72023          	sw	a3,0(a4)
   205dc:	0007a703          	lw	a4,0(a5)
   205e0:	0047a783          	lw	a5,4(a5)
   205e4:	0500006f          	j	20634 <getuint+0x98>
   205e8:	fe842683          	lw	a3,-24(s0)
   205ec:	02068463          	beqz	a3,20614 <getuint+0x78>
   205f0:	fec42683          	lw	a3,-20(s0)
   205f4:	0006a683          	lw	a3,0(a3)
   205f8:	00468593          	addi	a1,a3,4
   205fc:	fec42603          	lw	a2,-20(s0)
   20600:	00b62023          	sw	a1,0(a2)
   20604:	0006a683          	lw	a3,0(a3)
   20608:	00068713          	mv	a4,a3
   2060c:	00000793          	li	a5,0
   20610:	0240006f          	j	20634 <getuint+0x98>
   20614:	fec42683          	lw	a3,-20(s0)
   20618:	0006a683          	lw	a3,0(a3)
   2061c:	00468593          	addi	a1,a3,4
   20620:	fec42603          	lw	a2,-20(s0)
   20624:	00b62023          	sw	a1,0(a2)
   20628:	0006a683          	lw	a3,0(a3)
   2062c:	00068713          	mv	a4,a3
   20630:	00000793          	li	a5,0
   20634:	00070513          	mv	a0,a4
   20638:	00078593          	mv	a1,a5
   2063c:	01c12083          	lw	ra,28(sp)
   20640:	01812403          	lw	s0,24(sp)
   20644:	02010113          	addi	sp,sp,32
   20648:	00008067          	ret

0002064c <getint>:
getint():
   2064c:	fe010113          	addi	sp,sp,-32
   20650:	00112e23          	sw	ra,28(sp)
   20654:	00812c23          	sw	s0,24(sp)
   20658:	02010413          	addi	s0,sp,32
   2065c:	fea42623          	sw	a0,-20(s0)
   20660:	feb42423          	sw	a1,-24(s0)
   20664:	fe842603          	lw	a2,-24(s0)
   20668:	00100693          	li	a3,1
   2066c:	02c6d663          	bge	a3,a2,20698 <getint+0x4c>
   20670:	fec42783          	lw	a5,-20(s0)
   20674:	0007a783          	lw	a5,0(a5)
   20678:	00778793          	addi	a5,a5,7
   2067c:	ff87f793          	andi	a5,a5,-8
   20680:	00878693          	addi	a3,a5,8
   20684:	fec42703          	lw	a4,-20(s0)
   20688:	00d72023          	sw	a3,0(a4)
   2068c:	0007a703          	lw	a4,0(a5)
   20690:	0047a783          	lw	a5,4(a5)
   20694:	0580006f          	j	206ec <getint+0xa0>
   20698:	fe842683          	lw	a3,-24(s0)
   2069c:	02068663          	beqz	a3,206c8 <getint+0x7c>
   206a0:	fec42683          	lw	a3,-20(s0)
   206a4:	0006a683          	lw	a3,0(a3)
   206a8:	00468593          	addi	a1,a3,4
   206ac:	fec42603          	lw	a2,-20(s0)
   206b0:	00b62023          	sw	a1,0(a2)
   206b4:	0006a683          	lw	a3,0(a3)
   206b8:	00068713          	mv	a4,a3
   206bc:	41f6d693          	srai	a3,a3,0x1f
   206c0:	00068793          	mv	a5,a3
   206c4:	0280006f          	j	206ec <getint+0xa0>
   206c8:	fec42683          	lw	a3,-20(s0)
   206cc:	0006a683          	lw	a3,0(a3)
   206d0:	00468593          	addi	a1,a3,4
   206d4:	fec42603          	lw	a2,-20(s0)
   206d8:	00b62023          	sw	a1,0(a2)
   206dc:	0006a683          	lw	a3,0(a3)
   206e0:	00068713          	mv	a4,a3
   206e4:	41f6d693          	srai	a3,a3,0x1f
   206e8:	00068793          	mv	a5,a3
   206ec:	00070513          	mv	a0,a4
   206f0:	00078593          	mv	a1,a5
   206f4:	01c12083          	lw	ra,28(sp)
   206f8:	01812403          	lw	s0,24(sp)
   206fc:	02010113          	addi	sp,sp,32
   20700:	00008067          	ret

00020704 <skip_atoi>:
skip_atoi():
   20704:	fd010113          	addi	sp,sp,-48
   20708:	02112623          	sw	ra,44(sp)
   2070c:	02812423          	sw	s0,40(sp)
   20710:	03010413          	addi	s0,sp,48
   20714:	fca42e23          	sw	a0,-36(s0)
   20718:	fe042623          	sw	zero,-20(s0)
   2071c:	0400006f          	j	2075c <skip_atoi+0x58>
   20720:	fec42703          	lw	a4,-20(s0)
   20724:	00070793          	mv	a5,a4
   20728:	00279793          	slli	a5,a5,0x2
   2072c:	00e787b3          	add	a5,a5,a4
   20730:	00179793          	slli	a5,a5,0x1
   20734:	00078613          	mv	a2,a5
   20738:	fdc42783          	lw	a5,-36(s0)
   2073c:	0007a783          	lw	a5,0(a5)
   20740:	00178693          	addi	a3,a5,1
   20744:	fdc42703          	lw	a4,-36(s0)
   20748:	00d72023          	sw	a3,0(a4)
   2074c:	0007c783          	lbu	a5,0(a5)
   20750:	00f607b3          	add	a5,a2,a5
   20754:	fd078793          	addi	a5,a5,-48
   20758:	fef42623          	sw	a5,-20(s0)
   2075c:	fdc42783          	lw	a5,-36(s0)
   20760:	0007a783          	lw	a5,0(a5)
   20764:	0007c703          	lbu	a4,0(a5)
   20768:	02f00793          	li	a5,47
   2076c:	00e7fc63          	bgeu	a5,a4,20784 <skip_atoi+0x80>
   20770:	fdc42783          	lw	a5,-36(s0)
   20774:	0007a783          	lw	a5,0(a5)
   20778:	0007c703          	lbu	a4,0(a5)
   2077c:	03900793          	li	a5,57
   20780:	fae7f0e3          	bgeu	a5,a4,20720 <skip_atoi+0x1c>
   20784:	fec42783          	lw	a5,-20(s0)
   20788:	00078513          	mv	a0,a5
   2078c:	02c12083          	lw	ra,44(sp)
   20790:	02812403          	lw	s0,40(sp)
   20794:	03010113          	addi	sp,sp,48
   20798:	00008067          	ret

0002079c <atoi>:
atoi():
   2079c:	fd010113          	addi	sp,sp,-48
   207a0:	02112623          	sw	ra,44(sp)
   207a4:	02812423          	sw	s0,40(sp)
   207a8:	03010413          	addi	s0,sp,48
   207ac:	fca42e23          	sw	a0,-36(s0)
   207b0:	fe042623          	sw	zero,-20(s0)
   207b4:	fe042423          	sw	zero,-24(s0)
   207b8:	0440006f          	j	207fc <atoi+0x60>
   207bc:	fec42703          	lw	a4,-20(s0)
   207c0:	00070793          	mv	a5,a4
   207c4:	00279793          	slli	a5,a5,0x2
   207c8:	00e787b3          	add	a5,a5,a4
   207cc:	00179793          	slli	a5,a5,0x1
   207d0:	00078693          	mv	a3,a5
   207d4:	fe842783          	lw	a5,-24(s0)
   207d8:	fdc42703          	lw	a4,-36(s0)
   207dc:	00f707b3          	add	a5,a4,a5
   207e0:	0007c783          	lbu	a5,0(a5)
   207e4:	00f687b3          	add	a5,a3,a5
   207e8:	fd078793          	addi	a5,a5,-48
   207ec:	fef42623          	sw	a5,-20(s0)
   207f0:	fe842783          	lw	a5,-24(s0)
   207f4:	00178793          	addi	a5,a5,1
   207f8:	fef42423          	sw	a5,-24(s0)
   207fc:	fe842783          	lw	a5,-24(s0)
   20800:	fdc42703          	lw	a4,-36(s0)
   20804:	00f707b3          	add	a5,a4,a5
   20808:	0007c783          	lbu	a5,0(a5)
   2080c:	fa0798e3          	bnez	a5,207bc <atoi+0x20>
   20810:	fec42783          	lw	a5,-20(s0)
   20814:	00078513          	mv	a0,a5
   20818:	02c12083          	lw	ra,44(sp)
   2081c:	02812403          	lw	s0,40(sp)
   20820:	03010113          	addi	sp,sp,48
   20824:	00008067          	ret

00020828 <atof>:
atof():
   20828:	fd010113          	addi	sp,sp,-48
   2082c:	02112623          	sw	ra,44(sp)
   20830:	02812423          	sw	s0,40(sp)
   20834:	02912223          	sw	s1,36(sp)
   20838:	03010413          	addi	s0,sp,48
   2083c:	fca42e23          	sw	a0,-36(s0)
   20840:	00000793          	li	a5,0
   20844:	fef42623          	sw	a5,-20(s0)
   20848:	00006797          	auipc	a5,0x6
   2084c:	39478793          	addi	a5,a5,916 # 26bdc <__fpclassifyd+0x34c>
   20850:	0007a783          	lw	a5,0(a5)
   20854:	fef42423          	sw	a5,-24(s0)
   20858:	fdc42783          	lw	a5,-36(s0)
   2085c:	0007c703          	lbu	a4,0(a5)
   20860:	02d00793          	li	a5,45
   20864:	02f71063          	bne	a4,a5,20884 <atof+0x5c>
   20868:	fdc42783          	lw	a5,-36(s0)
   2086c:	00178793          	addi	a5,a5,1
   20870:	fcf42e23          	sw	a5,-36(s0)
   20874:	00006797          	auipc	a5,0x6
   20878:	36c78793          	addi	a5,a5,876 # 26be0 <__fpclassifyd+0x350>
   2087c:	0007a783          	lw	a5,0(a5)
   20880:	fef42423          	sw	a5,-24(s0)
   20884:	fe042223          	sw	zero,-28(s0)
   20888:	0b00006f          	j	20938 <atof+0x110>
   2088c:	fdc42783          	lw	a5,-36(s0)
   20890:	0007c703          	lbu	a4,0(a5)
   20894:	02e00793          	li	a5,46
   20898:	00f71863          	bne	a4,a5,208a8 <atof+0x80>
   2089c:	00100793          	li	a5,1
   208a0:	fef42223          	sw	a5,-28(s0)
   208a4:	0880006f          	j	2092c <atof+0x104>
   208a8:	fdc42783          	lw	a5,-36(s0)
   208ac:	0007c783          	lbu	a5,0(a5)
   208b0:	fd078793          	addi	a5,a5,-48
   208b4:	fef42023          	sw	a5,-32(s0)
   208b8:	fe042783          	lw	a5,-32(s0)
   208bc:	0607c863          	bltz	a5,2092c <atof+0x104>
   208c0:	fe042703          	lw	a4,-32(s0)
   208c4:	00900793          	li	a5,9
   208c8:	06e7c263          	blt	a5,a4,2092c <atof+0x104>
   208cc:	fe442783          	lw	a5,-28(s0)
   208d0:	02078063          	beqz	a5,208f0 <atof+0xc8>
   208d4:	00006797          	auipc	a5,0x6
   208d8:	31078793          	addi	a5,a5,784 # 26be4 <__fpclassifyd+0x354>
   208dc:	0007a583          	lw	a1,0(a5)
   208e0:	fe842503          	lw	a0,-24(s0)
   208e4:	5d9040ef          	jal	256bc <__divsf3>
   208e8:	00050793          	mv	a5,a0
   208ec:	fef42423          	sw	a5,-24(s0)
   208f0:	00006797          	auipc	a5,0x6
   208f4:	2f478793          	addi	a5,a5,756 # 26be4 <__fpclassifyd+0x354>
   208f8:	0007a583          	lw	a1,0(a5)
   208fc:	fec42503          	lw	a0,-20(s0)
   20900:	0d8050ef          	jal	259d8 <__mulsf3>
   20904:	00050793          	mv	a5,a0
   20908:	00078493          	mv	s1,a5
   2090c:	fe042503          	lw	a0,-32(s0)
   20910:	3e4050ef          	jal	25cf4 <__floatsisf>
   20914:	00050793          	mv	a5,a0
   20918:	00078593          	mv	a1,a5
   2091c:	00048513          	mv	a0,s1
   20920:	16d040ef          	jal	2528c <__addsf3>
   20924:	00050793          	mv	a5,a0
   20928:	fef42623          	sw	a5,-20(s0)
   2092c:	fdc42783          	lw	a5,-36(s0)
   20930:	00178793          	addi	a5,a5,1
   20934:	fcf42e23          	sw	a5,-36(s0)
   20938:	fdc42783          	lw	a5,-36(s0)
   2093c:	0007c783          	lbu	a5,0(a5)
   20940:	f40796e3          	bnez	a5,2088c <atof+0x64>
   20944:	fe842583          	lw	a1,-24(s0)
   20948:	fec42503          	lw	a0,-20(s0)
   2094c:	08c050ef          	jal	259d8 <__mulsf3>
   20950:	00050793          	mv	a5,a0
   20954:	00078513          	mv	a0,a5
   20958:	02c12083          	lw	ra,44(sp)
   2095c:	02812403          	lw	s0,40(sp)
   20960:	02412483          	lw	s1,36(sp)
   20964:	03010113          	addi	sp,sp,48
   20968:	00008067          	ret

0002096c <_usleep>:
_usleep():
   2096c:	fe010113          	addi	sp,sp,-32
   20970:	00112e23          	sw	ra,28(sp)
   20974:	00812c23          	sw	s0,24(sp)
   20978:	02010413          	addi	s0,sp,32
   2097c:	fea42623          	sw	a0,-20(s0)
   20980:	fec42703          	lw	a4,-20(s0)
   20984:	00cb77b7          	lui	a5,0xcb7
   20988:	35578793          	addi	a5,a5,853 # cb7355 <_heap_end+0xc8e395>
   2098c:	02f70733          	mul	a4,a4,a5
   20990:	80c18793          	addi	a5,gp,-2036 # 26f6c <loop_count>
   20994:	00e7a023          	sw	a4,0(a5)
   20998:	ff810113          	addi	sp,sp,-8
   2099c:	00a12023          	sw	a0,0(sp)
   209a0:	00b12223          	sw	a1,4(sp)
   209a4:	80c18513          	addi	a0,gp,-2036 # 26f6c <loop_count>
   209a8:	00052583          	lw	a1,0(a0)

000209ac <loop_us>:
   209ac:	fff58593          	addi	a1,a1,-1
   209b0:	fe059ee3          	bnez	a1,209ac <loop_us>
   209b4:	00012503          	lw	a0,0(sp)
   209b8:	00412583          	lw	a1,4(sp)
   209bc:	00810113          	addi	sp,sp,8
   209c0:	00000013          	nop
   209c4:	00078513          	mv	a0,a5
   209c8:	01c12083          	lw	ra,28(sp)
   209cc:	01812403          	lw	s0,24(sp)
   209d0:	02010113          	addi	sp,sp,32
   209d4:	00008067          	ret

000209d8 <udelay>:
udelay():
   209d8:	fd010113          	addi	sp,sp,-48
   209dc:	02112623          	sw	ra,44(sp)
   209e0:	02812423          	sw	s0,40(sp)
   209e4:	03010413          	addi	s0,sp,48
   209e8:	fca42e23          	sw	a0,-36(s0)
   209ec:	fe042623          	sw	zero,-20(s0)
   209f0:	0100006f          	j	20a00 <udelay+0x28>
   209f4:	fec42783          	lw	a5,-20(s0)
   209f8:	00178793          	addi	a5,a5,1
   209fc:	fef42623          	sw	a5,-20(s0)
   20a00:	fdc42703          	lw	a4,-36(s0)
   20a04:	00070793          	mv	a5,a4
   20a08:	00379793          	slli	a5,a5,0x3
   20a0c:	00e787b3          	add	a5,a5,a4
   20a10:	00279793          	slli	a5,a5,0x2
   20a14:	40e78733          	sub	a4,a5,a4
   20a18:	fec42783          	lw	a5,-20(s0)
   20a1c:	fce7ece3          	bltu	a5,a4,209f4 <udelay+0x1c>
   20a20:	00000013          	nop
   20a24:	00078513          	mv	a0,a5
   20a28:	02c12083          	lw	ra,44(sp)
   20a2c:	02812403          	lw	s0,40(sp)
   20a30:	03010113          	addi	sp,sp,48
   20a34:	00008067          	ret

00020a38 <usleep>:
usleep():
   20a38:	fe010113          	addi	sp,sp,-32
   20a3c:	00112e23          	sw	ra,28(sp)
   20a40:	00812c23          	sw	s0,24(sp)
   20a44:	02010413          	addi	s0,sp,32
   20a48:	fea42623          	sw	a0,-20(s0)
   20a4c:	fec42683          	lw	a3,-20(s0)
   20a50:	00068793          	mv	a5,a3
   20a54:	00100813          	li	a6,1
   20a58:	05078063          	beq	a5,a6,20a98 <final>
   20a5c:	00300813          	li	a6,3
   20a60:	0107dc63          	bge	a5,a6,20a78 <cycle_loop>

00020a64 <loop>:
   20a64:	fff78793          	addi	a5,a5,-1
   20a68:	00000013          	nop
   20a6c:	00000013          	nop
   20a70:	fe079ae3          	bnez	a5,20a64 <loop>
   20a74:	0240006f          	j	20a98 <final>

00020a78 <cycle_loop>:
   20a78:	02100713          	li	a4,33
   20a7c:	00078293          	mv	t0,a5
   20a80:	00000793          	li	a5,0

00020a84 <mul_loop>:
   20a84:	005787b3          	add	a5,a5,t0
   20a88:	fff70713          	addi	a4,a4,-1
   20a8c:	fe071ce3          	bnez	a4,20a84 <mul_loop>

00020a90 <loop1>:
   20a90:	fff78793          	addi	a5,a5,-1
   20a94:	fe079ee3          	bnez	a5,20a90 <loop1>

00020a98 <final>:
   20a98:	00000013          	nop
   20a9c:	01c12083          	lw	ra,28(sp)
   20aa0:	01812403          	lw	s0,24(sp)
   20aa4:	02010113          	addi	sp,sp,32
   20aa8:	00008067          	ret

00020aac <get_time>:
get_time():
   20aac:	fe010113          	addi	sp,sp,-32
   20ab0:	00112e23          	sw	ra,28(sp)
   20ab4:	00812c23          	sw	s0,24(sp)
   20ab8:	02010413          	addi	s0,sp,32
   20abc:	b00027f3          	csrr	a5,mcycle
   20ac0:	fef42623          	sw	a5,-20(s0)
   20ac4:	fec42783          	lw	a5,-20(s0)
   20ac8:	fef42423          	sw	a5,-24(s0)
   20acc:	fe842783          	lw	a5,-24(s0)
   20ad0:	00078513          	mv	a0,a5
   20ad4:	01c12083          	lw	ra,28(sp)
   20ad8:	01812403          	lw	s0,24(sp)
   20adc:	02010113          	addi	sp,sp,32
   20ae0:	00008067          	ret

00020ae4 <number>:
number():
   20ae4:	f8010113          	addi	sp,sp,-128
   20ae8:	06112e23          	sw	ra,124(sp)
   20aec:	06812c23          	sw	s0,120(sp)
   20af0:	08010413          	addi	s0,sp,128
   20af4:	f8a42e23          	sw	a0,-100(s0)
   20af8:	f8b42c23          	sw	a1,-104(s0)
   20afc:	f8c42a23          	sw	a2,-108(s0)
   20b00:	f8d42823          	sw	a3,-112(s0)
   20b04:	f8e42623          	sw	a4,-116(s0)
   20b08:	f8f42423          	sw	a5,-120(s0)
   20b0c:	00006797          	auipc	a5,0x6
   20b10:	45478793          	addi	a5,a5,1108 # 26f60 <digits>
   20b14:	0007a783          	lw	a5,0(a5)
   20b18:	fef42423          	sw	a5,-24(s0)
   20b1c:	f8842783          	lw	a5,-120(s0)
   20b20:	0407f793          	andi	a5,a5,64
   20b24:	00078a63          	beqz	a5,20b38 <number+0x54>
   20b28:	00006797          	auipc	a5,0x6
   20b2c:	43c78793          	addi	a5,a5,1084 # 26f64 <upper_digits>
   20b30:	0007a783          	lw	a5,0(a5)
   20b34:	fef42423          	sw	a5,-24(s0)
   20b38:	f8842783          	lw	a5,-120(s0)
   20b3c:	0107f793          	andi	a5,a5,16
   20b40:	00078863          	beqz	a5,20b50 <number+0x6c>
   20b44:	f8842783          	lw	a5,-120(s0)
   20b48:	ffe7f793          	andi	a5,a5,-2
   20b4c:	f8f42423          	sw	a5,-120(s0)
   20b50:	f9442703          	lw	a4,-108(s0)
   20b54:	00100793          	li	a5,1
   20b58:	00e7d863          	bge	a5,a4,20b68 <number+0x84>
   20b5c:	f9442703          	lw	a4,-108(s0)
   20b60:	02400793          	li	a5,36
   20b64:	00e7d663          	bge	a5,a4,20b70 <number+0x8c>
   20b68:	00000793          	li	a5,0
   20b6c:	2f80006f          	j	20e64 <number+0x380>
   20b70:	f8842783          	lw	a5,-120(s0)
   20b74:	0017f793          	andi	a5,a5,1
   20b78:	00078663          	beqz	a5,20b84 <number+0xa0>
   20b7c:	03000793          	li	a5,48
   20b80:	0080006f          	j	20b88 <number+0xa4>
   20b84:	02000793          	li	a5,32
   20b88:	fef401a3          	sb	a5,-29(s0)
   20b8c:	fe0407a3          	sb	zero,-17(s0)
   20b90:	f8842783          	lw	a5,-120(s0)
   20b94:	0027f793          	andi	a5,a5,2
   20b98:	06078a63          	beqz	a5,20c0c <number+0x128>
   20b9c:	f9842783          	lw	a5,-104(s0)
   20ba0:	0207d463          	bgez	a5,20bc8 <number+0xe4>
   20ba4:	02d00793          	li	a5,45
   20ba8:	fef407a3          	sb	a5,-17(s0)
   20bac:	f9842783          	lw	a5,-104(s0)
   20bb0:	40f007b3          	neg	a5,a5
   20bb4:	f8f42c23          	sw	a5,-104(s0)
   20bb8:	f9042783          	lw	a5,-112(s0)
   20bbc:	fff78793          	addi	a5,a5,-1
   20bc0:	f8f42823          	sw	a5,-112(s0)
   20bc4:	0480006f          	j	20c0c <number+0x128>
   20bc8:	f8842783          	lw	a5,-120(s0)
   20bcc:	0047f793          	andi	a5,a5,4
   20bd0:	00078e63          	beqz	a5,20bec <number+0x108>
   20bd4:	02b00793          	li	a5,43
   20bd8:	fef407a3          	sb	a5,-17(s0)
   20bdc:	f9042783          	lw	a5,-112(s0)
   20be0:	fff78793          	addi	a5,a5,-1
   20be4:	f8f42823          	sw	a5,-112(s0)
   20be8:	0240006f          	j	20c0c <number+0x128>
   20bec:	f8842783          	lw	a5,-120(s0)
   20bf0:	0087f793          	andi	a5,a5,8
   20bf4:	00078c63          	beqz	a5,20c0c <number+0x128>
   20bf8:	02000793          	li	a5,32
   20bfc:	fef407a3          	sb	a5,-17(s0)
   20c00:	f9042783          	lw	a5,-112(s0)
   20c04:	fff78793          	addi	a5,a5,-1
   20c08:	f8f42823          	sw	a5,-112(s0)
   20c0c:	f8842783          	lw	a5,-120(s0)
   20c10:	0207f793          	andi	a5,a5,32
   20c14:	02078c63          	beqz	a5,20c4c <number+0x168>
   20c18:	f9442703          	lw	a4,-108(s0)
   20c1c:	01000793          	li	a5,16
   20c20:	00f71a63          	bne	a4,a5,20c34 <number+0x150>
   20c24:	f9042783          	lw	a5,-112(s0)
   20c28:	ffe78793          	addi	a5,a5,-2
   20c2c:	f8f42823          	sw	a5,-112(s0)
   20c30:	01c0006f          	j	20c4c <number+0x168>
   20c34:	f9442703          	lw	a4,-108(s0)
   20c38:	00800793          	li	a5,8
   20c3c:	00f71863          	bne	a4,a5,20c4c <number+0x168>
   20c40:	f9042783          	lw	a5,-112(s0)
   20c44:	fff78793          	addi	a5,a5,-1
   20c48:	f8f42823          	sw	a5,-112(s0)
   20c4c:	fe042223          	sw	zero,-28(s0)
   20c50:	f9842783          	lw	a5,-104(s0)
   20c54:	06079263          	bnez	a5,20cb8 <number+0x1d4>
   20c58:	fe442783          	lw	a5,-28(s0)
   20c5c:	00178713          	addi	a4,a5,1
   20c60:	fee42223          	sw	a4,-28(s0)
   20c64:	ff078793          	addi	a5,a5,-16
   20c68:	008787b3          	add	a5,a5,s0
   20c6c:	03000713          	li	a4,48
   20c70:	fae78823          	sb	a4,-80(a5)
   20c74:	04c0006f          	j	20cc0 <number+0x1dc>
   20c78:	f9842703          	lw	a4,-104(s0)
   20c7c:	f9442783          	lw	a5,-108(s0)
   20c80:	02f777b3          	remu	a5,a4,a5
   20c84:	fe842703          	lw	a4,-24(s0)
   20c88:	00f70733          	add	a4,a4,a5
   20c8c:	fe442783          	lw	a5,-28(s0)
   20c90:	00178693          	addi	a3,a5,1
   20c94:	fed42223          	sw	a3,-28(s0)
   20c98:	00074703          	lbu	a4,0(a4)
   20c9c:	ff078793          	addi	a5,a5,-16
   20ca0:	008787b3          	add	a5,a5,s0
   20ca4:	fae78823          	sb	a4,-80(a5)
   20ca8:	f9842703          	lw	a4,-104(s0)
   20cac:	f9442783          	lw	a5,-108(s0)
   20cb0:	02f757b3          	divu	a5,a4,a5
   20cb4:	f8f42c23          	sw	a5,-104(s0)
   20cb8:	f9842783          	lw	a5,-104(s0)
   20cbc:	fa079ee3          	bnez	a5,20c78 <number+0x194>
   20cc0:	fe442703          	lw	a4,-28(s0)
   20cc4:	f8c42783          	lw	a5,-116(s0)
   20cc8:	00e7d663          	bge	a5,a4,20cd4 <number+0x1f0>
   20ccc:	fe442783          	lw	a5,-28(s0)
   20cd0:	f8f42623          	sw	a5,-116(s0)
   20cd4:	f9042703          	lw	a4,-112(s0)
   20cd8:	f8c42783          	lw	a5,-116(s0)
   20cdc:	40f707b3          	sub	a5,a4,a5
   20ce0:	f8f42823          	sw	a5,-112(s0)
   20ce4:	f8842783          	lw	a5,-120(s0)
   20ce8:	0117f793          	andi	a5,a5,17
   20cec:	02079663          	bnez	a5,20d18 <number+0x234>
   20cf0:	0180006f          	j	20d08 <number+0x224>
   20cf4:	f9c42783          	lw	a5,-100(s0)
   20cf8:	00178713          	addi	a4,a5,1
   20cfc:	f8e42e23          	sw	a4,-100(s0)
   20d00:	02000713          	li	a4,32
   20d04:	00e78023          	sb	a4,0(a5)
   20d08:	f9042783          	lw	a5,-112(s0)
   20d0c:	fff78713          	addi	a4,a5,-1
   20d10:	f8e42823          	sw	a4,-112(s0)
   20d14:	fef040e3          	bgtz	a5,20cf4 <number+0x210>
   20d18:	fef44783          	lbu	a5,-17(s0)
   20d1c:	00078c63          	beqz	a5,20d34 <number+0x250>
   20d20:	f9c42783          	lw	a5,-100(s0)
   20d24:	00178713          	addi	a4,a5,1
   20d28:	f8e42e23          	sw	a4,-100(s0)
   20d2c:	fef44703          	lbu	a4,-17(s0)
   20d30:	00e78023          	sb	a4,0(a5)
   20d34:	f8842783          	lw	a5,-120(s0)
   20d38:	0207f793          	andi	a5,a5,32
   20d3c:	06078463          	beqz	a5,20da4 <number+0x2c0>
   20d40:	f9442703          	lw	a4,-108(s0)
   20d44:	00800793          	li	a5,8
   20d48:	00f71e63          	bne	a4,a5,20d64 <number+0x280>
   20d4c:	f9c42783          	lw	a5,-100(s0)
   20d50:	00178713          	addi	a4,a5,1
   20d54:	f8e42e23          	sw	a4,-100(s0)
   20d58:	03000713          	li	a4,48
   20d5c:	00e78023          	sb	a4,0(a5)
   20d60:	0440006f          	j	20da4 <number+0x2c0>
   20d64:	f9442703          	lw	a4,-108(s0)
   20d68:	01000793          	li	a5,16
   20d6c:	02f71c63          	bne	a4,a5,20da4 <number+0x2c0>
   20d70:	f9c42783          	lw	a5,-100(s0)
   20d74:	00178713          	addi	a4,a5,1
   20d78:	f8e42e23          	sw	a4,-100(s0)
   20d7c:	03000713          	li	a4,48
   20d80:	00e78023          	sb	a4,0(a5)
   20d84:	00006797          	auipc	a5,0x6
   20d88:	1dc78793          	addi	a5,a5,476 # 26f60 <digits>
   20d8c:	0007a703          	lw	a4,0(a5)
   20d90:	f9c42783          	lw	a5,-100(s0)
   20d94:	00178693          	addi	a3,a5,1
   20d98:	f8d42e23          	sw	a3,-100(s0)
   20d9c:	02174703          	lbu	a4,33(a4)
   20da0:	00e78023          	sb	a4,0(a5)
   20da4:	f8842783          	lw	a5,-120(s0)
   20da8:	0107f793          	andi	a5,a5,16
   20dac:	04079263          	bnez	a5,20df0 <number+0x30c>
   20db0:	0180006f          	j	20dc8 <number+0x2e4>
   20db4:	f9c42783          	lw	a5,-100(s0)
   20db8:	00178713          	addi	a4,a5,1
   20dbc:	f8e42e23          	sw	a4,-100(s0)
   20dc0:	fe344703          	lbu	a4,-29(s0)
   20dc4:	00e78023          	sb	a4,0(a5)
   20dc8:	f9042783          	lw	a5,-112(s0)
   20dcc:	fff78713          	addi	a4,a5,-1
   20dd0:	f8e42823          	sw	a4,-112(s0)
   20dd4:	fef040e3          	bgtz	a5,20db4 <number+0x2d0>
   20dd8:	0180006f          	j	20df0 <number+0x30c>
   20ddc:	f9c42783          	lw	a5,-100(s0)
   20de0:	00178713          	addi	a4,a5,1
   20de4:	f8e42e23          	sw	a4,-100(s0)
   20de8:	03000713          	li	a4,48
   20dec:	00e78023          	sb	a4,0(a5)
   20df0:	f8c42783          	lw	a5,-116(s0)
   20df4:	fff78713          	addi	a4,a5,-1
   20df8:	f8e42623          	sw	a4,-116(s0)
   20dfc:	fe442703          	lw	a4,-28(s0)
   20e00:	fcf74ee3          	blt	a4,a5,20ddc <number+0x2f8>
   20e04:	0240006f          	j	20e28 <number+0x344>
   20e08:	f9c42783          	lw	a5,-100(s0)
   20e0c:	00178713          	addi	a4,a5,1
   20e10:	f8e42e23          	sw	a4,-100(s0)
   20e14:	fe442703          	lw	a4,-28(s0)
   20e18:	ff070713          	addi	a4,a4,-16
   20e1c:	00870733          	add	a4,a4,s0
   20e20:	fb074703          	lbu	a4,-80(a4)
   20e24:	00e78023          	sb	a4,0(a5)
   20e28:	fe442783          	lw	a5,-28(s0)
   20e2c:	fff78713          	addi	a4,a5,-1
   20e30:	fee42223          	sw	a4,-28(s0)
   20e34:	fcf04ae3          	bgtz	a5,20e08 <number+0x324>
   20e38:	0180006f          	j	20e50 <number+0x36c>
   20e3c:	f9c42783          	lw	a5,-100(s0)
   20e40:	00178713          	addi	a4,a5,1
   20e44:	f8e42e23          	sw	a4,-100(s0)
   20e48:	02000713          	li	a4,32
   20e4c:	00e78023          	sb	a4,0(a5)
   20e50:	f9042783          	lw	a5,-112(s0)
   20e54:	fff78713          	addi	a4,a5,-1
   20e58:	f8e42823          	sw	a4,-112(s0)
   20e5c:	fef040e3          	bgtz	a5,20e3c <number+0x358>
   20e60:	f9c42783          	lw	a5,-100(s0)
   20e64:	00078513          	mv	a0,a5
   20e68:	07c12083          	lw	ra,124(sp)
   20e6c:	07812403          	lw	s0,120(sp)
   20e70:	08010113          	addi	sp,sp,128
   20e74:	00008067          	ret

00020e78 <eaddr>:
eaddr():
   20e78:	fa010113          	addi	sp,sp,-96
   20e7c:	04112e23          	sw	ra,92(sp)
   20e80:	04812c23          	sw	s0,88(sp)
   20e84:	06010413          	addi	s0,sp,96
   20e88:	faa42e23          	sw	a0,-68(s0)
   20e8c:	fab42c23          	sw	a1,-72(s0)
   20e90:	fac42a23          	sw	a2,-76(s0)
   20e94:	fad42823          	sw	a3,-80(s0)
   20e98:	fae42623          	sw	a4,-84(s0)
   20e9c:	00006797          	auipc	a5,0x6
   20ea0:	0c478793          	addi	a5,a5,196 # 26f60 <digits>
   20ea4:	0007a783          	lw	a5,0(a5)
   20ea8:	fef42623          	sw	a5,-20(s0)
   20eac:	fac42783          	lw	a5,-84(s0)
   20eb0:	0407f793          	andi	a5,a5,64
   20eb4:	00078a63          	beqz	a5,20ec8 <eaddr+0x50>
   20eb8:	00006797          	auipc	a5,0x6
   20ebc:	0ac78793          	addi	a5,a5,172 # 26f64 <upper_digits>
   20ec0:	0007a783          	lw	a5,0(a5)
   20ec4:	fef42623          	sw	a5,-20(s0)
   20ec8:	fe042223          	sw	zero,-28(s0)
   20ecc:	fe042423          	sw	zero,-24(s0)
   20ed0:	0ac0006f          	j	20f7c <eaddr+0x104>
   20ed4:	fe842783          	lw	a5,-24(s0)
   20ed8:	02078063          	beqz	a5,20ef8 <eaddr+0x80>
   20edc:	fe442783          	lw	a5,-28(s0)
   20ee0:	00178713          	addi	a4,a5,1
   20ee4:	fee42223          	sw	a4,-28(s0)
   20ee8:	ff078793          	addi	a5,a5,-16
   20eec:	008787b3          	add	a5,a5,s0
   20ef0:	03a00713          	li	a4,58
   20ef4:	fce78e23          	sb	a4,-36(a5)
   20ef8:	fe842783          	lw	a5,-24(s0)
   20efc:	fb842703          	lw	a4,-72(s0)
   20f00:	00f707b3          	add	a5,a4,a5
   20f04:	0007c783          	lbu	a5,0(a5)
   20f08:	0047d793          	srli	a5,a5,0x4
   20f0c:	0ff7f793          	zext.b	a5,a5
   20f10:	00078713          	mv	a4,a5
   20f14:	fec42783          	lw	a5,-20(s0)
   20f18:	00e78733          	add	a4,a5,a4
   20f1c:	fe442783          	lw	a5,-28(s0)
   20f20:	00178693          	addi	a3,a5,1
   20f24:	fed42223          	sw	a3,-28(s0)
   20f28:	00074703          	lbu	a4,0(a4)
   20f2c:	ff078793          	addi	a5,a5,-16
   20f30:	008787b3          	add	a5,a5,s0
   20f34:	fce78e23          	sb	a4,-36(a5)
   20f38:	fe842783          	lw	a5,-24(s0)
   20f3c:	fb842703          	lw	a4,-72(s0)
   20f40:	00f707b3          	add	a5,a4,a5
   20f44:	0007c783          	lbu	a5,0(a5)
   20f48:	00f7f793          	andi	a5,a5,15
   20f4c:	fec42703          	lw	a4,-20(s0)
   20f50:	00f70733          	add	a4,a4,a5
   20f54:	fe442783          	lw	a5,-28(s0)
   20f58:	00178693          	addi	a3,a5,1
   20f5c:	fed42223          	sw	a3,-28(s0)
   20f60:	00074703          	lbu	a4,0(a4)
   20f64:	ff078793          	addi	a5,a5,-16
   20f68:	008787b3          	add	a5,a5,s0
   20f6c:	fce78e23          	sb	a4,-36(a5)
   20f70:	fe842783          	lw	a5,-24(s0)
   20f74:	00178793          	addi	a5,a5,1
   20f78:	fef42423          	sw	a5,-24(s0)
   20f7c:	fe842703          	lw	a4,-24(s0)
   20f80:	00500793          	li	a5,5
   20f84:	f4e7d8e3          	bge	a5,a4,20ed4 <eaddr+0x5c>
   20f88:	fac42783          	lw	a5,-84(s0)
   20f8c:	0107f793          	andi	a5,a5,16
   20f90:	02079863          	bnez	a5,20fc0 <eaddr+0x148>
   20f94:	0180006f          	j	20fac <eaddr+0x134>
   20f98:	fbc42783          	lw	a5,-68(s0)
   20f9c:	00178713          	addi	a4,a5,1
   20fa0:	fae42e23          	sw	a4,-68(s0)
   20fa4:	02000713          	li	a4,32
   20fa8:	00e78023          	sb	a4,0(a5)
   20fac:	fb442783          	lw	a5,-76(s0)
   20fb0:	fff78713          	addi	a4,a5,-1
   20fb4:	fae42a23          	sw	a4,-76(s0)
   20fb8:	fe442703          	lw	a4,-28(s0)
   20fbc:	fcf74ee3          	blt	a4,a5,20f98 <eaddr+0x120>
   20fc0:	fe042423          	sw	zero,-24(s0)
   20fc4:	0300006f          	j	20ff4 <eaddr+0x17c>
   20fc8:	fbc42783          	lw	a5,-68(s0)
   20fcc:	00178713          	addi	a4,a5,1
   20fd0:	fae42e23          	sw	a4,-68(s0)
   20fd4:	fe842703          	lw	a4,-24(s0)
   20fd8:	ff070713          	addi	a4,a4,-16
   20fdc:	00870733          	add	a4,a4,s0
   20fe0:	fdc74703          	lbu	a4,-36(a4)
   20fe4:	00e78023          	sb	a4,0(a5)
   20fe8:	fe842783          	lw	a5,-24(s0)
   20fec:	00178793          	addi	a5,a5,1
   20ff0:	fef42423          	sw	a5,-24(s0)
   20ff4:	fe842703          	lw	a4,-24(s0)
   20ff8:	fe442783          	lw	a5,-28(s0)
   20ffc:	fcf746e3          	blt	a4,a5,20fc8 <eaddr+0x150>
   21000:	0180006f          	j	21018 <eaddr+0x1a0>
   21004:	fbc42783          	lw	a5,-68(s0)
   21008:	00178713          	addi	a4,a5,1
   2100c:	fae42e23          	sw	a4,-68(s0)
   21010:	02000713          	li	a4,32
   21014:	00e78023          	sb	a4,0(a5)
   21018:	fb442783          	lw	a5,-76(s0)
   2101c:	fff78713          	addi	a4,a5,-1
   21020:	fae42a23          	sw	a4,-76(s0)
   21024:	fe442703          	lw	a4,-28(s0)
   21028:	fcf74ee3          	blt	a4,a5,21004 <eaddr+0x18c>
   2102c:	fbc42783          	lw	a5,-68(s0)
   21030:	00078513          	mv	a0,a5
   21034:	05c12083          	lw	ra,92(sp)
   21038:	05812403          	lw	s0,88(sp)
   2103c:	06010113          	addi	sp,sp,96
   21040:	00008067          	ret

00021044 <iaddr>:
iaddr():
   21044:	fa010113          	addi	sp,sp,-96
   21048:	04112e23          	sw	ra,92(sp)
   2104c:	04812c23          	sw	s0,88(sp)
   21050:	06010413          	addi	s0,sp,96
   21054:	faa42e23          	sw	a0,-68(s0)
   21058:	fab42c23          	sw	a1,-72(s0)
   2105c:	fac42a23          	sw	a2,-76(s0)
   21060:	fad42823          	sw	a3,-80(s0)
   21064:	fae42623          	sw	a4,-84(s0)
   21068:	fe042223          	sw	zero,-28(s0)
   2106c:	fe042623          	sw	zero,-20(s0)
   21070:	2340006f          	j	212a4 <iaddr+0x260>
   21074:	fec42783          	lw	a5,-20(s0)
   21078:	02078063          	beqz	a5,21098 <iaddr+0x54>
   2107c:	fe442783          	lw	a5,-28(s0)
   21080:	00178713          	addi	a4,a5,1
   21084:	fee42223          	sw	a4,-28(s0)
   21088:	ff078793          	addi	a5,a5,-16
   2108c:	008787b3          	add	a5,a5,s0
   21090:	02e00713          	li	a4,46
   21094:	fce78e23          	sb	a4,-36(a5)
   21098:	fec42783          	lw	a5,-20(s0)
   2109c:	fb842703          	lw	a4,-72(s0)
   210a0:	00f707b3          	add	a5,a4,a5
   210a4:	0007c783          	lbu	a5,0(a5)
   210a8:	fef42423          	sw	a5,-24(s0)
   210ac:	fe842783          	lw	a5,-24(s0)
   210b0:	02079863          	bnez	a5,210e0 <iaddr+0x9c>
   210b4:	00006797          	auipc	a5,0x6
   210b8:	eac78793          	addi	a5,a5,-340 # 26f60 <digits>
   210bc:	0007a703          	lw	a4,0(a5)
   210c0:	fe442783          	lw	a5,-28(s0)
   210c4:	00178693          	addi	a3,a5,1
   210c8:	fed42223          	sw	a3,-28(s0)
   210cc:	00074703          	lbu	a4,0(a4)
   210d0:	ff078793          	addi	a5,a5,-16
   210d4:	008787b3          	add	a5,a5,s0
   210d8:	fce78e23          	sb	a4,-36(a5)
   210dc:	1bc0006f          	j	21298 <iaddr+0x254>
   210e0:	fe842703          	lw	a4,-24(s0)
   210e4:	06300793          	li	a5,99
   210e8:	0ee7dc63          	bge	a5,a4,211e0 <iaddr+0x19c>
   210ec:	00006797          	auipc	a5,0x6
   210f0:	e7478793          	addi	a5,a5,-396 # 26f60 <digits>
   210f4:	0007a703          	lw	a4,0(a5)
   210f8:	fe842783          	lw	a5,-24(s0)
   210fc:	51eb86b7          	lui	a3,0x51eb8
   21100:	51f68693          	addi	a3,a3,1311 # 51eb851f <_heap_end+0x51e8f55f>
   21104:	02d796b3          	mulh	a3,a5,a3
   21108:	4056d693          	srai	a3,a3,0x5
   2110c:	41f7d793          	srai	a5,a5,0x1f
   21110:	40f687b3          	sub	a5,a3,a5
   21114:	00f70733          	add	a4,a4,a5
   21118:	fe442783          	lw	a5,-28(s0)
   2111c:	00178693          	addi	a3,a5,1
   21120:	fed42223          	sw	a3,-28(s0)
   21124:	00074703          	lbu	a4,0(a4)
   21128:	ff078793          	addi	a5,a5,-16
   2112c:	008787b3          	add	a5,a5,s0
   21130:	fce78e23          	sb	a4,-36(a5)
   21134:	fe842783          	lw	a5,-24(s0)
   21138:	51eb8737          	lui	a4,0x51eb8
   2113c:	51f70713          	addi	a4,a4,1311 # 51eb851f <_heap_end+0x51e8f55f>
   21140:	02e79733          	mulh	a4,a5,a4
   21144:	40575693          	srai	a3,a4,0x5
   21148:	41f7d713          	srai	a4,a5,0x1f
   2114c:	40e686b3          	sub	a3,a3,a4
   21150:	06400713          	li	a4,100
   21154:	02e68733          	mul	a4,a3,a4
   21158:	40e787b3          	sub	a5,a5,a4
   2115c:	fef42423          	sw	a5,-24(s0)
   21160:	00006797          	auipc	a5,0x6
   21164:	e0078793          	addi	a5,a5,-512 # 26f60 <digits>
   21168:	0007a703          	lw	a4,0(a5)
   2116c:	fe842783          	lw	a5,-24(s0)
   21170:	666666b7          	lui	a3,0x66666
   21174:	66768693          	addi	a3,a3,1639 # 66666667 <_heap_end+0x6663d6a7>
   21178:	02d796b3          	mulh	a3,a5,a3
   2117c:	4026d693          	srai	a3,a3,0x2
   21180:	41f7d793          	srai	a5,a5,0x1f
   21184:	40f687b3          	sub	a5,a3,a5
   21188:	00f70733          	add	a4,a4,a5
   2118c:	fe442783          	lw	a5,-28(s0)
   21190:	00178693          	addi	a3,a5,1
   21194:	fed42223          	sw	a3,-28(s0)
   21198:	00074703          	lbu	a4,0(a4)
   2119c:	ff078793          	addi	a5,a5,-16
   211a0:	008787b3          	add	a5,a5,s0
   211a4:	fce78e23          	sb	a4,-36(a5)
   211a8:	fe842703          	lw	a4,-24(s0)
   211ac:	666667b7          	lui	a5,0x66666
   211b0:	66778793          	addi	a5,a5,1639 # 66666667 <_heap_end+0x6663d6a7>
   211b4:	02f717b3          	mulh	a5,a4,a5
   211b8:	4027d693          	srai	a3,a5,0x2
   211bc:	41f75793          	srai	a5,a4,0x1f
   211c0:	40f686b3          	sub	a3,a3,a5
   211c4:	00068793          	mv	a5,a3
   211c8:	00279793          	slli	a5,a5,0x2
   211cc:	00d787b3          	add	a5,a5,a3
   211d0:	00179793          	slli	a5,a5,0x1
   211d4:	40f707b3          	sub	a5,a4,a5
   211d8:	fef42423          	sw	a5,-24(s0)
   211dc:	08c0006f          	j	21268 <iaddr+0x224>
   211e0:	fe842703          	lw	a4,-24(s0)
   211e4:	00900793          	li	a5,9
   211e8:	08e7d063          	bge	a5,a4,21268 <iaddr+0x224>
   211ec:	00006797          	auipc	a5,0x6
   211f0:	d7478793          	addi	a5,a5,-652 # 26f60 <digits>
   211f4:	0007a703          	lw	a4,0(a5)
   211f8:	fe842783          	lw	a5,-24(s0)
   211fc:	666666b7          	lui	a3,0x66666
   21200:	66768693          	addi	a3,a3,1639 # 66666667 <_heap_end+0x6663d6a7>
   21204:	02d796b3          	mulh	a3,a5,a3
   21208:	4026d693          	srai	a3,a3,0x2
   2120c:	41f7d793          	srai	a5,a5,0x1f
   21210:	40f687b3          	sub	a5,a3,a5
   21214:	00f70733          	add	a4,a4,a5
   21218:	fe442783          	lw	a5,-28(s0)
   2121c:	00178693          	addi	a3,a5,1
   21220:	fed42223          	sw	a3,-28(s0)
   21224:	00074703          	lbu	a4,0(a4)
   21228:	ff078793          	addi	a5,a5,-16
   2122c:	008787b3          	add	a5,a5,s0
   21230:	fce78e23          	sb	a4,-36(a5)
   21234:	fe842703          	lw	a4,-24(s0)
   21238:	666667b7          	lui	a5,0x66666
   2123c:	66778793          	addi	a5,a5,1639 # 66666667 <_heap_end+0x6663d6a7>
   21240:	02f717b3          	mulh	a5,a4,a5
   21244:	4027d693          	srai	a3,a5,0x2
   21248:	41f75793          	srai	a5,a4,0x1f
   2124c:	40f686b3          	sub	a3,a3,a5
   21250:	00068793          	mv	a5,a3
   21254:	00279793          	slli	a5,a5,0x2
   21258:	00d787b3          	add	a5,a5,a3
   2125c:	00179793          	slli	a5,a5,0x1
   21260:	40f707b3          	sub	a5,a4,a5
   21264:	fef42423          	sw	a5,-24(s0)
   21268:	00006797          	auipc	a5,0x6
   2126c:	cf878793          	addi	a5,a5,-776 # 26f60 <digits>
   21270:	0007a703          	lw	a4,0(a5)
   21274:	fe842783          	lw	a5,-24(s0)
   21278:	00f70733          	add	a4,a4,a5
   2127c:	fe442783          	lw	a5,-28(s0)
   21280:	00178693          	addi	a3,a5,1
   21284:	fed42223          	sw	a3,-28(s0)
   21288:	00074703          	lbu	a4,0(a4)
   2128c:	ff078793          	addi	a5,a5,-16
   21290:	008787b3          	add	a5,a5,s0
   21294:	fce78e23          	sb	a4,-36(a5)
   21298:	fec42783          	lw	a5,-20(s0)
   2129c:	00178793          	addi	a5,a5,1
   212a0:	fef42623          	sw	a5,-20(s0)
   212a4:	fec42703          	lw	a4,-20(s0)
   212a8:	00300793          	li	a5,3
   212ac:	dce7d4e3          	bge	a5,a4,21074 <iaddr+0x30>
   212b0:	fac42783          	lw	a5,-84(s0)
   212b4:	0107f793          	andi	a5,a5,16
   212b8:	02079863          	bnez	a5,212e8 <iaddr+0x2a4>
   212bc:	0180006f          	j	212d4 <iaddr+0x290>
   212c0:	fbc42783          	lw	a5,-68(s0)
   212c4:	00178713          	addi	a4,a5,1
   212c8:	fae42e23          	sw	a4,-68(s0)
   212cc:	02000713          	li	a4,32
   212d0:	00e78023          	sb	a4,0(a5)
   212d4:	fb442783          	lw	a5,-76(s0)
   212d8:	fff78713          	addi	a4,a5,-1
   212dc:	fae42a23          	sw	a4,-76(s0)
   212e0:	fe442703          	lw	a4,-28(s0)
   212e4:	fcf74ee3          	blt	a4,a5,212c0 <iaddr+0x27c>
   212e8:	fe042623          	sw	zero,-20(s0)
   212ec:	0300006f          	j	2131c <iaddr+0x2d8>
   212f0:	fbc42783          	lw	a5,-68(s0)
   212f4:	00178713          	addi	a4,a5,1
   212f8:	fae42e23          	sw	a4,-68(s0)
   212fc:	fec42703          	lw	a4,-20(s0)
   21300:	ff070713          	addi	a4,a4,-16
   21304:	00870733          	add	a4,a4,s0
   21308:	fdc74703          	lbu	a4,-36(a4)
   2130c:	00e78023          	sb	a4,0(a5)
   21310:	fec42783          	lw	a5,-20(s0)
   21314:	00178793          	addi	a5,a5,1
   21318:	fef42623          	sw	a5,-20(s0)
   2131c:	fec42703          	lw	a4,-20(s0)
   21320:	fe442783          	lw	a5,-28(s0)
   21324:	fcf746e3          	blt	a4,a5,212f0 <iaddr+0x2ac>
   21328:	0180006f          	j	21340 <iaddr+0x2fc>
   2132c:	fbc42783          	lw	a5,-68(s0)
   21330:	00178713          	addi	a4,a5,1
   21334:	fae42e23          	sw	a4,-68(s0)
   21338:	02000713          	li	a4,32
   2133c:	00e78023          	sb	a4,0(a5)
   21340:	fb442783          	lw	a5,-76(s0)
   21344:	fff78713          	addi	a4,a5,-1
   21348:	fae42a23          	sw	a4,-76(s0)
   2134c:	fe442703          	lw	a4,-28(s0)
   21350:	fcf74ee3          	blt	a4,a5,2132c <iaddr+0x2e8>
   21354:	fbc42783          	lw	a5,-68(s0)
   21358:	00078513          	mv	a0,a5
   2135c:	05c12083          	lw	ra,92(sp)
   21360:	05812403          	lw	s0,88(sp)
   21364:	06010113          	addi	sp,sp,96
   21368:	00008067          	ret

0002136c <ee_bufcpy>:
ee_bufcpy():
   2136c:	fd010113          	addi	sp,sp,-48
   21370:	02112623          	sw	ra,44(sp)
   21374:	02812423          	sw	s0,40(sp)
   21378:	03010413          	addi	s0,sp,48
   2137c:	fca42e23          	sw	a0,-36(s0)
   21380:	fcb42c23          	sw	a1,-40(s0)
   21384:	fcc42a23          	sw	a2,-44(s0)
   21388:	fd442783          	lw	a5,-44(s0)
   2138c:	fd842703          	lw	a4,-40(s0)
   21390:	00f707b3          	add	a5,a4,a5
   21394:	fef42623          	sw	a5,-20(s0)
   21398:	0240006f          	j	213bc <ee_bufcpy+0x50>
   2139c:	fd842703          	lw	a4,-40(s0)
   213a0:	00170793          	addi	a5,a4,1
   213a4:	fcf42c23          	sw	a5,-40(s0)
   213a8:	fdc42783          	lw	a5,-36(s0)
   213ac:	00178693          	addi	a3,a5,1
   213b0:	fcd42e23          	sw	a3,-36(s0)
   213b4:	00074703          	lbu	a4,0(a4)
   213b8:	00e78023          	sb	a4,0(a5)
   213bc:	fd842703          	lw	a4,-40(s0)
   213c0:	fec42783          	lw	a5,-20(s0)
   213c4:	fcf71ce3          	bne	a4,a5,2139c <ee_bufcpy+0x30>
   213c8:	00000013          	nop
   213cc:	00000013          	nop
   213d0:	02c12083          	lw	ra,44(sp)
   213d4:	02812403          	lw	s0,40(sp)
   213d8:	03010113          	addi	sp,sp,48
   213dc:	00008067          	ret

000213e0 <parse_float>:
parse_float():
   213e0:	f6010113          	addi	sp,sp,-160
   213e4:	08112e23          	sw	ra,156(sp)
   213e8:	08812c23          	sw	s0,152(sp)
   213ec:	0a010413          	addi	s0,sp,160
   213f0:	f6a42c23          	sw	a0,-136(s0)
   213f4:	f6b42e23          	sw	a1,-132(s0)
   213f8:	f6c42a23          	sw	a2,-140(s0)
   213fc:	00068793          	mv	a5,a3
   21400:	f6e42623          	sw	a4,-148(s0)
   21404:	f6f409a3          	sb	a5,-141(s0)
   21408:	fe042223          	sw	zero,-28(s0)
   2140c:	fe042023          	sw	zero,-32(s0)
   21410:	f7344703          	lbu	a4,-141(s0)
   21414:	04700793          	li	a5,71
   21418:	00f70863          	beq	a4,a5,21428 <parse_float+0x48>
   2141c:	f7344703          	lbu	a4,-141(s0)
   21420:	04500793          	li	a5,69
   21424:	00f71c63          	bne	a4,a5,2143c <parse_float+0x5c>
   21428:	00100793          	li	a5,1
   2142c:	fef42023          	sw	a5,-32(s0)
   21430:	f7344783          	lbu	a5,-141(s0)
   21434:	02078793          	addi	a5,a5,32
   21438:	f6f409a3          	sb	a5,-141(s0)
   2143c:	f7344703          	lbu	a4,-141(s0)
   21440:	06700793          	li	a5,103
   21444:	06f71c63          	bne	a4,a5,214bc <parse_float+0xdc>
   21448:	f8440793          	addi	a5,s0,-124
   2144c:	fd440713          	addi	a4,s0,-44
   21450:	fd840693          	addi	a3,s0,-40
   21454:	f6c42603          	lw	a2,-148(s0)
   21458:	f7842503          	lw	a0,-136(s0)
   2145c:	f7c42583          	lw	a1,-132(s0)
   21460:	758010ef          	jal	22bb8 <ecvtbuf>
   21464:	fea42223          	sw	a0,-28(s0)
   21468:	fd842783          	lw	a5,-40(s0)
   2146c:	fff78793          	addi	a5,a5,-1
   21470:	fcf42e23          	sw	a5,-36(s0)
   21474:	fdc42703          	lw	a4,-36(s0)
   21478:	ffc00793          	li	a5,-4
   2147c:	00f74863          	blt	a4,a5,2148c <parse_float+0xac>
   21480:	f6c42703          	lw	a4,-148(s0)
   21484:	fdc42783          	lw	a5,-36(s0)
   21488:	00e7ce63          	blt	a5,a4,214a4 <parse_float+0xc4>
   2148c:	06500793          	li	a5,101
   21490:	f6f409a3          	sb	a5,-141(s0)
   21494:	f6c42783          	lw	a5,-148(s0)
   21498:	fff78793          	addi	a5,a5,-1
   2149c:	f6f42623          	sw	a5,-148(s0)
   214a0:	01c0006f          	j	214bc <parse_float+0xdc>
   214a4:	06600793          	li	a5,102
   214a8:	f6f409a3          	sb	a5,-141(s0)
   214ac:	fd842783          	lw	a5,-40(s0)
   214b0:	f6c42703          	lw	a4,-148(s0)
   214b4:	40f707b3          	sub	a5,a4,a5
   214b8:	f6f42623          	sw	a5,-148(s0)
   214bc:	f7344703          	lbu	a4,-141(s0)
   214c0:	06500793          	li	a5,101
   214c4:	26f71663          	bne	a4,a5,21730 <parse_float+0x350>
   214c8:	f6c42783          	lw	a5,-148(s0)
   214cc:	00178613          	addi	a2,a5,1
   214d0:	f8440793          	addi	a5,s0,-124
   214d4:	fd440713          	addi	a4,s0,-44
   214d8:	fd840693          	addi	a3,s0,-40
   214dc:	f7842503          	lw	a0,-136(s0)
   214e0:	f7c42583          	lw	a1,-132(s0)
   214e4:	6d4010ef          	jal	22bb8 <ecvtbuf>
   214e8:	fea42223          	sw	a0,-28(s0)
   214ec:	fd442783          	lw	a5,-44(s0)
   214f0:	00078c63          	beqz	a5,21508 <parse_float+0x128>
   214f4:	f7442783          	lw	a5,-140(s0)
   214f8:	00178713          	addi	a4,a5,1
   214fc:	f6e42a23          	sw	a4,-140(s0)
   21500:	02d00713          	li	a4,45
   21504:	00e78023          	sb	a4,0(a5)
   21508:	f7442783          	lw	a5,-140(s0)
   2150c:	00178713          	addi	a4,a5,1
   21510:	f6e42a23          	sw	a4,-140(s0)
   21514:	fe442703          	lw	a4,-28(s0)
   21518:	00074703          	lbu	a4,0(a4)
   2151c:	00e78023          	sb	a4,0(a5)
   21520:	f6c42783          	lw	a5,-148(s0)
   21524:	00f05c63          	blez	a5,2153c <parse_float+0x15c>
   21528:	f7442783          	lw	a5,-140(s0)
   2152c:	00178713          	addi	a4,a5,1
   21530:	f6e42a23          	sw	a4,-140(s0)
   21534:	02e00713          	li	a4,46
   21538:	00e78023          	sb	a4,0(a5)
   2153c:	fe442783          	lw	a5,-28(s0)
   21540:	00178793          	addi	a5,a5,1
   21544:	f6c42603          	lw	a2,-148(s0)
   21548:	00078593          	mv	a1,a5
   2154c:	f7442503          	lw	a0,-140(s0)
   21550:	e1dff0ef          	jal	2136c <ee_bufcpy>
   21554:	f6c42783          	lw	a5,-148(s0)
   21558:	f7442703          	lw	a4,-140(s0)
   2155c:	00f707b3          	add	a5,a4,a5
   21560:	f6f42a23          	sw	a5,-140(s0)
   21564:	fe042783          	lw	a5,-32(s0)
   21568:	00078663          	beqz	a5,21574 <parse_float+0x194>
   2156c:	04500713          	li	a4,69
   21570:	0080006f          	j	21578 <parse_float+0x198>
   21574:	06500713          	li	a4,101
   21578:	f7442783          	lw	a5,-140(s0)
   2157c:	00178693          	addi	a3,a5,1
   21580:	f6d42a23          	sw	a3,-140(s0)
   21584:	00e78023          	sb	a4,0(a5)
   21588:	fd842783          	lw	a5,-40(s0)
   2158c:	02079a63          	bnez	a5,215c0 <parse_float+0x1e0>
   21590:	00000613          	li	a2,0
   21594:	00000693          	li	a3,0
   21598:	f7842503          	lw	a0,-136(s0)
   2159c:	f7c42583          	lw	a1,-132(s0)
   215a0:	4bd020ef          	jal	2425c <__eqdf2>
   215a4:	00050793          	mv	a5,a0
   215a8:	00079663          	bnez	a5,215b4 <parse_float+0x1d4>
   215ac:	fe042623          	sw	zero,-20(s0)
   215b0:	01c0006f          	j	215cc <parse_float+0x1ec>
   215b4:	fff00793          	li	a5,-1
   215b8:	fef42623          	sw	a5,-20(s0)
   215bc:	0100006f          	j	215cc <parse_float+0x1ec>
   215c0:	fd842783          	lw	a5,-40(s0)
   215c4:	fff78793          	addi	a5,a5,-1
   215c8:	fef42623          	sw	a5,-20(s0)
   215cc:	fec42783          	lw	a5,-20(s0)
   215d0:	0207d463          	bgez	a5,215f8 <parse_float+0x218>
   215d4:	f7442783          	lw	a5,-140(s0)
   215d8:	00178713          	addi	a4,a5,1
   215dc:	f6e42a23          	sw	a4,-140(s0)
   215e0:	02d00713          	li	a4,45
   215e4:	00e78023          	sb	a4,0(a5)
   215e8:	fec42783          	lw	a5,-20(s0)
   215ec:	40f007b3          	neg	a5,a5
   215f0:	fef42623          	sw	a5,-20(s0)
   215f4:	0180006f          	j	2160c <parse_float+0x22c>
   215f8:	f7442783          	lw	a5,-140(s0)
   215fc:	00178713          	addi	a4,a5,1
   21600:	f6e42a23          	sw	a4,-140(s0)
   21604:	02b00713          	li	a4,43
   21608:	00e78023          	sb	a4,0(a5)
   2160c:	fec42703          	lw	a4,-20(s0)
   21610:	666667b7          	lui	a5,0x66666
   21614:	66778793          	addi	a5,a5,1639 # 66666667 <_heap_end+0x6663d6a7>
   21618:	02f717b3          	mulh	a5,a4,a5
   2161c:	4027d693          	srai	a3,a5,0x2
   21620:	41f75793          	srai	a5,a4,0x1f
   21624:	40f686b3          	sub	a3,a3,a5
   21628:	00068793          	mv	a5,a3
   2162c:	00279793          	slli	a5,a5,0x2
   21630:	00d787b3          	add	a5,a5,a3
   21634:	00179793          	slli	a5,a5,0x1
   21638:	40f706b3          	sub	a3,a4,a5
   2163c:	0ff6f713          	zext.b	a4,a3
   21640:	f7442783          	lw	a5,-140(s0)
   21644:	00278793          	addi	a5,a5,2
   21648:	03070713          	addi	a4,a4,48
   2164c:	0ff77713          	zext.b	a4,a4
   21650:	00e78023          	sb	a4,0(a5)
   21654:	fec42783          	lw	a5,-20(s0)
   21658:	66666737          	lui	a4,0x66666
   2165c:	66770713          	addi	a4,a4,1639 # 66666667 <_heap_end+0x6663d6a7>
   21660:	02e79733          	mulh	a4,a5,a4
   21664:	40275713          	srai	a4,a4,0x2
   21668:	41f7d793          	srai	a5,a5,0x1f
   2166c:	40f707b3          	sub	a5,a4,a5
   21670:	fef42623          	sw	a5,-20(s0)
   21674:	fec42703          	lw	a4,-20(s0)
   21678:	666667b7          	lui	a5,0x66666
   2167c:	66778793          	addi	a5,a5,1639 # 66666667 <_heap_end+0x6663d6a7>
   21680:	02f717b3          	mulh	a5,a4,a5
   21684:	4027d693          	srai	a3,a5,0x2
   21688:	41f75793          	srai	a5,a4,0x1f
   2168c:	40f686b3          	sub	a3,a3,a5
   21690:	00068793          	mv	a5,a3
   21694:	00279793          	slli	a5,a5,0x2
   21698:	00d787b3          	add	a5,a5,a3
   2169c:	00179793          	slli	a5,a5,0x1
   216a0:	40f706b3          	sub	a3,a4,a5
   216a4:	0ff6f713          	zext.b	a4,a3
   216a8:	f7442783          	lw	a5,-140(s0)
   216ac:	00178793          	addi	a5,a5,1
   216b0:	03070713          	addi	a4,a4,48
   216b4:	0ff77713          	zext.b	a4,a4
   216b8:	00e78023          	sb	a4,0(a5)
   216bc:	fec42783          	lw	a5,-20(s0)
   216c0:	66666737          	lui	a4,0x66666
   216c4:	66770713          	addi	a4,a4,1639 # 66666667 <_heap_end+0x6663d6a7>
   216c8:	02e79733          	mulh	a4,a5,a4
   216cc:	40275713          	srai	a4,a4,0x2
   216d0:	41f7d793          	srai	a5,a5,0x1f
   216d4:	40f707b3          	sub	a5,a4,a5
   216d8:	fef42623          	sw	a5,-20(s0)
   216dc:	fec42703          	lw	a4,-20(s0)
   216e0:	666667b7          	lui	a5,0x66666
   216e4:	66778793          	addi	a5,a5,1639 # 66666667 <_heap_end+0x6663d6a7>
   216e8:	02f717b3          	mulh	a5,a4,a5
   216ec:	4027d693          	srai	a3,a5,0x2
   216f0:	41f75793          	srai	a5,a4,0x1f
   216f4:	40f686b3          	sub	a3,a3,a5
   216f8:	00068793          	mv	a5,a3
   216fc:	00279793          	slli	a5,a5,0x2
   21700:	00d787b3          	add	a5,a5,a3
   21704:	00179793          	slli	a5,a5,0x1
   21708:	40f706b3          	sub	a3,a4,a5
   2170c:	0ff6f793          	zext.b	a5,a3
   21710:	03078793          	addi	a5,a5,48
   21714:	0ff7f713          	zext.b	a4,a5
   21718:	f7442783          	lw	a5,-140(s0)
   2171c:	00e78023          	sb	a4,0(a5)
   21720:	f7442783          	lw	a5,-140(s0)
   21724:	00378793          	addi	a5,a5,3
   21728:	f6f42a23          	sw	a5,-140(s0)
   2172c:	1b80006f          	j	218e4 <parse_float+0x504>
   21730:	f7344703          	lbu	a4,-141(s0)
   21734:	06600793          	li	a5,102
   21738:	1af71663          	bne	a4,a5,218e4 <parse_float+0x504>
   2173c:	f8440793          	addi	a5,s0,-124
   21740:	fd440713          	addi	a4,s0,-44
   21744:	fd840693          	addi	a3,s0,-40
   21748:	f6c42603          	lw	a2,-148(s0)
   2174c:	f7842503          	lw	a0,-136(s0)
   21750:	f7c42583          	lw	a1,-132(s0)
   21754:	524010ef          	jal	22c78 <fcvtbuf>
   21758:	fea42223          	sw	a0,-28(s0)
   2175c:	fd442783          	lw	a5,-44(s0)
   21760:	00078c63          	beqz	a5,21778 <parse_float+0x398>
   21764:	f7442783          	lw	a5,-140(s0)
   21768:	00178713          	addi	a4,a5,1
   2176c:	f6e42a23          	sw	a4,-140(s0)
   21770:	02d00713          	li	a4,45
   21774:	00e78023          	sb	a4,0(a5)
   21778:	fe442783          	lw	a5,-28(s0)
   2177c:	0007c783          	lbu	a5,0(a5)
   21780:	10078063          	beqz	a5,21880 <parse_float+0x4a0>
   21784:	fd842783          	lw	a5,-40(s0)
   21788:	08f04c63          	bgtz	a5,21820 <parse_float+0x440>
   2178c:	f7442783          	lw	a5,-140(s0)
   21790:	00178713          	addi	a4,a5,1
   21794:	f6e42a23          	sw	a4,-140(s0)
   21798:	03000713          	li	a4,48
   2179c:	00e78023          	sb	a4,0(a5)
   217a0:	f7442783          	lw	a5,-140(s0)
   217a4:	00178713          	addi	a4,a5,1
   217a8:	f6e42a23          	sw	a4,-140(s0)
   217ac:	02e00713          	li	a4,46
   217b0:	00e78023          	sb	a4,0(a5)
   217b4:	fe042423          	sw	zero,-24(s0)
   217b8:	0240006f          	j	217dc <parse_float+0x3fc>
   217bc:	f7442783          	lw	a5,-140(s0)
   217c0:	00178713          	addi	a4,a5,1
   217c4:	f6e42a23          	sw	a4,-140(s0)
   217c8:	03000713          	li	a4,48
   217cc:	00e78023          	sb	a4,0(a5)
   217d0:	fe842783          	lw	a5,-24(s0)
   217d4:	00178793          	addi	a5,a5,1
   217d8:	fef42423          	sw	a5,-24(s0)
   217dc:	fd842783          	lw	a5,-40(s0)
   217e0:	40f007b3          	neg	a5,a5
   217e4:	fe842703          	lw	a4,-24(s0)
   217e8:	fcf74ae3          	blt	a4,a5,217bc <parse_float+0x3dc>
   217ec:	0240006f          	j	21810 <parse_float+0x430>
   217f0:	fe442703          	lw	a4,-28(s0)
   217f4:	00170793          	addi	a5,a4,1
   217f8:	fef42223          	sw	a5,-28(s0)
   217fc:	f7442783          	lw	a5,-140(s0)
   21800:	00178693          	addi	a3,a5,1
   21804:	f6d42a23          	sw	a3,-140(s0)
   21808:	00074703          	lbu	a4,0(a4)
   2180c:	00e78023          	sb	a4,0(a5)
   21810:	fe442783          	lw	a5,-28(s0)
   21814:	0007c783          	lbu	a5,0(a5)
   21818:	fc079ce3          	bnez	a5,217f0 <parse_float+0x410>
   2181c:	0c80006f          	j	218e4 <parse_float+0x504>
   21820:	fe042423          	sw	zero,-24(s0)
   21824:	04c0006f          	j	21870 <parse_float+0x490>
   21828:	fe842783          	lw	a5,-24(s0)
   2182c:	00178713          	addi	a4,a5,1
   21830:	fee42423          	sw	a4,-24(s0)
   21834:	fd842703          	lw	a4,-40(s0)
   21838:	00e79c63          	bne	a5,a4,21850 <parse_float+0x470>
   2183c:	f7442783          	lw	a5,-140(s0)
   21840:	00178713          	addi	a4,a5,1
   21844:	f6e42a23          	sw	a4,-140(s0)
   21848:	02e00713          	li	a4,46
   2184c:	00e78023          	sb	a4,0(a5)
   21850:	fe442703          	lw	a4,-28(s0)
   21854:	00170793          	addi	a5,a4,1
   21858:	fef42223          	sw	a5,-28(s0)
   2185c:	f7442783          	lw	a5,-140(s0)
   21860:	00178693          	addi	a3,a5,1
   21864:	f6d42a23          	sw	a3,-140(s0)
   21868:	00074703          	lbu	a4,0(a4)
   2186c:	00e78023          	sb	a4,0(a5)
   21870:	fe442783          	lw	a5,-28(s0)
   21874:	0007c783          	lbu	a5,0(a5)
   21878:	fa0798e3          	bnez	a5,21828 <parse_float+0x448>
   2187c:	0680006f          	j	218e4 <parse_float+0x504>
   21880:	f7442783          	lw	a5,-140(s0)
   21884:	00178713          	addi	a4,a5,1
   21888:	f6e42a23          	sw	a4,-140(s0)
   2188c:	03000713          	li	a4,48
   21890:	00e78023          	sb	a4,0(a5)
   21894:	f6c42783          	lw	a5,-148(s0)
   21898:	04f05663          	blez	a5,218e4 <parse_float+0x504>
   2189c:	f7442783          	lw	a5,-140(s0)
   218a0:	00178713          	addi	a4,a5,1
   218a4:	f6e42a23          	sw	a4,-140(s0)
   218a8:	02e00713          	li	a4,46
   218ac:	00e78023          	sb	a4,0(a5)
   218b0:	fe042423          	sw	zero,-24(s0)
   218b4:	0240006f          	j	218d8 <parse_float+0x4f8>
   218b8:	f7442783          	lw	a5,-140(s0)
   218bc:	00178713          	addi	a4,a5,1
   218c0:	f6e42a23          	sw	a4,-140(s0)
   218c4:	03000713          	li	a4,48
   218c8:	00e78023          	sb	a4,0(a5)
   218cc:	fe842783          	lw	a5,-24(s0)
   218d0:	00178793          	addi	a5,a5,1
   218d4:	fef42423          	sw	a5,-24(s0)
   218d8:	fe842703          	lw	a4,-24(s0)
   218dc:	f6c42783          	lw	a5,-148(s0)
   218e0:	fcf74ce3          	blt	a4,a5,218b8 <parse_float+0x4d8>
   218e4:	f7442783          	lw	a5,-140(s0)
   218e8:	00078023          	sb	zero,0(a5)
   218ec:	00000013          	nop
   218f0:	09c12083          	lw	ra,156(sp)
   218f4:	09812403          	lw	s0,152(sp)
   218f8:	0a010113          	addi	sp,sp,160
   218fc:	00008067          	ret

00021900 <decimal_point>:
decimal_point():
   21900:	fd010113          	addi	sp,sp,-48
   21904:	02112623          	sw	ra,44(sp)
   21908:	02812423          	sw	s0,40(sp)
   2190c:	03010413          	addi	s0,sp,48
   21910:	fca42e23          	sw	a0,-36(s0)
   21914:	0400006f          	j	21954 <decimal_point+0x54>
   21918:	fdc42783          	lw	a5,-36(s0)
   2191c:	0007c703          	lbu	a4,0(a5)
   21920:	02e00793          	li	a5,46
   21924:	0cf70463          	beq	a4,a5,219ec <decimal_point+0xec>
   21928:	fdc42783          	lw	a5,-36(s0)
   2192c:	0007c703          	lbu	a4,0(a5)
   21930:	06500793          	li	a5,101
   21934:	02f70663          	beq	a4,a5,21960 <decimal_point+0x60>
   21938:	fdc42783          	lw	a5,-36(s0)
   2193c:	0007c703          	lbu	a4,0(a5)
   21940:	04500793          	li	a5,69
   21944:	00f70e63          	beq	a4,a5,21960 <decimal_point+0x60>
   21948:	fdc42783          	lw	a5,-36(s0)
   2194c:	00178793          	addi	a5,a5,1
   21950:	fcf42e23          	sw	a5,-36(s0)
   21954:	fdc42783          	lw	a5,-36(s0)
   21958:	0007c783          	lbu	a5,0(a5)
   2195c:	fa079ee3          	bnez	a5,21918 <decimal_point+0x18>
   21960:	fdc42783          	lw	a5,-36(s0)
   21964:	0007c783          	lbu	a5,0(a5)
   21968:	06078263          	beqz	a5,219cc <decimal_point+0xcc>
   2196c:	10000593          	li	a1,256
   21970:	fdc42503          	lw	a0,-36(s0)
   21974:	40d040ef          	jal	26580 <strnlen>
   21978:	00050793          	mv	a5,a0
   2197c:	fef42623          	sw	a5,-20(s0)
   21980:	0340006f          	j	219b4 <decimal_point+0xb4>
   21984:	fec42783          	lw	a5,-20(s0)
   21988:	fdc42703          	lw	a4,-36(s0)
   2198c:	00f70733          	add	a4,a4,a5
   21990:	fec42783          	lw	a5,-20(s0)
   21994:	00178793          	addi	a5,a5,1
   21998:	fdc42683          	lw	a3,-36(s0)
   2199c:	00f687b3          	add	a5,a3,a5
   219a0:	00074703          	lbu	a4,0(a4)
   219a4:	00e78023          	sb	a4,0(a5)
   219a8:	fec42783          	lw	a5,-20(s0)
   219ac:	fff78793          	addi	a5,a5,-1
   219b0:	fef42623          	sw	a5,-20(s0)
   219b4:	fec42783          	lw	a5,-20(s0)
   219b8:	fcf046e3          	bgtz	a5,21984 <decimal_point+0x84>
   219bc:	fdc42783          	lw	a5,-36(s0)
   219c0:	02e00713          	li	a4,46
   219c4:	00e78023          	sb	a4,0(a5)
   219c8:	0280006f          	j	219f0 <decimal_point+0xf0>
   219cc:	fdc42783          	lw	a5,-36(s0)
   219d0:	00178713          	addi	a4,a5,1
   219d4:	fce42e23          	sw	a4,-36(s0)
   219d8:	02e00713          	li	a4,46
   219dc:	00e78023          	sb	a4,0(a5)
   219e0:	fdc42783          	lw	a5,-36(s0)
   219e4:	00078023          	sb	zero,0(a5)
   219e8:	0080006f          	j	219f0 <decimal_point+0xf0>
   219ec:	00000013          	nop
   219f0:	02c12083          	lw	ra,44(sp)
   219f4:	02812403          	lw	s0,40(sp)
   219f8:	03010113          	addi	sp,sp,48
   219fc:	00008067          	ret

00021a00 <cropzeros>:
cropzeros():
   21a00:	fd010113          	addi	sp,sp,-48
   21a04:	02112623          	sw	ra,44(sp)
   21a08:	02812423          	sw	s0,40(sp)
   21a0c:	03010413          	addi	s0,sp,48
   21a10:	fca42e23          	sw	a0,-36(s0)
   21a14:	0100006f          	j	21a24 <cropzeros+0x24>
   21a18:	fdc42783          	lw	a5,-36(s0)
   21a1c:	00178793          	addi	a5,a5,1
   21a20:	fcf42e23          	sw	a5,-36(s0)
   21a24:	fdc42783          	lw	a5,-36(s0)
   21a28:	0007c783          	lbu	a5,0(a5)
   21a2c:	00078a63          	beqz	a5,21a40 <cropzeros+0x40>
   21a30:	fdc42783          	lw	a5,-36(s0)
   21a34:	0007c703          	lbu	a4,0(a5)
   21a38:	02e00793          	li	a5,46
   21a3c:	fcf71ee3          	bne	a4,a5,21a18 <cropzeros+0x18>
   21a40:	fdc42783          	lw	a5,-36(s0)
   21a44:	00178713          	addi	a4,a5,1
   21a48:	fce42e23          	sw	a4,-36(s0)
   21a4c:	0007c783          	lbu	a5,0(a5)
   21a50:	0a078863          	beqz	a5,21b00 <cropzeros+0x100>
   21a54:	0100006f          	j	21a64 <cropzeros+0x64>
   21a58:	fdc42783          	lw	a5,-36(s0)
   21a5c:	00178793          	addi	a5,a5,1
   21a60:	fcf42e23          	sw	a5,-36(s0)
   21a64:	fdc42783          	lw	a5,-36(s0)
   21a68:	0007c783          	lbu	a5,0(a5)
   21a6c:	02078263          	beqz	a5,21a90 <cropzeros+0x90>
   21a70:	fdc42783          	lw	a5,-36(s0)
   21a74:	0007c703          	lbu	a4,0(a5)
   21a78:	06500793          	li	a5,101
   21a7c:	00f70a63          	beq	a4,a5,21a90 <cropzeros+0x90>
   21a80:	fdc42783          	lw	a5,-36(s0)
   21a84:	0007c703          	lbu	a4,0(a5)
   21a88:	04500793          	li	a5,69
   21a8c:	fcf716e3          	bne	a4,a5,21a58 <cropzeros+0x58>
   21a90:	fdc42783          	lw	a5,-36(s0)
   21a94:	fff78713          	addi	a4,a5,-1
   21a98:	fce42e23          	sw	a4,-36(s0)
   21a9c:	fef42623          	sw	a5,-20(s0)
   21aa0:	0100006f          	j	21ab0 <cropzeros+0xb0>
   21aa4:	fdc42783          	lw	a5,-36(s0)
   21aa8:	fff78793          	addi	a5,a5,-1
   21aac:	fcf42e23          	sw	a5,-36(s0)
   21ab0:	fdc42783          	lw	a5,-36(s0)
   21ab4:	0007c703          	lbu	a4,0(a5)
   21ab8:	03000793          	li	a5,48
   21abc:	fef704e3          	beq	a4,a5,21aa4 <cropzeros+0xa4>
   21ac0:	fdc42783          	lw	a5,-36(s0)
   21ac4:	0007c703          	lbu	a4,0(a5)
   21ac8:	02e00793          	li	a5,46
   21acc:	02f71463          	bne	a4,a5,21af4 <cropzeros+0xf4>
   21ad0:	fdc42783          	lw	a5,-36(s0)
   21ad4:	fff78793          	addi	a5,a5,-1
   21ad8:	fcf42e23          	sw	a5,-36(s0)
   21adc:	0180006f          	j	21af4 <cropzeros+0xf4>
   21ae0:	fdc42783          	lw	a5,-36(s0)
   21ae4:	00178793          	addi	a5,a5,1
   21ae8:	fcf42e23          	sw	a5,-36(s0)
   21aec:	fdc42783          	lw	a5,-36(s0)
   21af0:	00078023          	sb	zero,0(a5)
   21af4:	fdc42703          	lw	a4,-36(s0)
   21af8:	fec42783          	lw	a5,-20(s0)
   21afc:	fef712e3          	bne	a4,a5,21ae0 <cropzeros+0xe0>
   21b00:	00000013          	nop
   21b04:	02c12083          	lw	ra,44(sp)
   21b08:	02812403          	lw	s0,40(sp)
   21b0c:	03010113          	addi	sp,sp,48
   21b10:	00008067          	ret

00021b14 <flt>:
flt():
   21b14:	ec010113          	addi	sp,sp,-320
   21b18:	12112e23          	sw	ra,316(sp)
   21b1c:	12812c23          	sw	s0,312(sp)
   21b20:	13212a23          	sw	s2,308(sp)
   21b24:	13312823          	sw	s3,304(sp)
   21b28:	14010413          	addi	s0,sp,320
   21b2c:	eca42e23          	sw	a0,-292(s0)
   21b30:	ecb42823          	sw	a1,-304(s0)
   21b34:	ecc42a23          	sw	a2,-300(s0)
   21b38:	ecd42c23          	sw	a3,-296(s0)
   21b3c:	ece42623          	sw	a4,-308(s0)
   21b40:	ed042223          	sw	a6,-316(s0)
   21b44:	ecf405a3          	sb	a5,-309(s0)
   21b48:	ec442783          	lw	a5,-316(s0)
   21b4c:	0107f793          	andi	a5,a5,16
   21b50:	00078863          	beqz	a5,21b60 <flt+0x4c>
   21b54:	ec442783          	lw	a5,-316(s0)
   21b58:	ffe7f793          	andi	a5,a5,-2
   21b5c:	ecf42223          	sw	a5,-316(s0)
   21b60:	ec442783          	lw	a5,-316(s0)
   21b64:	0017f793          	andi	a5,a5,1
   21b68:	00078663          	beqz	a5,21b74 <flt+0x60>
   21b6c:	03000793          	li	a5,48
   21b70:	0080006f          	j	21b78 <flt+0x64>
   21b74:	02000793          	li	a5,32
   21b78:	fef403a3          	sb	a5,-25(s0)
   21b7c:	fe0407a3          	sb	zero,-17(s0)
   21b80:	ec442783          	lw	a5,-316(s0)
   21b84:	0027f793          	andi	a5,a5,2
   21b88:	08078a63          	beqz	a5,21c1c <flt+0x108>
   21b8c:	00000613          	li	a2,0
   21b90:	00000693          	li	a3,0
   21b94:	ed042503          	lw	a0,-304(s0)
   21b98:	ed442583          	lw	a1,-300(s0)
   21b9c:	01d020ef          	jal	243b8 <__ledf2>
   21ba0:	00050793          	mv	a5,a0
   21ba4:	0207da63          	bgez	a5,21bd8 <flt+0xc4>
   21ba8:	02d00793          	li	a5,45
   21bac:	fef407a3          	sb	a5,-17(s0)
   21bb0:	ed042903          	lw	s2,-304(s0)
   21bb4:	ed442703          	lw	a4,-300(s0)
   21bb8:	800007b7          	lui	a5,0x80000
   21bbc:	00f749b3          	xor	s3,a4,a5
   21bc0:	ed242823          	sw	s2,-304(s0)
   21bc4:	ed342a23          	sw	s3,-300(s0)
   21bc8:	ed842783          	lw	a5,-296(s0)
   21bcc:	fff78793          	addi	a5,a5,-1 # 7fffffff <_heap_end+0x7ffd703f>
   21bd0:	ecf42c23          	sw	a5,-296(s0)
   21bd4:	0480006f          	j	21c1c <flt+0x108>
   21bd8:	ec442783          	lw	a5,-316(s0)
   21bdc:	0047f793          	andi	a5,a5,4
   21be0:	00078e63          	beqz	a5,21bfc <flt+0xe8>
   21be4:	02b00793          	li	a5,43
   21be8:	fef407a3          	sb	a5,-17(s0)
   21bec:	ed842783          	lw	a5,-296(s0)
   21bf0:	fff78793          	addi	a5,a5,-1
   21bf4:	ecf42c23          	sw	a5,-296(s0)
   21bf8:	0240006f          	j	21c1c <flt+0x108>
   21bfc:	ec442783          	lw	a5,-316(s0)
   21c00:	0087f793          	andi	a5,a5,8
   21c04:	00078c63          	beqz	a5,21c1c <flt+0x108>
   21c08:	02000793          	li	a5,32
   21c0c:	fef407a3          	sb	a5,-17(s0)
   21c10:	ed842783          	lw	a5,-296(s0)
   21c14:	fff78793          	addi	a5,a5,-1
   21c18:	ecf42c23          	sw	a5,-296(s0)
   21c1c:	ecc42783          	lw	a5,-308(s0)
   21c20:	0007d663          	bgez	a5,21c2c <flt+0x118>
   21c24:	00600793          	li	a5,6
   21c28:	ecf42623          	sw	a5,-308(s0)
   21c2c:	ecb44683          	lbu	a3,-309(s0)
   21c30:	ee040793          	addi	a5,s0,-288
   21c34:	ecc42703          	lw	a4,-308(s0)
   21c38:	00078613          	mv	a2,a5
   21c3c:	ed042503          	lw	a0,-304(s0)
   21c40:	ed442583          	lw	a1,-300(s0)
   21c44:	f9cff0ef          	jal	213e0 <parse_float>
   21c48:	ec442783          	lw	a5,-316(s0)
   21c4c:	0207f793          	andi	a5,a5,32
   21c50:	00078c63          	beqz	a5,21c68 <flt+0x154>
   21c54:	ecc42783          	lw	a5,-308(s0)
   21c58:	00079863          	bnez	a5,21c68 <flt+0x154>
   21c5c:	ee040793          	addi	a5,s0,-288
   21c60:	00078513          	mv	a0,a5
   21c64:	c9dff0ef          	jal	21900 <decimal_point>
   21c68:	ecb44703          	lbu	a4,-309(s0)
   21c6c:	06700793          	li	a5,103
   21c70:	00f71e63          	bne	a4,a5,21c8c <flt+0x178>
   21c74:	ec442783          	lw	a5,-316(s0)
   21c78:	0207f793          	andi	a5,a5,32
   21c7c:	00079863          	bnez	a5,21c8c <flt+0x178>
   21c80:	ee040793          	addi	a5,s0,-288
   21c84:	00078513          	mv	a0,a5
   21c88:	d79ff0ef          	jal	21a00 <cropzeros>
   21c8c:	ee040793          	addi	a5,s0,-288
   21c90:	10000593          	li	a1,256
   21c94:	00078513          	mv	a0,a5
   21c98:	0e9040ef          	jal	26580 <strnlen>
   21c9c:	00050793          	mv	a5,a0
   21ca0:	fef42023          	sw	a5,-32(s0)
   21ca4:	ed842703          	lw	a4,-296(s0)
   21ca8:	fe042783          	lw	a5,-32(s0)
   21cac:	40f707b3          	sub	a5,a4,a5
   21cb0:	ecf42c23          	sw	a5,-296(s0)
   21cb4:	ec442783          	lw	a5,-316(s0)
   21cb8:	0117f793          	andi	a5,a5,17
   21cbc:	02079663          	bnez	a5,21ce8 <flt+0x1d4>
   21cc0:	0180006f          	j	21cd8 <flt+0x1c4>
   21cc4:	edc42783          	lw	a5,-292(s0)
   21cc8:	00178713          	addi	a4,a5,1
   21ccc:	ece42e23          	sw	a4,-292(s0)
   21cd0:	02000713          	li	a4,32
   21cd4:	00e78023          	sb	a4,0(a5)
   21cd8:	ed842783          	lw	a5,-296(s0)
   21cdc:	fff78713          	addi	a4,a5,-1
   21ce0:	ece42c23          	sw	a4,-296(s0)
   21ce4:	fef040e3          	bgtz	a5,21cc4 <flt+0x1b0>
   21ce8:	fef44783          	lbu	a5,-17(s0)
   21cec:	00078c63          	beqz	a5,21d04 <flt+0x1f0>
   21cf0:	edc42783          	lw	a5,-292(s0)
   21cf4:	00178713          	addi	a4,a5,1
   21cf8:	ece42e23          	sw	a4,-292(s0)
   21cfc:	fef44703          	lbu	a4,-17(s0)
   21d00:	00e78023          	sb	a4,0(a5)
   21d04:	ec442783          	lw	a5,-316(s0)
   21d08:	0107f793          	andi	a5,a5,16
   21d0c:	02079663          	bnez	a5,21d38 <flt+0x224>
   21d10:	0180006f          	j	21d28 <flt+0x214>
   21d14:	edc42783          	lw	a5,-292(s0)
   21d18:	00178713          	addi	a4,a5,1
   21d1c:	ece42e23          	sw	a4,-292(s0)
   21d20:	fe744703          	lbu	a4,-25(s0)
   21d24:	00e78023          	sb	a4,0(a5)
   21d28:	ed842783          	lw	a5,-296(s0)
   21d2c:	fff78713          	addi	a4,a5,-1
   21d30:	ece42c23          	sw	a4,-296(s0)
   21d34:	fef040e3          	bgtz	a5,21d14 <flt+0x200>
   21d38:	fe042423          	sw	zero,-24(s0)
   21d3c:	0300006f          	j	21d6c <flt+0x258>
   21d40:	edc42783          	lw	a5,-292(s0)
   21d44:	00178713          	addi	a4,a5,1
   21d48:	ece42e23          	sw	a4,-292(s0)
   21d4c:	fe842703          	lw	a4,-24(s0)
   21d50:	ff070713          	addi	a4,a4,-16
   21d54:	00870733          	add	a4,a4,s0
   21d58:	ef074703          	lbu	a4,-272(a4)
   21d5c:	00e78023          	sb	a4,0(a5)
   21d60:	fe842783          	lw	a5,-24(s0)
   21d64:	00178793          	addi	a5,a5,1
   21d68:	fef42423          	sw	a5,-24(s0)
   21d6c:	fe842703          	lw	a4,-24(s0)
   21d70:	fe042783          	lw	a5,-32(s0)
   21d74:	fcf746e3          	blt	a4,a5,21d40 <flt+0x22c>
   21d78:	0180006f          	j	21d90 <flt+0x27c>
   21d7c:	edc42783          	lw	a5,-292(s0)
   21d80:	00178713          	addi	a4,a5,1
   21d84:	ece42e23          	sw	a4,-292(s0)
   21d88:	02000713          	li	a4,32
   21d8c:	00e78023          	sb	a4,0(a5)
   21d90:	ed842783          	lw	a5,-296(s0)
   21d94:	fff78713          	addi	a4,a5,-1
   21d98:	ece42c23          	sw	a4,-296(s0)
   21d9c:	fef040e3          	bgtz	a5,21d7c <flt+0x268>
   21da0:	edc42783          	lw	a5,-292(s0)
   21da4:	00078513          	mv	a0,a5
   21da8:	13c12083          	lw	ra,316(sp)
   21dac:	13812403          	lw	s0,312(sp)
   21db0:	13412903          	lw	s2,308(sp)
   21db4:	13012983          	lw	s3,304(sp)
   21db8:	14010113          	addi	sp,sp,320
   21dbc:	00008067          	ret

00021dc0 <ee_vsprintf>:
ee_vsprintf():
   21dc0:	fb010113          	addi	sp,sp,-80
   21dc4:	04112623          	sw	ra,76(sp)
   21dc8:	04812423          	sw	s0,72(sp)
   21dcc:	05010413          	addi	s0,sp,80
   21dd0:	faa42e23          	sw	a0,-68(s0)
   21dd4:	fab42c23          	sw	a1,-72(s0)
   21dd8:	fac42a23          	sw	a2,-76(s0)
   21ddc:	fbc42783          	lw	a5,-68(s0)
   21de0:	fef42023          	sw	a5,-32(s0)
   21de4:	6180006f          	j	223fc <ee_vsprintf+0x63c>
   21de8:	fb842783          	lw	a5,-72(s0)
   21dec:	0007c703          	lbu	a4,0(a5)
   21df0:	02500793          	li	a5,37
   21df4:	02f70063          	beq	a4,a5,21e14 <ee_vsprintf+0x54>
   21df8:	fb842703          	lw	a4,-72(s0)
   21dfc:	fe042783          	lw	a5,-32(s0)
   21e00:	00178693          	addi	a3,a5,1
   21e04:	fed42023          	sw	a3,-32(s0)
   21e08:	00074703          	lbu	a4,0(a4)
   21e0c:	00e78023          	sb	a4,0(a5)
   21e10:	5e00006f          	j	223f0 <ee_vsprintf+0x630>
   21e14:	fc042c23          	sw	zero,-40(s0)
   21e18:	fb842783          	lw	a5,-72(s0)
   21e1c:	00178793          	addi	a5,a5,1
   21e20:	faf42c23          	sw	a5,-72(s0)
   21e24:	fb842783          	lw	a5,-72(s0)
   21e28:	0007c783          	lbu	a5,0(a5)
   21e2c:	fe078793          	addi	a5,a5,-32
   21e30:	01000713          	li	a4,16
   21e34:	06f76c63          	bltu	a4,a5,21eac <ee_vsprintf+0xec>
   21e38:	00279713          	slli	a4,a5,0x2
   21e3c:	00005797          	auipc	a5,0x5
   21e40:	c7478793          	addi	a5,a5,-908 # 26ab0 <__fpclassifyd+0x220>
   21e44:	00f707b3          	add	a5,a4,a5
   21e48:	0007a703          	lw	a4,0(a5)
   21e4c:	00005797          	auipc	a5,0x5
   21e50:	c6478793          	addi	a5,a5,-924 # 26ab0 <__fpclassifyd+0x220>
   21e54:	00f707b3          	add	a5,a4,a5
   21e58:	00078067          	jr	a5
   21e5c:	fd842783          	lw	a5,-40(s0)
   21e60:	0107e793          	ori	a5,a5,16
   21e64:	fcf42c23          	sw	a5,-40(s0)
   21e68:	fb1ff06f          	j	21e18 <ee_vsprintf+0x58>
   21e6c:	fd842783          	lw	a5,-40(s0)
   21e70:	0047e793          	ori	a5,a5,4
   21e74:	fcf42c23          	sw	a5,-40(s0)
   21e78:	fa1ff06f          	j	21e18 <ee_vsprintf+0x58>
   21e7c:	fd842783          	lw	a5,-40(s0)
   21e80:	0087e793          	ori	a5,a5,8
   21e84:	fcf42c23          	sw	a5,-40(s0)
   21e88:	f91ff06f          	j	21e18 <ee_vsprintf+0x58>
   21e8c:	fd842783          	lw	a5,-40(s0)
   21e90:	0207e793          	ori	a5,a5,32
   21e94:	fcf42c23          	sw	a5,-40(s0)
   21e98:	f81ff06f          	j	21e18 <ee_vsprintf+0x58>
   21e9c:	fd842783          	lw	a5,-40(s0)
   21ea0:	0017e793          	ori	a5,a5,1
   21ea4:	fcf42c23          	sw	a5,-40(s0)
   21ea8:	f71ff06f          	j	21e18 <ee_vsprintf+0x58>
   21eac:	fff00793          	li	a5,-1
   21eb0:	fcf42a23          	sw	a5,-44(s0)
   21eb4:	fb842783          	lw	a5,-72(s0)
   21eb8:	0007c703          	lbu	a4,0(a5)
   21ebc:	02f00793          	li	a5,47
   21ec0:	02e7f463          	bgeu	a5,a4,21ee8 <ee_vsprintf+0x128>
   21ec4:	fb842783          	lw	a5,-72(s0)
   21ec8:	0007c703          	lbu	a4,0(a5)
   21ecc:	03900793          	li	a5,57
   21ed0:	00e7ec63          	bltu	a5,a4,21ee8 <ee_vsprintf+0x128>
   21ed4:	fb840793          	addi	a5,s0,-72
   21ed8:	00078513          	mv	a0,a5
   21edc:	829fe0ef          	jal	20704 <skip_atoi>
   21ee0:	fca42a23          	sw	a0,-44(s0)
   21ee4:	0540006f          	j	21f38 <ee_vsprintf+0x178>
   21ee8:	fb842783          	lw	a5,-72(s0)
   21eec:	0007c703          	lbu	a4,0(a5)
   21ef0:	02a00793          	li	a5,42
   21ef4:	04f71263          	bne	a4,a5,21f38 <ee_vsprintf+0x178>
   21ef8:	fb842783          	lw	a5,-72(s0)
   21efc:	00178793          	addi	a5,a5,1
   21f00:	faf42c23          	sw	a5,-72(s0)
   21f04:	fb442783          	lw	a5,-76(s0)
   21f08:	00478713          	addi	a4,a5,4
   21f0c:	fae42a23          	sw	a4,-76(s0)
   21f10:	0007a783          	lw	a5,0(a5)
   21f14:	fcf42a23          	sw	a5,-44(s0)
   21f18:	fd442783          	lw	a5,-44(s0)
   21f1c:	0007de63          	bgez	a5,21f38 <ee_vsprintf+0x178>
   21f20:	fd442783          	lw	a5,-44(s0)
   21f24:	40f007b3          	neg	a5,a5
   21f28:	fcf42a23          	sw	a5,-44(s0)
   21f2c:	fd842783          	lw	a5,-40(s0)
   21f30:	0107e793          	ori	a5,a5,16
   21f34:	fcf42c23          	sw	a5,-40(s0)
   21f38:	fff00793          	li	a5,-1
   21f3c:	fcf42823          	sw	a5,-48(s0)
   21f40:	fb842783          	lw	a5,-72(s0)
   21f44:	0007c703          	lbu	a4,0(a5)
   21f48:	02e00793          	li	a5,46
   21f4c:	08f71063          	bne	a4,a5,21fcc <ee_vsprintf+0x20c>
   21f50:	fb842783          	lw	a5,-72(s0)
   21f54:	00178793          	addi	a5,a5,1
   21f58:	faf42c23          	sw	a5,-72(s0)
   21f5c:	fb842783          	lw	a5,-72(s0)
   21f60:	0007c703          	lbu	a4,0(a5)
   21f64:	02f00793          	li	a5,47
   21f68:	02e7f463          	bgeu	a5,a4,21f90 <ee_vsprintf+0x1d0>
   21f6c:	fb842783          	lw	a5,-72(s0)
   21f70:	0007c703          	lbu	a4,0(a5)
   21f74:	03900793          	li	a5,57
   21f78:	00e7ec63          	bltu	a5,a4,21f90 <ee_vsprintf+0x1d0>
   21f7c:	fb840793          	addi	a5,s0,-72
   21f80:	00078513          	mv	a0,a5
   21f84:	f80fe0ef          	jal	20704 <skip_atoi>
   21f88:	fca42823          	sw	a0,-48(s0)
   21f8c:	0340006f          	j	21fc0 <ee_vsprintf+0x200>
   21f90:	fb842783          	lw	a5,-72(s0)
   21f94:	0007c703          	lbu	a4,0(a5)
   21f98:	02a00793          	li	a5,42
   21f9c:	02f71263          	bne	a4,a5,21fc0 <ee_vsprintf+0x200>
   21fa0:	fb842783          	lw	a5,-72(s0)
   21fa4:	00178793          	addi	a5,a5,1
   21fa8:	faf42c23          	sw	a5,-72(s0)
   21fac:	fb442783          	lw	a5,-76(s0)
   21fb0:	00478713          	addi	a4,a5,4
   21fb4:	fae42a23          	sw	a4,-76(s0)
   21fb8:	0007a783          	lw	a5,0(a5)
   21fbc:	fcf42823          	sw	a5,-48(s0)
   21fc0:	fd042783          	lw	a5,-48(s0)
   21fc4:	0007d463          	bgez	a5,21fcc <ee_vsprintf+0x20c>
   21fc8:	fc042823          	sw	zero,-48(s0)
   21fcc:	fff00793          	li	a5,-1
   21fd0:	fcf42623          	sw	a5,-52(s0)
   21fd4:	fb842783          	lw	a5,-72(s0)
   21fd8:	0007c703          	lbu	a4,0(a5)
   21fdc:	06c00793          	li	a5,108
   21fe0:	00f70a63          	beq	a4,a5,21ff4 <ee_vsprintf+0x234>
   21fe4:	fb842783          	lw	a5,-72(s0)
   21fe8:	0007c703          	lbu	a4,0(a5)
   21fec:	04c00793          	li	a5,76
   21ff0:	00f71e63          	bne	a4,a5,2200c <ee_vsprintf+0x24c>
   21ff4:	fb842783          	lw	a5,-72(s0)
   21ff8:	0007c783          	lbu	a5,0(a5)
   21ffc:	fcf42623          	sw	a5,-52(s0)
   22000:	fb842783          	lw	a5,-72(s0)
   22004:	00178793          	addi	a5,a5,1
   22008:	faf42c23          	sw	a5,-72(s0)
   2200c:	00a00793          	li	a5,10
   22010:	fef42223          	sw	a5,-28(s0)
   22014:	fb842783          	lw	a5,-72(s0)
   22018:	0007c783          	lbu	a5,0(a5)
   2201c:	fbf78793          	addi	a5,a5,-65
   22020:	03700713          	li	a4,55
   22024:	2ef76863          	bltu	a4,a5,22314 <ee_vsprintf+0x554>
   22028:	00279713          	slli	a4,a5,0x2
   2202c:	00005797          	auipc	a5,0x5
   22030:	ac878793          	addi	a5,a5,-1336 # 26af4 <__fpclassifyd+0x264>
   22034:	00f707b3          	add	a5,a4,a5
   22038:	0007a703          	lw	a4,0(a5)
   2203c:	00005797          	auipc	a5,0x5
   22040:	ab878793          	addi	a5,a5,-1352 # 26af4 <__fpclassifyd+0x264>
   22044:	00f707b3          	add	a5,a4,a5
   22048:	00078067          	jr	a5
   2204c:	fd842783          	lw	a5,-40(s0)
   22050:	0107f793          	andi	a5,a5,16
   22054:	02079863          	bnez	a5,22084 <ee_vsprintf+0x2c4>
   22058:	0180006f          	j	22070 <ee_vsprintf+0x2b0>
   2205c:	fe042783          	lw	a5,-32(s0)
   22060:	00178713          	addi	a4,a5,1
   22064:	fee42023          	sw	a4,-32(s0)
   22068:	02000713          	li	a4,32
   2206c:	00e78023          	sb	a4,0(a5)
   22070:	fd442783          	lw	a5,-44(s0)
   22074:	fff78793          	addi	a5,a5,-1
   22078:	fcf42a23          	sw	a5,-44(s0)
   2207c:	fd442783          	lw	a5,-44(s0)
   22080:	fcf04ee3          	bgtz	a5,2205c <ee_vsprintf+0x29c>
   22084:	fb442783          	lw	a5,-76(s0)
   22088:	00478713          	addi	a4,a5,4
   2208c:	fae42a23          	sw	a4,-76(s0)
   22090:	0007a683          	lw	a3,0(a5)
   22094:	fe042783          	lw	a5,-32(s0)
   22098:	00178713          	addi	a4,a5,1
   2209c:	fee42023          	sw	a4,-32(s0)
   220a0:	0ff6f713          	zext.b	a4,a3
   220a4:	00e78023          	sb	a4,0(a5)
   220a8:	0180006f          	j	220c0 <ee_vsprintf+0x300>
   220ac:	fe042783          	lw	a5,-32(s0)
   220b0:	00178713          	addi	a4,a5,1
   220b4:	fee42023          	sw	a4,-32(s0)
   220b8:	02000713          	li	a4,32
   220bc:	00e78023          	sb	a4,0(a5)
   220c0:	fd442783          	lw	a5,-44(s0)
   220c4:	fff78793          	addi	a5,a5,-1
   220c8:	fcf42a23          	sw	a5,-44(s0)
   220cc:	fd442783          	lw	a5,-44(s0)
   220d0:	fcf04ee3          	bgtz	a5,220ac <ee_vsprintf+0x2ec>
   220d4:	31c0006f          	j	223f0 <ee_vsprintf+0x630>
   220d8:	fb442783          	lw	a5,-76(s0)
   220dc:	00478713          	addi	a4,a5,4
   220e0:	fae42a23          	sw	a4,-76(s0)
   220e4:	0007a783          	lw	a5,0(a5)
   220e8:	fcf42e23          	sw	a5,-36(s0)
   220ec:	fdc42783          	lw	a5,-36(s0)
   220f0:	00079863          	bnez	a5,22100 <ee_vsprintf+0x340>
   220f4:	00005797          	auipc	a5,0x5
   220f8:	9b478793          	addi	a5,a5,-1612 # 26aa8 <__fpclassifyd+0x218>
   220fc:	fcf42e23          	sw	a5,-36(s0)
   22100:	fd042783          	lw	a5,-48(s0)
   22104:	00078593          	mv	a1,a5
   22108:	fdc42503          	lw	a0,-36(s0)
   2210c:	474040ef          	jal	26580 <strnlen>
   22110:	00050793          	mv	a5,a0
   22114:	fcf42423          	sw	a5,-56(s0)
   22118:	fd842783          	lw	a5,-40(s0)
   2211c:	0107f793          	andi	a5,a5,16
   22120:	02079863          	bnez	a5,22150 <ee_vsprintf+0x390>
   22124:	0180006f          	j	2213c <ee_vsprintf+0x37c>
   22128:	fe042783          	lw	a5,-32(s0)
   2212c:	00178713          	addi	a4,a5,1
   22130:	fee42023          	sw	a4,-32(s0)
   22134:	02000713          	li	a4,32
   22138:	00e78023          	sb	a4,0(a5)
   2213c:	fd442783          	lw	a5,-44(s0)
   22140:	fff78713          	addi	a4,a5,-1
   22144:	fce42a23          	sw	a4,-44(s0)
   22148:	fc842703          	lw	a4,-56(s0)
   2214c:	fcf74ee3          	blt	a4,a5,22128 <ee_vsprintf+0x368>
   22150:	fe042423          	sw	zero,-24(s0)
   22154:	0300006f          	j	22184 <ee_vsprintf+0x3c4>
   22158:	fdc42703          	lw	a4,-36(s0)
   2215c:	00170793          	addi	a5,a4,1
   22160:	fcf42e23          	sw	a5,-36(s0)
   22164:	fe042783          	lw	a5,-32(s0)
   22168:	00178693          	addi	a3,a5,1
   2216c:	fed42023          	sw	a3,-32(s0)
   22170:	00074703          	lbu	a4,0(a4)
   22174:	00e78023          	sb	a4,0(a5)
   22178:	fe842783          	lw	a5,-24(s0)
   2217c:	00178793          	addi	a5,a5,1
   22180:	fef42423          	sw	a5,-24(s0)
   22184:	fe842703          	lw	a4,-24(s0)
   22188:	fc842783          	lw	a5,-56(s0)
   2218c:	fcf746e3          	blt	a4,a5,22158 <ee_vsprintf+0x398>
   22190:	0180006f          	j	221a8 <ee_vsprintf+0x3e8>
   22194:	fe042783          	lw	a5,-32(s0)
   22198:	00178713          	addi	a4,a5,1
   2219c:	fee42023          	sw	a4,-32(s0)
   221a0:	02000713          	li	a4,32
   221a4:	00e78023          	sb	a4,0(a5)
   221a8:	fd442783          	lw	a5,-44(s0)
   221ac:	fff78713          	addi	a4,a5,-1
   221b0:	fce42a23          	sw	a4,-44(s0)
   221b4:	fc842703          	lw	a4,-56(s0)
   221b8:	fcf74ee3          	blt	a4,a5,22194 <ee_vsprintf+0x3d4>
   221bc:	2340006f          	j	223f0 <ee_vsprintf+0x630>
   221c0:	fd442703          	lw	a4,-44(s0)
   221c4:	fff00793          	li	a5,-1
   221c8:	00f71c63          	bne	a4,a5,221e0 <ee_vsprintf+0x420>
   221cc:	00800793          	li	a5,8
   221d0:	fcf42a23          	sw	a5,-44(s0)
   221d4:	fd842783          	lw	a5,-40(s0)
   221d8:	0017e793          	ori	a5,a5,1
   221dc:	fcf42c23          	sw	a5,-40(s0)
   221e0:	fb442783          	lw	a5,-76(s0)
   221e4:	00478713          	addi	a4,a5,4
   221e8:	fae42a23          	sw	a4,-76(s0)
   221ec:	0007a783          	lw	a5,0(a5)
   221f0:	00078593          	mv	a1,a5
   221f4:	fd842783          	lw	a5,-40(s0)
   221f8:	fd042703          	lw	a4,-48(s0)
   221fc:	fd442683          	lw	a3,-44(s0)
   22200:	01000613          	li	a2,16
   22204:	fe042503          	lw	a0,-32(s0)
   22208:	8ddfe0ef          	jal	20ae4 <number>
   2220c:	fea42023          	sw	a0,-32(s0)
   22210:	1e00006f          	j	223f0 <ee_vsprintf+0x630>
   22214:	fd842783          	lw	a5,-40(s0)
   22218:	0407e793          	ori	a5,a5,64
   2221c:	fcf42c23          	sw	a5,-40(s0)
   22220:	fcc42703          	lw	a4,-52(s0)
   22224:	06c00793          	li	a5,108
   22228:	02f71a63          	bne	a4,a5,2225c <ee_vsprintf+0x49c>
   2222c:	fb442783          	lw	a5,-76(s0)
   22230:	00478713          	addi	a4,a5,4
   22234:	fae42a23          	sw	a4,-76(s0)
   22238:	0007a783          	lw	a5,0(a5)
   2223c:	fd842703          	lw	a4,-40(s0)
   22240:	fd042683          	lw	a3,-48(s0)
   22244:	fd442603          	lw	a2,-44(s0)
   22248:	00078593          	mv	a1,a5
   2224c:	fe042503          	lw	a0,-32(s0)
   22250:	c29fe0ef          	jal	20e78 <eaddr>
   22254:	fea42023          	sw	a0,-32(s0)
   22258:	1980006f          	j	223f0 <ee_vsprintf+0x630>
   2225c:	fb442783          	lw	a5,-76(s0)
   22260:	00478713          	addi	a4,a5,4
   22264:	fae42a23          	sw	a4,-76(s0)
   22268:	0007a783          	lw	a5,0(a5)
   2226c:	fd842703          	lw	a4,-40(s0)
   22270:	fd042683          	lw	a3,-48(s0)
   22274:	fd442603          	lw	a2,-44(s0)
   22278:	00078593          	mv	a1,a5
   2227c:	fe042503          	lw	a0,-32(s0)
   22280:	dc5fe0ef          	jal	21044 <iaddr>
   22284:	fea42023          	sw	a0,-32(s0)
   22288:	1680006f          	j	223f0 <ee_vsprintf+0x630>
   2228c:	00800793          	li	a5,8
   22290:	fef42223          	sw	a5,-28(s0)
   22294:	0e00006f          	j	22374 <ee_vsprintf+0x5b4>
   22298:	fd842783          	lw	a5,-40(s0)
   2229c:	0407e793          	ori	a5,a5,64
   222a0:	fcf42c23          	sw	a5,-40(s0)
   222a4:	01000793          	li	a5,16
   222a8:	fef42223          	sw	a5,-28(s0)
   222ac:	0c80006f          	j	22374 <ee_vsprintf+0x5b4>
   222b0:	fd842783          	lw	a5,-40(s0)
   222b4:	0027e793          	ori	a5,a5,2
   222b8:	fcf42c23          	sw	a5,-40(s0)
   222bc:	0b40006f          	j	22370 <ee_vsprintf+0x5b0>
   222c0:	fb442783          	lw	a5,-76(s0)
   222c4:	00778793          	addi	a5,a5,7
   222c8:	ff87f793          	andi	a5,a5,-8
   222cc:	00878713          	addi	a4,a5,8
   222d0:	fae42a23          	sw	a4,-76(s0)
   222d4:	0007a503          	lw	a0,0(a5)
   222d8:	0047a583          	lw	a1,4(a5)
   222dc:	fb842783          	lw	a5,-72(s0)
   222e0:	0007c703          	lbu	a4,0(a5)
   222e4:	fd842783          	lw	a5,-40(s0)
   222e8:	0027e793          	ori	a5,a5,2
   222ec:	00078813          	mv	a6,a5
   222f0:	00070793          	mv	a5,a4
   222f4:	fd042703          	lw	a4,-48(s0)
   222f8:	fd442683          	lw	a3,-44(s0)
   222fc:	00058613          	mv	a2,a1
   22300:	00050593          	mv	a1,a0
   22304:	fe042503          	lw	a0,-32(s0)
   22308:	80dff0ef          	jal	21b14 <flt>
   2230c:	fea42023          	sw	a0,-32(s0)
   22310:	0e00006f          	j	223f0 <ee_vsprintf+0x630>
   22314:	fb842783          	lw	a5,-72(s0)
   22318:	0007c703          	lbu	a4,0(a5)
   2231c:	02500793          	li	a5,37
   22320:	00f70c63          	beq	a4,a5,22338 <ee_vsprintf+0x578>
   22324:	fe042783          	lw	a5,-32(s0)
   22328:	00178713          	addi	a4,a5,1
   2232c:	fee42023          	sw	a4,-32(s0)
   22330:	02500713          	li	a4,37
   22334:	00e78023          	sb	a4,0(a5)
   22338:	fb842783          	lw	a5,-72(s0)
   2233c:	0007c783          	lbu	a5,0(a5)
   22340:	02078063          	beqz	a5,22360 <ee_vsprintf+0x5a0>
   22344:	fb842703          	lw	a4,-72(s0)
   22348:	fe042783          	lw	a5,-32(s0)
   2234c:	00178693          	addi	a3,a5,1
   22350:	fed42023          	sw	a3,-32(s0)
   22354:	00074703          	lbu	a4,0(a4)
   22358:	00e78023          	sb	a4,0(a5)
   2235c:	0940006f          	j	223f0 <ee_vsprintf+0x630>
   22360:	fb842783          	lw	a5,-72(s0)
   22364:	fff78793          	addi	a5,a5,-1
   22368:	faf42c23          	sw	a5,-72(s0)
   2236c:	0840006f          	j	223f0 <ee_vsprintf+0x630>
   22370:	00000013          	nop
   22374:	fcc42703          	lw	a4,-52(s0)
   22378:	06c00793          	li	a5,108
   2237c:	00f71e63          	bne	a4,a5,22398 <ee_vsprintf+0x5d8>
   22380:	fb442783          	lw	a5,-76(s0)
   22384:	00478713          	addi	a4,a5,4
   22388:	fae42a23          	sw	a4,-76(s0)
   2238c:	0007a783          	lw	a5,0(a5)
   22390:	fef42623          	sw	a5,-20(s0)
   22394:	03c0006f          	j	223d0 <ee_vsprintf+0x610>
   22398:	fd842783          	lw	a5,-40(s0)
   2239c:	0027f793          	andi	a5,a5,2
   223a0:	00078e63          	beqz	a5,223bc <ee_vsprintf+0x5fc>
   223a4:	fb442783          	lw	a5,-76(s0)
   223a8:	00478713          	addi	a4,a5,4
   223ac:	fae42a23          	sw	a4,-76(s0)
   223b0:	0007a783          	lw	a5,0(a5)
   223b4:	fef42623          	sw	a5,-20(s0)
   223b8:	0180006f          	j	223d0 <ee_vsprintf+0x610>
   223bc:	fb442783          	lw	a5,-76(s0)
   223c0:	00478713          	addi	a4,a5,4
   223c4:	fae42a23          	sw	a4,-76(s0)
   223c8:	0007a783          	lw	a5,0(a5)
   223cc:	fef42623          	sw	a5,-20(s0)
   223d0:	fec42583          	lw	a1,-20(s0)
   223d4:	fd842783          	lw	a5,-40(s0)
   223d8:	fd042703          	lw	a4,-48(s0)
   223dc:	fd442683          	lw	a3,-44(s0)
   223e0:	fe442603          	lw	a2,-28(s0)
   223e4:	fe042503          	lw	a0,-32(s0)
   223e8:	efcfe0ef          	jal	20ae4 <number>
   223ec:	fea42023          	sw	a0,-32(s0)
   223f0:	fb842783          	lw	a5,-72(s0)
   223f4:	00178793          	addi	a5,a5,1
   223f8:	faf42c23          	sw	a5,-72(s0)
   223fc:	fb842783          	lw	a5,-72(s0)
   22400:	0007c783          	lbu	a5,0(a5)
   22404:	9e0792e3          	bnez	a5,21de8 <ee_vsprintf+0x28>
   22408:	fe042783          	lw	a5,-32(s0)
   2240c:	00078023          	sb	zero,0(a5)
   22410:	fe042703          	lw	a4,-32(s0)
   22414:	fbc42783          	lw	a5,-68(s0)
   22418:	40f707b3          	sub	a5,a4,a5
   2241c:	00078513          	mv	a0,a5
   22420:	04c12083          	lw	ra,76(sp)
   22424:	04812403          	lw	s0,72(sp)
   22428:	05010113          	addi	sp,sp,80
   2242c:	00008067          	ret

00022430 <puts>:
puts():
   22430:	fd010113          	addi	sp,sp,-48
   22434:	02112623          	sw	ra,44(sp)
   22438:	02812423          	sw	s0,40(sp)
   2243c:	03010413          	addi	s0,sp,48
   22440:	fca42e23          	sw	a0,-36(s0)
   22444:	fe042623          	sw	zero,-20(s0)
   22448:	0300006f          	j	22478 <puts+0x48>
   2244c:	fdc42783          	lw	a5,-36(s0)
   22450:	00178713          	addi	a4,a5,1
   22454:	fce42e23          	sw	a4,-36(s0)
   22458:	0007c783          	lbu	a5,0(a5)
   2245c:	00078513          	mv	a0,a5
   22460:	83cfe0ef          	jal	2049c <putchar>
   22464:	00050713          	mv	a4,a0
   22468:	fff00793          	li	a5,-1
   2246c:	00f71663          	bne	a4,a5,22478 <puts+0x48>
   22470:	fff00793          	li	a5,-1
   22474:	0300006f          	j	224a4 <puts+0x74>
   22478:	fdc42783          	lw	a5,-36(s0)
   2247c:	0007c783          	lbu	a5,0(a5)
   22480:	fc0796e3          	bnez	a5,2244c <puts+0x1c>
   22484:	00a00513          	li	a0,10
   22488:	814fe0ef          	jal	2049c <putchar>
   2248c:	00050713          	mv	a4,a0
   22490:	fff00793          	li	a5,-1
   22494:	00f71663          	bne	a4,a5,224a0 <puts+0x70>
   22498:	fff00793          	li	a5,-1
   2249c:	0080006f          	j	224a4 <puts+0x74>
   224a0:	00100793          	li	a5,1
   224a4:	00078513          	mv	a0,a5
   224a8:	02c12083          	lw	ra,44(sp)
   224ac:	02812403          	lw	s0,40(sp)
   224b0:	03010113          	addi	sp,sp,48
   224b4:	00008067          	ret

000224b8 <printf>:
printf():
   224b8:	eb010113          	addi	sp,sp,-336
   224bc:	12112623          	sw	ra,300(sp)
   224c0:	12812423          	sw	s0,296(sp)
   224c4:	13010413          	addi	s0,sp,304
   224c8:	eca42e23          	sw	a0,-292(s0)
   224cc:	00b42223          	sw	a1,4(s0)
   224d0:	00c42423          	sw	a2,8(s0)
   224d4:	00d42623          	sw	a3,12(s0)
   224d8:	00e42823          	sw	a4,16(s0)
   224dc:	00f42a23          	sw	a5,20(s0)
   224e0:	01042c23          	sw	a6,24(s0)
   224e4:	01142e23          	sw	a7,28(s0)
   224e8:	fe042423          	sw	zero,-24(s0)
   224ec:	02040793          	addi	a5,s0,32
   224f0:	ecf42c23          	sw	a5,-296(s0)
   224f4:	ed842783          	lw	a5,-296(s0)
   224f8:	fe478793          	addi	a5,a5,-28
   224fc:	eef42223          	sw	a5,-284(s0)
   22500:	ee442703          	lw	a4,-284(s0)
   22504:	ee840793          	addi	a5,s0,-280
   22508:	00070613          	mv	a2,a4
   2250c:	edc42583          	lw	a1,-292(s0)
   22510:	00078513          	mv	a0,a5
   22514:	8adff0ef          	jal	21dc0 <ee_vsprintf>
   22518:	ee840793          	addi	a5,s0,-280
   2251c:	fef42623          	sw	a5,-20(s0)
   22520:	02c0006f          	j	2254c <printf+0x94>
   22524:	fec42783          	lw	a5,-20(s0)
   22528:	0007c783          	lbu	a5,0(a5)
   2252c:	00078513          	mv	a0,a5
   22530:	f6dfd0ef          	jal	2049c <putchar>
   22534:	fe842783          	lw	a5,-24(s0)
   22538:	00178793          	addi	a5,a5,1
   2253c:	fef42423          	sw	a5,-24(s0)
   22540:	fec42783          	lw	a5,-20(s0)
   22544:	00178793          	addi	a5,a5,1
   22548:	fef42623          	sw	a5,-20(s0)
   2254c:	fec42783          	lw	a5,-20(s0)
   22550:	0007c783          	lbu	a5,0(a5)
   22554:	fc0798e3          	bnez	a5,22524 <printf+0x6c>
   22558:	fe842783          	lw	a5,-24(s0)
   2255c:	00078513          	mv	a0,a5
   22560:	12c12083          	lw	ra,300(sp)
   22564:	12812403          	lw	s0,296(sp)
   22568:	15010113          	addi	sp,sp,336
   2256c:	00008067          	ret

00022570 <sprintf>:
sprintf():
   22570:	fb010113          	addi	sp,sp,-80
   22574:	02112623          	sw	ra,44(sp)
   22578:	02812423          	sw	s0,40(sp)
   2257c:	03010413          	addi	s0,sp,48
   22580:	fca42e23          	sw	a0,-36(s0)
   22584:	fcb42c23          	sw	a1,-40(s0)
   22588:	00c42423          	sw	a2,8(s0)
   2258c:	00d42623          	sw	a3,12(s0)
   22590:	00e42823          	sw	a4,16(s0)
   22594:	00f42a23          	sw	a5,20(s0)
   22598:	01042c23          	sw	a6,24(s0)
   2259c:	01142e23          	sw	a7,28(s0)
   225a0:	fe042623          	sw	zero,-20(s0)
   225a4:	02040793          	addi	a5,s0,32
   225a8:	fcf42a23          	sw	a5,-44(s0)
   225ac:	fd442783          	lw	a5,-44(s0)
   225b0:	fe878793          	addi	a5,a5,-24
   225b4:	fef42423          	sw	a5,-24(s0)
   225b8:	fe842783          	lw	a5,-24(s0)
   225bc:	00078613          	mv	a2,a5
   225c0:	fd842583          	lw	a1,-40(s0)
   225c4:	fdc42503          	lw	a0,-36(s0)
   225c8:	ff8ff0ef          	jal	21dc0 <ee_vsprintf>
   225cc:	fec42783          	lw	a5,-20(s0)
   225d0:	00078513          	mv	a0,a5
   225d4:	02c12083          	lw	ra,44(sp)
   225d8:	02812403          	lw	s0,40(sp)
   225dc:	05010113          	addi	sp,sp,80
   225e0:	00008067          	ret

000225e4 <_sbrk>:
_sbrk():
   225e4:	fe010113          	addi	sp,sp,-32
   225e8:	00112e23          	sw	ra,28(sp)
   225ec:	00812c23          	sw	s0,24(sp)
   225f0:	02010413          	addi	s0,sp,32
   225f4:	fea42623          	sw	a0,-20(s0)
   225f8:	00004517          	auipc	a0,0x4
   225fc:	5dc50513          	addi	a0,a0,1500 # 26bd4 <__fpclassifyd+0x344>
   22600:	e31ff0ef          	jal	22430 <puts>
   22604:	80818793          	addi	a5,gp,-2040 # 26f68 <curbrk.0>
   22608:	0007a703          	lw	a4,0(a5)
   2260c:	fec42783          	lw	a5,-20(s0)
   22610:	00f70733          	add	a4,a4,a5
   22614:	00005797          	auipc	a5,0x5
   22618:	9ac78793          	addi	a5,a5,-1620 # 26fc0 <_bss_end>
   2261c:	02f76063          	bltu	a4,a5,2263c <_sbrk+0x58>
   22620:	80818793          	addi	a5,gp,-2040 # 26f68 <curbrk.0>
   22624:	0007a703          	lw	a4,0(a5)
   22628:	fec42783          	lw	a5,-20(s0)
   2262c:	00f70733          	add	a4,a4,a5
   22630:	00007797          	auipc	a5,0x7
   22634:	99078793          	addi	a5,a5,-1648 # 28fc0 <_heap_end>
   22638:	00e7f663          	bgeu	a5,a4,22644 <_sbrk+0x60>
   2263c:	fff00793          	li	a5,-1
   22640:	0300006f          	j	22670 <_sbrk+0x8c>
   22644:	80818793          	addi	a5,gp,-2040 # 26f68 <curbrk.0>
   22648:	0007a703          	lw	a4,0(a5)
   2264c:	fec42783          	lw	a5,-20(s0)
   22650:	00f70733          	add	a4,a4,a5
   22654:	80818793          	addi	a5,gp,-2040 # 26f68 <curbrk.0>
   22658:	00e7a023          	sw	a4,0(a5)
   2265c:	80818793          	addi	a5,gp,-2040 # 26f68 <curbrk.0>
   22660:	0007a703          	lw	a4,0(a5)
   22664:	fec42783          	lw	a5,-20(s0)
   22668:	40f007b3          	neg	a5,a5
   2266c:	00f707b3          	add	a5,a4,a5
   22670:	00078513          	mv	a0,a5
   22674:	01c12083          	lw	ra,28(sp)
   22678:	01812403          	lw	s0,24(sp)
   2267c:	02010113          	addi	sp,sp,32
   22680:	00008067          	ret

00022684 <cvt>:
cvt():
   22684:	fb010113          	addi	sp,sp,-80
   22688:	04112623          	sw	ra,76(sp)
   2268c:	04812423          	sw	s0,72(sp)
   22690:	05212223          	sw	s2,68(sp)
   22694:	05312023          	sw	s3,64(sp)
   22698:	05010413          	addi	s0,sp,80
   2269c:	fca42423          	sw	a0,-56(s0)
   226a0:	fcb42623          	sw	a1,-52(s0)
   226a4:	fcc42223          	sw	a2,-60(s0)
   226a8:	fcd42023          	sw	a3,-64(s0)
   226ac:	fae42e23          	sw	a4,-68(s0)
   226b0:	faf42c23          	sw	a5,-72(s0)
   226b4:	fb042a23          	sw	a6,-76(s0)
   226b8:	fc442783          	lw	a5,-60(s0)
   226bc:	0007d463          	bgez	a5,226c4 <cvt+0x40>
   226c0:	fc042223          	sw	zero,-60(s0)
   226c4:	fc442703          	lw	a4,-60(s0)
   226c8:	04e00793          	li	a5,78
   226cc:	00e7d663          	bge	a5,a4,226d8 <cvt+0x54>
   226d0:	04e00793          	li	a5,78
   226d4:	fcf42223          	sw	a5,-60(s0)
   226d8:	fe042623          	sw	zero,-20(s0)
   226dc:	fbc42783          	lw	a5,-68(s0)
   226e0:	0007a023          	sw	zero,0(a5)
   226e4:	fb842783          	lw	a5,-72(s0)
   226e8:	fef42423          	sw	a5,-24(s0)
   226ec:	00000613          	li	a2,0
   226f0:	00000693          	li	a3,0
   226f4:	fc842503          	lw	a0,-56(s0)
   226f8:	fcc42583          	lw	a1,-52(s0)
   226fc:	4bd010ef          	jal	243b8 <__ledf2>
   22700:	00050793          	mv	a5,a0
   22704:	0207d463          	bgez	a5,2272c <cvt+0xa8>
   22708:	fbc42783          	lw	a5,-68(s0)
   2270c:	00100713          	li	a4,1
   22710:	00e7a023          	sw	a4,0(a5)
   22714:	fc842903          	lw	s2,-56(s0)
   22718:	fcc42703          	lw	a4,-52(s0)
   2271c:	800007b7          	lui	a5,0x80000
   22720:	00f749b3          	xor	s3,a4,a5
   22724:	fd242423          	sw	s2,-56(s0)
   22728:	fd342623          	sw	s3,-52(s0)
   2272c:	fd840793          	addi	a5,s0,-40
   22730:	00078613          	mv	a2,a5
   22734:	fc842503          	lw	a0,-56(s0)
   22738:	fcc42583          	lw	a1,-52(s0)
   2273c:	79d030ef          	jal	266d8 <modf>
   22740:	fca42423          	sw	a0,-56(s0)
   22744:	fcb42623          	sw	a1,-52(s0)
   22748:	fb842783          	lw	a5,-72(s0)
   2274c:	05078793          	addi	a5,a5,80 # 80000050 <_heap_end+0x7ffd7090>
   22750:	fef42223          	sw	a5,-28(s0)
   22754:	fd842703          	lw	a4,-40(s0)
   22758:	fdc42783          	lw	a5,-36(s0)
   2275c:	00000613          	li	a2,0
   22760:	00000693          	li	a3,0
   22764:	00070513          	mv	a0,a4
   22768:	00078593          	mv	a1,a5
   2276c:	2f1010ef          	jal	2425c <__eqdf2>
   22770:	00050793          	mv	a5,a0
   22774:	14078863          	beqz	a5,228c4 <cvt+0x240>
   22778:	fb842783          	lw	a5,-72(s0)
   2277c:	05078793          	addi	a5,a5,80
   22780:	fef42223          	sw	a5,-28(s0)
   22784:	0e00006f          	j	22864 <cvt+0x1e0>
   22788:	fd842703          	lw	a4,-40(s0)
   2278c:	fdc42783          	lw	a5,-36(s0)
   22790:	00004697          	auipc	a3,0x4
   22794:	45868693          	addi	a3,a3,1112 # 26be8 <__fpclassifyd+0x358>
   22798:	0006a603          	lw	a2,0(a3)
   2279c:	0046a683          	lw	a3,4(a3)
   227a0:	00070513          	mv	a0,a4
   227a4:	00078593          	mv	a1,a5
   227a8:	3f8010ef          	jal	23ba0 <__divdf3>
   227ac:	00050713          	mv	a4,a0
   227b0:	00058793          	mv	a5,a1
   227b4:	fd840693          	addi	a3,s0,-40
   227b8:	00068613          	mv	a2,a3
   227bc:	00070513          	mv	a0,a4
   227c0:	00078593          	mv	a1,a5
   227c4:	715030ef          	jal	266d8 <modf>
   227c8:	00050713          	mv	a4,a0
   227cc:	00058793          	mv	a5,a1
   227d0:	fce42823          	sw	a4,-48(s0)
   227d4:	fcf42a23          	sw	a5,-44(s0)
   227d8:	fd042703          	lw	a4,-48(s0)
   227dc:	fd442783          	lw	a5,-44(s0)
   227e0:	00004697          	auipc	a3,0x4
   227e4:	41068693          	addi	a3,a3,1040 # 26bf0 <__fpclassifyd+0x360>
   227e8:	0006a603          	lw	a2,0(a3)
   227ec:	0046a683          	lw	a3,4(a3)
   227f0:	00070513          	mv	a0,a4
   227f4:	00078593          	mv	a1,a5
   227f8:	429000ef          	jal	23420 <__adddf3>
   227fc:	00050713          	mv	a4,a0
   22800:	00058793          	mv	a5,a1
   22804:	00070513          	mv	a0,a4
   22808:	00078593          	mv	a1,a5
   2280c:	00004797          	auipc	a5,0x4
   22810:	3dc78793          	addi	a5,a5,988 # 26be8 <__fpclassifyd+0x358>
   22814:	0007a603          	lw	a2,0(a5)
   22818:	0047a683          	lw	a3,4(a5)
   2281c:	46d010ef          	jal	24488 <__muldf3>
   22820:	00050713          	mv	a4,a0
   22824:	00058793          	mv	a5,a1
   22828:	00070513          	mv	a0,a4
   2282c:	00078593          	mv	a1,a5
   22830:	1dd020ef          	jal	2520c <__fixdfsi>
   22834:	00050793          	mv	a5,a0
   22838:	0ff7f793          	zext.b	a5,a5
   2283c:	fe442703          	lw	a4,-28(s0)
   22840:	fff70713          	addi	a4,a4,-1
   22844:	fee42223          	sw	a4,-28(s0)
   22848:	03078793          	addi	a5,a5,48
   2284c:	0ff7f713          	zext.b	a4,a5
   22850:	fe442783          	lw	a5,-28(s0)
   22854:	00e78023          	sb	a4,0(a5)
   22858:	fec42783          	lw	a5,-20(s0)
   2285c:	00178793          	addi	a5,a5,1
   22860:	fef42623          	sw	a5,-20(s0)
   22864:	fd842703          	lw	a4,-40(s0)
   22868:	fdc42783          	lw	a5,-36(s0)
   2286c:	00000613          	li	a2,0
   22870:	00000693          	li	a3,0
   22874:	00070513          	mv	a0,a4
   22878:	00078593          	mv	a1,a5
   2287c:	1e1010ef          	jal	2425c <__eqdf2>
   22880:	00050793          	mv	a5,a0
   22884:	f00792e3          	bnez	a5,22788 <cvt+0x104>
   22888:	0280006f          	j	228b0 <cvt+0x22c>
   2288c:	fe442703          	lw	a4,-28(s0)
   22890:	00170793          	addi	a5,a4,1
   22894:	fef42223          	sw	a5,-28(s0)
   22898:	fe842783          	lw	a5,-24(s0)
   2289c:	00178693          	addi	a3,a5,1
   228a0:	fed42423          	sw	a3,-24(s0)
   228a4:	00074703          	lbu	a4,0(a4)
   228a8:	0ff77713          	zext.b	a4,a4
   228ac:	00e78023          	sb	a4,0(a5)
   228b0:	fb842783          	lw	a5,-72(s0)
   228b4:	05078793          	addi	a5,a5,80
   228b8:	fe442703          	lw	a4,-28(s0)
   228bc:	fcf768e3          	bltu	a4,a5,2288c <cvt+0x208>
   228c0:	0980006f          	j	22958 <cvt+0x2d4>
   228c4:	00000613          	li	a2,0
   228c8:	00000693          	li	a3,0
   228cc:	fc842503          	lw	a0,-56(s0)
   228d0:	fcc42583          	lw	a1,-52(s0)
   228d4:	215010ef          	jal	242e8 <__gedf2>
   228d8:	00050793          	mv	a5,a0
   228dc:	06f05e63          	blez	a5,22958 <cvt+0x2d4>
   228e0:	0200006f          	j	22900 <cvt+0x27c>
   228e4:	fd042703          	lw	a4,-48(s0)
   228e8:	fd442783          	lw	a5,-44(s0)
   228ec:	fce42423          	sw	a4,-56(s0)
   228f0:	fcf42623          	sw	a5,-52(s0)
   228f4:	fec42783          	lw	a5,-20(s0)
   228f8:	fff78793          	addi	a5,a5,-1
   228fc:	fef42623          	sw	a5,-20(s0)
   22900:	00004797          	auipc	a5,0x4
   22904:	2e878793          	addi	a5,a5,744 # 26be8 <__fpclassifyd+0x358>
   22908:	0007a603          	lw	a2,0(a5)
   2290c:	0047a683          	lw	a3,4(a5)
   22910:	fc842503          	lw	a0,-56(s0)
   22914:	fcc42583          	lw	a1,-52(s0)
   22918:	371010ef          	jal	24488 <__muldf3>
   2291c:	00050713          	mv	a4,a0
   22920:	00058793          	mv	a5,a1
   22924:	fce42823          	sw	a4,-48(s0)
   22928:	fcf42a23          	sw	a5,-44(s0)
   2292c:	fd042703          	lw	a4,-48(s0)
   22930:	fd442783          	lw	a5,-44(s0)
   22934:	00004697          	auipc	a3,0x4
   22938:	2c468693          	addi	a3,a3,708 # 26bf8 <__fpclassifyd+0x368>
   2293c:	0006a603          	lw	a2,0(a3)
   22940:	0046a683          	lw	a3,4(a3)
   22944:	00070513          	mv	a0,a4
   22948:	00078593          	mv	a1,a5
   2294c:	26d010ef          	jal	243b8 <__ledf2>
   22950:	00050793          	mv	a5,a0
   22954:	f807c8e3          	bltz	a5,228e4 <cvt+0x260>
   22958:	fc442783          	lw	a5,-60(s0)
   2295c:	fb842703          	lw	a4,-72(s0)
   22960:	00f707b3          	add	a5,a4,a5
   22964:	fef42223          	sw	a5,-28(s0)
   22968:	fb442783          	lw	a5,-76(s0)
   2296c:	00079a63          	bnez	a5,22980 <cvt+0x2fc>
   22970:	fec42783          	lw	a5,-20(s0)
   22974:	fe442703          	lw	a4,-28(s0)
   22978:	00f707b3          	add	a5,a4,a5
   2297c:	fef42223          	sw	a5,-28(s0)
   22980:	fc042783          	lw	a5,-64(s0)
   22984:	fec42703          	lw	a4,-20(s0)
   22988:	00e7a023          	sw	a4,0(a5)
   2298c:	fe442703          	lw	a4,-28(s0)
   22990:	fb842783          	lw	a5,-72(s0)
   22994:	08f77863          	bgeu	a4,a5,22a24 <cvt+0x3a0>
   22998:	fb842783          	lw	a5,-72(s0)
   2299c:	00078023          	sb	zero,0(a5)
   229a0:	fb842783          	lw	a5,-72(s0)
   229a4:	1980006f          	j	22b3c <cvt+0x4b8>
   229a8:	00004797          	auipc	a5,0x4
   229ac:	24078793          	addi	a5,a5,576 # 26be8 <__fpclassifyd+0x358>
   229b0:	0007a603          	lw	a2,0(a5)
   229b4:	0047a683          	lw	a3,4(a5)
   229b8:	fc842503          	lw	a0,-56(s0)
   229bc:	fcc42583          	lw	a1,-52(s0)
   229c0:	2c9010ef          	jal	24488 <__muldf3>
   229c4:	00050713          	mv	a4,a0
   229c8:	00058793          	mv	a5,a1
   229cc:	fce42423          	sw	a4,-56(s0)
   229d0:	fcf42623          	sw	a5,-52(s0)
   229d4:	fd040793          	addi	a5,s0,-48
   229d8:	00078613          	mv	a2,a5
   229dc:	fc842503          	lw	a0,-56(s0)
   229e0:	fcc42583          	lw	a1,-52(s0)
   229e4:	4f5030ef          	jal	266d8 <modf>
   229e8:	fca42423          	sw	a0,-56(s0)
   229ec:	fcb42623          	sw	a1,-52(s0)
   229f0:	fd042703          	lw	a4,-48(s0)
   229f4:	fd442783          	lw	a5,-44(s0)
   229f8:	00070513          	mv	a0,a4
   229fc:	00078593          	mv	a1,a5
   22a00:	00d020ef          	jal	2520c <__fixdfsi>
   22a04:	00050793          	mv	a5,a0
   22a08:	0ff7f713          	zext.b	a4,a5
   22a0c:	fe842783          	lw	a5,-24(s0)
   22a10:	00178693          	addi	a3,a5,1
   22a14:	fed42423          	sw	a3,-24(s0)
   22a18:	03070713          	addi	a4,a4,48
   22a1c:	0ff77713          	zext.b	a4,a4
   22a20:	00e78023          	sb	a4,0(a5)
   22a24:	fe842703          	lw	a4,-24(s0)
   22a28:	fe442783          	lw	a5,-28(s0)
   22a2c:	00e7ea63          	bltu	a5,a4,22a40 <cvt+0x3bc>
   22a30:	fb842783          	lw	a5,-72(s0)
   22a34:	05078793          	addi	a5,a5,80
   22a38:	fe842703          	lw	a4,-24(s0)
   22a3c:	f6f766e3          	bltu	a4,a5,229a8 <cvt+0x324>
   22a40:	fb842783          	lw	a5,-72(s0)
   22a44:	05078793          	addi	a5,a5,80
   22a48:	fe442703          	lw	a4,-28(s0)
   22a4c:	00f76c63          	bltu	a4,a5,22a64 <cvt+0x3e0>
   22a50:	fb842783          	lw	a5,-72(s0)
   22a54:	04f78793          	addi	a5,a5,79
   22a58:	00078023          	sb	zero,0(a5)
   22a5c:	fb842783          	lw	a5,-72(s0)
   22a60:	0dc0006f          	j	22b3c <cvt+0x4b8>
   22a64:	fe442783          	lw	a5,-28(s0)
   22a68:	fef42423          	sw	a5,-24(s0)
   22a6c:	fe442783          	lw	a5,-28(s0)
   22a70:	0007c783          	lbu	a5,0(a5)
   22a74:	0ff7f793          	zext.b	a5,a5
   22a78:	00578793          	addi	a5,a5,5
   22a7c:	0ff7f713          	zext.b	a4,a5
   22a80:	fe442783          	lw	a5,-28(s0)
   22a84:	00e78023          	sb	a4,0(a5)
   22a88:	0940006f          	j	22b1c <cvt+0x498>
   22a8c:	fe442783          	lw	a5,-28(s0)
   22a90:	03000713          	li	a4,48
   22a94:	00e78023          	sb	a4,0(a5)
   22a98:	fe442703          	lw	a4,-28(s0)
   22a9c:	fb842783          	lw	a5,-72(s0)
   22aa0:	02e7f863          	bgeu	a5,a4,22ad0 <cvt+0x44c>
   22aa4:	fe442783          	lw	a5,-28(s0)
   22aa8:	fff78793          	addi	a5,a5,-1
   22aac:	fef42223          	sw	a5,-28(s0)
   22ab0:	fe442783          	lw	a5,-28(s0)
   22ab4:	0007c783          	lbu	a5,0(a5)
   22ab8:	0ff7f793          	zext.b	a5,a5
   22abc:	00178793          	addi	a5,a5,1
   22ac0:	0ff7f713          	zext.b	a4,a5
   22ac4:	fe442783          	lw	a5,-28(s0)
   22ac8:	00e78023          	sb	a4,0(a5)
   22acc:	0500006f          	j	22b1c <cvt+0x498>
   22ad0:	fe442783          	lw	a5,-28(s0)
   22ad4:	03100713          	li	a4,49
   22ad8:	00e78023          	sb	a4,0(a5)
   22adc:	fc042783          	lw	a5,-64(s0)
   22ae0:	0007a783          	lw	a5,0(a5)
   22ae4:	00178713          	addi	a4,a5,1
   22ae8:	fc042783          	lw	a5,-64(s0)
   22aec:	00e7a023          	sw	a4,0(a5)
   22af0:	fb442783          	lw	a5,-76(s0)
   22af4:	02079463          	bnez	a5,22b1c <cvt+0x498>
   22af8:	fe842703          	lw	a4,-24(s0)
   22afc:	fb842783          	lw	a5,-72(s0)
   22b00:	00e7f863          	bgeu	a5,a4,22b10 <cvt+0x48c>
   22b04:	fe842783          	lw	a5,-24(s0)
   22b08:	03000713          	li	a4,48
   22b0c:	00e78023          	sb	a4,0(a5)
   22b10:	fe842783          	lw	a5,-24(s0)
   22b14:	00178793          	addi	a5,a5,1
   22b18:	fef42423          	sw	a5,-24(s0)
   22b1c:	fe442783          	lw	a5,-28(s0)
   22b20:	0007c783          	lbu	a5,0(a5)
   22b24:	0ff7f713          	zext.b	a4,a5
   22b28:	03900793          	li	a5,57
   22b2c:	f6e7e0e3          	bltu	a5,a4,22a8c <cvt+0x408>
   22b30:	fe842783          	lw	a5,-24(s0)
   22b34:	00078023          	sb	zero,0(a5)
   22b38:	fb842783          	lw	a5,-72(s0)
   22b3c:	00078513          	mv	a0,a5
   22b40:	04c12083          	lw	ra,76(sp)
   22b44:	04812403          	lw	s0,72(sp)
   22b48:	04412903          	lw	s2,68(sp)
   22b4c:	04012983          	lw	s3,64(sp)
   22b50:	05010113          	addi	sp,sp,80
   22b54:	00008067          	ret

00022b58 <ecvt>:
ecvt():
   22b58:	fd010113          	addi	sp,sp,-48
   22b5c:	02112623          	sw	ra,44(sp)
   22b60:	02812423          	sw	s0,40(sp)
   22b64:	03010413          	addi	s0,sp,48
   22b68:	fea42423          	sw	a0,-24(s0)
   22b6c:	feb42623          	sw	a1,-20(s0)
   22b70:	fec42223          	sw	a2,-28(s0)
   22b74:	fed42023          	sw	a3,-32(s0)
   22b78:	fce42e23          	sw	a4,-36(s0)
   22b7c:	00100813          	li	a6,1
   22b80:	00004797          	auipc	a5,0x4
   22b84:	3f078793          	addi	a5,a5,1008 # 26f70 <CVTBUF>
   22b88:	fdc42703          	lw	a4,-36(s0)
   22b8c:	fe042683          	lw	a3,-32(s0)
   22b90:	fe442603          	lw	a2,-28(s0)
   22b94:	fe842503          	lw	a0,-24(s0)
   22b98:	fec42583          	lw	a1,-20(s0)
   22b9c:	ae9ff0ef          	jal	22684 <cvt>
   22ba0:	00050793          	mv	a5,a0
   22ba4:	00078513          	mv	a0,a5
   22ba8:	02c12083          	lw	ra,44(sp)
   22bac:	02812403          	lw	s0,40(sp)
   22bb0:	03010113          	addi	sp,sp,48
   22bb4:	00008067          	ret

00022bb8 <ecvtbuf>:
ecvtbuf():
   22bb8:	fd010113          	addi	sp,sp,-48
   22bbc:	02112623          	sw	ra,44(sp)
   22bc0:	02812423          	sw	s0,40(sp)
   22bc4:	03010413          	addi	s0,sp,48
   22bc8:	fea42423          	sw	a0,-24(s0)
   22bcc:	feb42623          	sw	a1,-20(s0)
   22bd0:	fec42223          	sw	a2,-28(s0)
   22bd4:	fed42023          	sw	a3,-32(s0)
   22bd8:	fce42e23          	sw	a4,-36(s0)
   22bdc:	fcf42c23          	sw	a5,-40(s0)
   22be0:	00100813          	li	a6,1
   22be4:	fd842783          	lw	a5,-40(s0)
   22be8:	fdc42703          	lw	a4,-36(s0)
   22bec:	fe042683          	lw	a3,-32(s0)
   22bf0:	fe442603          	lw	a2,-28(s0)
   22bf4:	fe842503          	lw	a0,-24(s0)
   22bf8:	fec42583          	lw	a1,-20(s0)
   22bfc:	a89ff0ef          	jal	22684 <cvt>
   22c00:	00050793          	mv	a5,a0
   22c04:	00078513          	mv	a0,a5
   22c08:	02c12083          	lw	ra,44(sp)
   22c0c:	02812403          	lw	s0,40(sp)
   22c10:	03010113          	addi	sp,sp,48
   22c14:	00008067          	ret

00022c18 <fcvt>:
fcvt():
   22c18:	fd010113          	addi	sp,sp,-48
   22c1c:	02112623          	sw	ra,44(sp)
   22c20:	02812423          	sw	s0,40(sp)
   22c24:	03010413          	addi	s0,sp,48
   22c28:	fea42423          	sw	a0,-24(s0)
   22c2c:	feb42623          	sw	a1,-20(s0)
   22c30:	fec42223          	sw	a2,-28(s0)
   22c34:	fed42023          	sw	a3,-32(s0)
   22c38:	fce42e23          	sw	a4,-36(s0)
   22c3c:	00000813          	li	a6,0
   22c40:	00004797          	auipc	a5,0x4
   22c44:	33078793          	addi	a5,a5,816 # 26f70 <CVTBUF>
   22c48:	fdc42703          	lw	a4,-36(s0)
   22c4c:	fe042683          	lw	a3,-32(s0)
   22c50:	fe442603          	lw	a2,-28(s0)
   22c54:	fe842503          	lw	a0,-24(s0)
   22c58:	fec42583          	lw	a1,-20(s0)
   22c5c:	a29ff0ef          	jal	22684 <cvt>
   22c60:	00050793          	mv	a5,a0
   22c64:	00078513          	mv	a0,a5
   22c68:	02c12083          	lw	ra,44(sp)
   22c6c:	02812403          	lw	s0,40(sp)
   22c70:	03010113          	addi	sp,sp,48
   22c74:	00008067          	ret

00022c78 <fcvtbuf>:
fcvtbuf():
   22c78:	fd010113          	addi	sp,sp,-48
   22c7c:	02112623          	sw	ra,44(sp)
   22c80:	02812423          	sw	s0,40(sp)
   22c84:	03010413          	addi	s0,sp,48
   22c88:	fea42423          	sw	a0,-24(s0)
   22c8c:	feb42623          	sw	a1,-20(s0)
   22c90:	fec42223          	sw	a2,-28(s0)
   22c94:	fed42023          	sw	a3,-32(s0)
   22c98:	fce42e23          	sw	a4,-36(s0)
   22c9c:	fcf42c23          	sw	a5,-40(s0)
   22ca0:	00000813          	li	a6,0
   22ca4:	fd842783          	lw	a5,-40(s0)
   22ca8:	fdc42703          	lw	a4,-36(s0)
   22cac:	fe042683          	lw	a3,-32(s0)
   22cb0:	fe442603          	lw	a2,-28(s0)
   22cb4:	fe842503          	lw	a0,-24(s0)
   22cb8:	fec42583          	lw	a1,-20(s0)
   22cbc:	9c9ff0ef          	jal	22684 <cvt>
   22cc0:	00050793          	mv	a5,a0
   22cc4:	00078513          	mv	a0,a5
   22cc8:	02c12083          	lw	ra,44(sp)
   22ccc:	02812403          	lw	s0,40(sp)
   22cd0:	03010113          	addi	sp,sp,48
   22cd4:	00008067          	ret

00022cd8 <init_uart>:
init_uart():
   22cd8:	ff010113          	addi	sp,sp,-16
   22cdc:	00112623          	sw	ra,12(sp)
   22ce0:	00812423          	sw	s0,8(sp)
   22ce4:	01010413          	addi	s0,sp,16
   22ce8:	100017b7          	lui	a5,0x10001
   22cec:	08300713          	li	a4,131
   22cf0:	00e7a623          	sw	a4,12(a5) # 1000100c <_heap_end+0xffd804c>
   22cf4:	100017b7          	lui	a5,0x10001
   22cf8:	01500713          	li	a4,21
   22cfc:	00e7a023          	sw	a4,0(a5) # 10001000 <_heap_end+0xffd8040>
   22d00:	100017b7          	lui	a5,0x10001
   22d04:	0007a223          	sw	zero,4(a5) # 10001004 <_heap_end+0xffd8044>
   22d08:	100017b7          	lui	a5,0x10001
   22d0c:	00300713          	li	a4,3
   22d10:	00e7a623          	sw	a4,12(a5) # 1000100c <_heap_end+0xffd804c>
   22d14:	100017b7          	lui	a5,0x10001
   22d18:	0007a223          	sw	zero,4(a5) # 10001004 <_heap_end+0xffd8044>
   22d1c:	0ff0000f          	fence
   22d20:	00000013          	nop
   22d24:	00c12083          	lw	ra,12(sp)
   22d28:	00812403          	lw	s0,8(sp)
   22d2c:	01010113          	addi	sp,sp,16
   22d30:	00008067          	ret

00022d34 <tx_uart>:
tx_uart():
   22d34:	fd010113          	addi	sp,sp,-48
   22d38:	02112623          	sw	ra,44(sp)
   22d3c:	02812423          	sw	s0,40(sp)
   22d40:	03010413          	addi	s0,sp,48
   22d44:	00050793          	mv	a5,a0
   22d48:	fcf40fa3          	sb	a5,-33(s0)
   22d4c:	100017b7          	lui	a5,0x10001
   22d50:	fdf44703          	lbu	a4,-33(s0)
   22d54:	00e7a023          	sw	a4,0(a5) # 10001000 <_heap_end+0xffd8040>
   22d58:	0ff0000f          	fence
   22d5c:	100017b7          	lui	a5,0x10001
   22d60:	0147a783          	lw	a5,20(a5) # 10001014 <_heap_end+0xffd8054>
   22d64:	fef407a3          	sb	a5,-17(s0)
   22d68:	0ff0000f          	fence
   22d6c:	fef44783          	lbu	a5,-17(s0)
   22d70:	0207f793          	andi	a5,a5,32
   22d74:	fef407a3          	sb	a5,-17(s0)
   22d78:	fef44703          	lbu	a4,-17(s0)
   22d7c:	02000793          	li	a5,32
   22d80:	fcf71ee3          	bne	a4,a5,22d5c <tx_uart+0x28>
   22d84:	00000013          	nop
   22d88:	00000013          	nop
   22d8c:	02c12083          	lw	ra,44(sp)
   22d90:	02812403          	lw	s0,40(sp)
   22d94:	03010113          	addi	sp,sp,48
   22d98:	00008067          	ret

00022d9c <rx_uart>:
rx_uart():
   22d9c:	fe010113          	addi	sp,sp,-32
   22da0:	00112e23          	sw	ra,28(sp)
   22da4:	00812c23          	sw	s0,24(sp)
   22da8:	02010413          	addi	s0,sp,32
   22dac:	100017b7          	lui	a5,0x10001
   22db0:	0147a783          	lw	a5,20(a5) # 10001014 <_heap_end+0xffd8054>
   22db4:	fef407a3          	sb	a5,-17(s0)
   22db8:	0ff0000f          	fence
   22dbc:	fef44783          	lbu	a5,-17(s0)
   22dc0:	0017f793          	andi	a5,a5,1
   22dc4:	fe0784e3          	beqz	a5,22dac <rx_uart+0x10>
   22dc8:	100017b7          	lui	a5,0x10001
   22dcc:	0007a783          	lw	a5,0(a5) # 10001000 <_heap_end+0xffd8040>
   22dd0:	fef40723          	sb	a5,-18(s0)
   22dd4:	0ff0000f          	fence
   22dd8:	fee44783          	lbu	a5,-18(s0)
   22ddc:	00078513          	mv	a0,a5
   22de0:	01c12083          	lw	ra,28(sp)
   22de4:	01812403          	lw	s0,24(sp)
   22de8:	02010113          	addi	sp,sp,32
   22dec:	00008067          	ret

00022df0 <get_decimal>:
get_decimal():
   22df0:	fb010113          	addi	sp,sp,-80
   22df4:	04112623          	sw	ra,76(sp)
   22df8:	04812423          	sw	s0,72(sp)
   22dfc:	05010413          	addi	s0,sp,80
   22e00:	00050793          	mv	a5,a0
   22e04:	faf40fa3          	sb	a5,-65(s0)
   22e08:	fe0401a3          	sb	zero,-29(s0)
   22e0c:	fe042423          	sw	zero,-24(s0)
   22e10:	fc042e23          	sw	zero,-36(s0)
   22e14:	00100793          	li	a5,1
   22e18:	fef42223          	sw	a5,-28(s0)
   22e1c:	00100793          	li	a5,1
   22e20:	fef407a3          	sb	a5,-17(s0)
   22e24:	0280006f          	j	22e4c <get_decimal+0x5c>
   22e28:	fe442703          	lw	a4,-28(s0)
   22e2c:	00070793          	mv	a5,a4
   22e30:	00279793          	slli	a5,a5,0x2
   22e34:	00e787b3          	add	a5,a5,a4
   22e38:	00179793          	slli	a5,a5,0x1
   22e3c:	fef42223          	sw	a5,-28(s0)
   22e40:	fef44783          	lbu	a5,-17(s0)
   22e44:	00178793          	addi	a5,a5,1
   22e48:	fef407a3          	sb	a5,-17(s0)
   22e4c:	fef44703          	lbu	a4,-17(s0)
   22e50:	fbf44783          	lbu	a5,-65(s0)
   22e54:	fcf76ae3          	bltu	a4,a5,22e28 <get_decimal+0x38>
   22e58:	fe0407a3          	sb	zero,-17(s0)
   22e5c:	fef44703          	lbu	a4,-17(s0)
   22e60:	fbf44783          	lbu	a5,-65(s0)
   22e64:	0af77263          	bgeu	a4,a5,22f08 <get_decimal+0x118>
   22e68:	f35ff0ef          	jal	22d9c <rx_uart>
   22e6c:	00050793          	mv	a5,a0
   22e70:	fef401a3          	sb	a5,-29(s0)
   22e74:	fe344703          	lbu	a4,-29(s0)
   22e78:	02f00793          	li	a5,47
   22e7c:	04e7f263          	bgeu	a5,a4,22ec0 <get_decimal+0xd0>
   22e80:	fe344703          	lbu	a4,-29(s0)
   22e84:	03900793          	li	a5,57
   22e88:	02e7ec63          	bltu	a5,a4,22ec0 <get_decimal+0xd0>
   22e8c:	fe344783          	lbu	a5,-29(s0)
   22e90:	00078513          	mv	a0,a5
   22e94:	ea1ff0ef          	jal	22d34 <tx_uart>
   22e98:	fef44783          	lbu	a5,-17(s0)
   22e9c:	ff078793          	addi	a5,a5,-16
   22ea0:	008787b3          	add	a5,a5,s0
   22ea4:	fe344703          	lbu	a4,-29(s0)
   22ea8:	fce78e23          	sb	a4,-36(a5)
   22eac:	00000013          	nop
   22eb0:	fef44783          	lbu	a5,-17(s0)
   22eb4:	00178793          	addi	a5,a5,1
   22eb8:	fef407a3          	sb	a5,-17(s0)
   22ebc:	fa1ff06f          	j	22e5c <get_decimal+0x6c>
   22ec0:	fe344703          	lbu	a4,-29(s0)
   22ec4:	00800793          	li	a5,8
   22ec8:	faf710e3          	bne	a4,a5,22e68 <get_decimal+0x78>
   22ecc:	fef44783          	lbu	a5,-17(s0)
   22ed0:	02078863          	beqz	a5,22f00 <get_decimal+0x110>
   22ed4:	fe344783          	lbu	a5,-29(s0)
   22ed8:	00078513          	mv	a0,a5
   22edc:	e59ff0ef          	jal	22d34 <tx_uart>
   22ee0:	02000513          	li	a0,32
   22ee4:	e51ff0ef          	jal	22d34 <tx_uart>
   22ee8:	fe344783          	lbu	a5,-29(s0)
   22eec:	00078513          	mv	a0,a5
   22ef0:	e45ff0ef          	jal	22d34 <tx_uart>
   22ef4:	fef44783          	lbu	a5,-17(s0)
   22ef8:	fff78793          	addi	a5,a5,-1
   22efc:	fef407a3          	sb	a5,-17(s0)
   22f00:	00000013          	nop
   22f04:	f65ff06f          	j	22e68 <get_decimal+0x78>
   22f08:	fef44703          	lbu	a4,-17(s0)
   22f0c:	fbf44783          	lbu	a5,-65(s0)
   22f10:	f4f716e3          	bne	a4,a5,22e5c <get_decimal+0x6c>
   22f14:	e89ff0ef          	jal	22d9c <rx_uart>
   22f18:	00050793          	mv	a5,a0
   22f1c:	fef401a3          	sb	a5,-29(s0)
   22f20:	fe344703          	lbu	a4,-29(s0)
   22f24:	00d00793          	li	a5,13
   22f28:	04f70263          	beq	a4,a5,22f6c <get_decimal+0x17c>
   22f2c:	fe344703          	lbu	a4,-29(s0)
   22f30:	00800793          	li	a5,8
   22f34:	f2f714e3          	bne	a4,a5,22e5c <get_decimal+0x6c>
   22f38:	fe344783          	lbu	a5,-29(s0)
   22f3c:	00078513          	mv	a0,a5
   22f40:	df5ff0ef          	jal	22d34 <tx_uart>
   22f44:	02000513          	li	a0,32
   22f48:	dedff0ef          	jal	22d34 <tx_uart>
   22f4c:	fe344783          	lbu	a5,-29(s0)
   22f50:	00078513          	mv	a0,a5
   22f54:	de1ff0ef          	jal	22d34 <tx_uart>
   22f58:	fef44783          	lbu	a5,-17(s0)
   22f5c:	fff78793          	addi	a5,a5,-1
   22f60:	fef407a3          	sb	a5,-17(s0)
   22f64:	00000013          	nop
   22f68:	ef5ff06f          	j	22e5c <get_decimal+0x6c>
   22f6c:	00000013          	nop
   22f70:	fe0407a3          	sb	zero,-17(s0)
   22f74:	0780006f          	j	22fec <get_decimal+0x1fc>
   22f78:	fef44783          	lbu	a5,-17(s0)
   22f7c:	ff078793          	addi	a5,a5,-16
   22f80:	008787b3          	add	a5,a5,s0
   22f84:	fdc7c703          	lbu	a4,-36(a5)
   22f88:	fef44783          	lbu	a5,-17(s0)
   22f8c:	fd070713          	addi	a4,a4,-48
   22f90:	0ff77713          	zext.b	a4,a4
   22f94:	ff078793          	addi	a5,a5,-16
   22f98:	008787b3          	add	a5,a5,s0
   22f9c:	fce78e23          	sb	a4,-36(a5)
   22fa0:	fef44783          	lbu	a5,-17(s0)
   22fa4:	ff078793          	addi	a5,a5,-16
   22fa8:	008787b3          	add	a5,a5,s0
   22fac:	fdc7c783          	lbu	a5,-36(a5)
   22fb0:	00078713          	mv	a4,a5
   22fb4:	fe442783          	lw	a5,-28(s0)
   22fb8:	02f707b3          	mul	a5,a4,a5
   22fbc:	fe842703          	lw	a4,-24(s0)
   22fc0:	00f707b3          	add	a5,a4,a5
   22fc4:	fef42423          	sw	a5,-24(s0)
   22fc8:	fe442703          	lw	a4,-28(s0)
   22fcc:	ccccd7b7          	lui	a5,0xccccd
   22fd0:	ccd78793          	addi	a5,a5,-819 # cccccccd <_heap_end+0xccca3d0d>
   22fd4:	02f737b3          	mulhu	a5,a4,a5
   22fd8:	0037d793          	srli	a5,a5,0x3
   22fdc:	fef42223          	sw	a5,-28(s0)
   22fe0:	fef44783          	lbu	a5,-17(s0)
   22fe4:	00178793          	addi	a5,a5,1
   22fe8:	fef407a3          	sb	a5,-17(s0)
   22fec:	fef44703          	lbu	a4,-17(s0)
   22ff0:	fbf44783          	lbu	a5,-65(s0)
   22ff4:	f8f762e3          	bltu	a4,a5,22f78 <get_decimal+0x188>
   22ff8:	fe842783          	lw	a5,-24(s0)
   22ffc:	00078513          	mv	a0,a5
   23000:	04c12083          	lw	ra,76(sp)
   23004:	04812403          	lw	s0,72(sp)
   23008:	05010113          	addi	sp,sp,80
   2300c:	00008067          	ret

00023010 <get_long_int>:
get_long_int():
   23010:	fc010113          	addi	sp,sp,-64
   23014:	02112e23          	sw	ra,60(sp)
   23018:	02812c23          	sw	s0,56(sp)
   2301c:	04010413          	addi	s0,sp,64
   23020:	00050793          	mv	a5,a0
   23024:	fcf407a3          	sb	a5,-49(s0)
   23028:	fe0403a3          	sb	zero,-25(s0)
   2302c:	fe042423          	sw	zero,-24(s0)
   23030:	fe0407a3          	sb	zero,-17(s0)
   23034:	fef44703          	lbu	a4,-17(s0)
   23038:	fcf44783          	lbu	a5,-49(s0)
   2303c:	08f77c63          	bgeu	a4,a5,230d4 <get_long_int+0xc4>
   23040:	184000ef          	jal	231c4 <get_hex>
   23044:	00050793          	mv	a5,a0
   23048:	fef403a3          	sb	a5,-25(s0)
   2304c:	fe744703          	lbu	a4,-25(s0)
   23050:	00800793          	li	a5,8
   23054:	04f71e63          	bne	a4,a5,230b0 <get_long_int+0xa0>
   23058:	fef44783          	lbu	a5,-17(s0)
   2305c:	0e078c63          	beqz	a5,23154 <get_long_int+0x144>
   23060:	fe744783          	lbu	a5,-25(s0)
   23064:	00078513          	mv	a0,a5
   23068:	ccdff0ef          	jal	22d34 <tx_uart>
   2306c:	02000513          	li	a0,32
   23070:	cc5ff0ef          	jal	22d34 <tx_uart>
   23074:	fe744783          	lbu	a5,-25(s0)
   23078:	00078513          	mv	a0,a5
   2307c:	cb9ff0ef          	jal	22d34 <tx_uart>
   23080:	fe744783          	lbu	a5,-25(s0)
   23084:	00078513          	mv	a0,a5
   23088:	cadff0ef          	jal	22d34 <tx_uart>
   2308c:	02000513          	li	a0,32
   23090:	ca5ff0ef          	jal	22d34 <tx_uart>
   23094:	fe744783          	lbu	a5,-25(s0)
   23098:	00078513          	mv	a0,a5
   2309c:	c99ff0ef          	jal	22d34 <tx_uart>
   230a0:	fef44783          	lbu	a5,-17(s0)
   230a4:	fff78793          	addi	a5,a5,-1
   230a8:	fef407a3          	sb	a5,-17(s0)
   230ac:	0a80006f          	j	23154 <get_long_int+0x144>
   230b0:	fef44783          	lbu	a5,-17(s0)
   230b4:	ff078793          	addi	a5,a5,-16
   230b8:	008787b3          	add	a5,a5,s0
   230bc:	fe744703          	lbu	a4,-25(s0)
   230c0:	fee78223          	sb	a4,-28(a5)
   230c4:	fef44783          	lbu	a5,-17(s0)
   230c8:	00178793          	addi	a5,a5,1
   230cc:	fef407a3          	sb	a5,-17(s0)
   230d0:	f65ff06f          	j	23034 <get_long_int+0x24>
   230d4:	fef44703          	lbu	a4,-17(s0)
   230d8:	fcf44783          	lbu	a5,-49(s0)
   230dc:	f4f71ce3          	bne	a4,a5,23034 <get_long_int+0x24>
   230e0:	cbdff0ef          	jal	22d9c <rx_uart>
   230e4:	00050793          	mv	a5,a0
   230e8:	fef403a3          	sb	a5,-25(s0)
   230ec:	fe744703          	lbu	a4,-25(s0)
   230f0:	00d00793          	li	a5,13
   230f4:	06f70463          	beq	a4,a5,2315c <get_long_int+0x14c>
   230f8:	fe744703          	lbu	a4,-25(s0)
   230fc:	00800793          	li	a5,8
   23100:	f2f71ae3          	bne	a4,a5,23034 <get_long_int+0x24>
   23104:	fe744783          	lbu	a5,-25(s0)
   23108:	00078513          	mv	a0,a5
   2310c:	c29ff0ef          	jal	22d34 <tx_uart>
   23110:	02000513          	li	a0,32
   23114:	c21ff0ef          	jal	22d34 <tx_uart>
   23118:	fe744783          	lbu	a5,-25(s0)
   2311c:	00078513          	mv	a0,a5
   23120:	c15ff0ef          	jal	22d34 <tx_uart>
   23124:	fe744783          	lbu	a5,-25(s0)
   23128:	00078513          	mv	a0,a5
   2312c:	c09ff0ef          	jal	22d34 <tx_uart>
   23130:	02000513          	li	a0,32
   23134:	c01ff0ef          	jal	22d34 <tx_uart>
   23138:	fe744783          	lbu	a5,-25(s0)
   2313c:	00078513          	mv	a0,a5
   23140:	bf5ff0ef          	jal	22d34 <tx_uart>
   23144:	fef44783          	lbu	a5,-17(s0)
   23148:	fff78793          	addi	a5,a5,-1
   2314c:	fef407a3          	sb	a5,-17(s0)
   23150:	0080006f          	j	23158 <get_long_int+0x148>
   23154:	00000013          	nop
   23158:	eddff06f          	j	23034 <get_long_int+0x24>
   2315c:	00000013          	nop
   23160:	fe0407a3          	sb	zero,-17(s0)
   23164:	03c0006f          	j	231a0 <get_long_int+0x190>
   23168:	fe842783          	lw	a5,-24(s0)
   2316c:	00879793          	slli	a5,a5,0x8
   23170:	fef42423          	sw	a5,-24(s0)
   23174:	fef44783          	lbu	a5,-17(s0)
   23178:	ff078793          	addi	a5,a5,-16
   2317c:	008787b3          	add	a5,a5,s0
   23180:	fe47c783          	lbu	a5,-28(a5)
   23184:	00078713          	mv	a4,a5
   23188:	fe842783          	lw	a5,-24(s0)
   2318c:	00e7e7b3          	or	a5,a5,a4
   23190:	fef42423          	sw	a5,-24(s0)
   23194:	fef44783          	lbu	a5,-17(s0)
   23198:	00178793          	addi	a5,a5,1
   2319c:	fef407a3          	sb	a5,-17(s0)
   231a0:	fef44703          	lbu	a4,-17(s0)
   231a4:	fcf44783          	lbu	a5,-49(s0)
   231a8:	fcf760e3          	bltu	a4,a5,23168 <get_long_int+0x158>
   231ac:	fe842783          	lw	a5,-24(s0)
   231b0:	00078513          	mv	a0,a5
   231b4:	03c12083          	lw	ra,60(sp)
   231b8:	03812403          	lw	s0,56(sp)
   231bc:	04010113          	addi	sp,sp,64
   231c0:	00008067          	ret

000231c4 <get_hex>:
get_hex():
   231c4:	fe010113          	addi	sp,sp,-32
   231c8:	00112e23          	sw	ra,28(sp)
   231cc:	00812c23          	sw	s0,24(sp)
   231d0:	02010413          	addi	s0,sp,32
   231d4:	fe0405a3          	sb	zero,-21(s0)
   231d8:	00200793          	li	a5,2
   231dc:	fef406a3          	sb	a5,-19(s0)
   231e0:	1240006f          	j	23304 <get_hex+0x140>
   231e4:	bb9ff0ef          	jal	22d9c <rx_uart>
   231e8:	00050793          	mv	a5,a0
   231ec:	fef40623          	sb	a5,-20(s0)
   231f0:	fec44703          	lbu	a4,-20(s0)
   231f4:	00800793          	li	a5,8
   231f8:	04f71463          	bne	a4,a5,23240 <get_hex+0x7c>
   231fc:	fed44703          	lbu	a4,-19(s0)
   23200:	00100793          	li	a5,1
   23204:	02e7ea63          	bltu	a5,a4,23238 <get_hex+0x74>
   23208:	fec44783          	lbu	a5,-20(s0)
   2320c:	00078513          	mv	a0,a5
   23210:	b25ff0ef          	jal	22d34 <tx_uart>
   23214:	02000513          	li	a0,32
   23218:	b1dff0ef          	jal	22d34 <tx_uart>
   2321c:	fec44783          	lbu	a5,-20(s0)
   23220:	00078513          	mv	a0,a5
   23224:	b11ff0ef          	jal	22d34 <tx_uart>
   23228:	fed44783          	lbu	a5,-19(s0)
   2322c:	00178793          	addi	a5,a5,1
   23230:	fef406a3          	sb	a5,-19(s0)
   23234:	0d00006f          	j	23304 <get_hex+0x140>
   23238:	fec44783          	lbu	a5,-20(s0)
   2323c:	0f40006f          	j	23330 <get_hex+0x16c>
   23240:	fec44703          	lbu	a4,-20(s0)
   23244:	02f00793          	li	a5,47
   23248:	02e7f663          	bgeu	a5,a4,23274 <get_hex+0xb0>
   2324c:	fec44703          	lbu	a4,-20(s0)
   23250:	03900793          	li	a5,57
   23254:	02e7e063          	bltu	a5,a4,23274 <get_hex+0xb0>
   23258:	fec44783          	lbu	a5,-20(s0)
   2325c:	00078513          	mv	a0,a5
   23260:	ad5ff0ef          	jal	22d34 <tx_uart>
   23264:	fec44783          	lbu	a5,-20(s0)
   23268:	fd078793          	addi	a5,a5,-48
   2326c:	fef40623          	sb	a5,-20(s0)
   23270:	0680006f          	j	232d8 <get_hex+0x114>
   23274:	fec44703          	lbu	a4,-20(s0)
   23278:	04000793          	li	a5,64
   2327c:	02e7f663          	bgeu	a5,a4,232a8 <get_hex+0xe4>
   23280:	fec44703          	lbu	a4,-20(s0)
   23284:	04600793          	li	a5,70
   23288:	02e7e063          	bltu	a5,a4,232a8 <get_hex+0xe4>
   2328c:	fec44783          	lbu	a5,-20(s0)
   23290:	00078513          	mv	a0,a5
   23294:	aa1ff0ef          	jal	22d34 <tx_uart>
   23298:	fec44783          	lbu	a5,-20(s0)
   2329c:	fc978793          	addi	a5,a5,-55
   232a0:	fef40623          	sb	a5,-20(s0)
   232a4:	0340006f          	j	232d8 <get_hex+0x114>
   232a8:	fec44703          	lbu	a4,-20(s0)
   232ac:	06000793          	li	a5,96
   232b0:	04e7fa63          	bgeu	a5,a4,23304 <get_hex+0x140>
   232b4:	fec44703          	lbu	a4,-20(s0)
   232b8:	06600793          	li	a5,102
   232bc:	04e7e463          	bltu	a5,a4,23304 <get_hex+0x140>
   232c0:	fec44783          	lbu	a5,-20(s0)
   232c4:	00078513          	mv	a0,a5
   232c8:	a6dff0ef          	jal	22d34 <tx_uart>
   232cc:	fec44783          	lbu	a5,-20(s0)
   232d0:	fa978793          	addi	a5,a5,-87
   232d4:	fef40623          	sb	a5,-20(s0)
   232d8:	fed44703          	lbu	a4,-19(s0)
   232dc:	00200793          	li	a5,2
   232e0:	00f71863          	bne	a4,a5,232f0 <get_hex+0x12c>
   232e4:	fec44783          	lbu	a5,-20(s0)
   232e8:	fef407a3          	sb	a5,-17(s0)
   232ec:	00c0006f          	j	232f8 <get_hex+0x134>
   232f0:	fec44783          	lbu	a5,-20(s0)
   232f4:	fef40723          	sb	a5,-18(s0)
   232f8:	fed44783          	lbu	a5,-19(s0)
   232fc:	fff78793          	addi	a5,a5,-1
   23300:	fef406a3          	sb	a5,-19(s0)
   23304:	fed44783          	lbu	a5,-19(s0)
   23308:	ec079ee3          	bnez	a5,231e4 <get_hex+0x20>
   2330c:	fef44783          	lbu	a5,-17(s0)
   23310:	00479793          	slli	a5,a5,0x4
   23314:	fef405a3          	sb	a5,-21(s0)
   23318:	feb44783          	lbu	a5,-21(s0)
   2331c:	00078713          	mv	a4,a5
   23320:	fee44783          	lbu	a5,-18(s0)
   23324:	00f767b3          	or	a5,a4,a5
   23328:	fef405a3          	sb	a5,-21(s0)
   2332c:	feb44783          	lbu	a5,-21(s0)
   23330:	00078513          	mv	a0,a5
   23334:	01c12083          	lw	ra,28(sp)
   23338:	01812403          	lw	s0,24(sp)
   2333c:	02010113          	addi	sp,sp,32
   23340:	00008067          	ret

00023344 <memset>:
memset():
   23344:	00f00313          	li	t1,15
   23348:	00050713          	mv	a4,a0
   2334c:	02c37e63          	bgeu	t1,a2,23388 <memset+0x44>
   23350:	00f77793          	andi	a5,a4,15
   23354:	0a079063          	bnez	a5,233f4 <memset+0xb0>
   23358:	08059263          	bnez	a1,233dc <memset+0x98>
   2335c:	ff067693          	andi	a3,a2,-16
   23360:	00f67613          	andi	a2,a2,15
   23364:	00e686b3          	add	a3,a3,a4
   23368:	00b72023          	sw	a1,0(a4)
   2336c:	00b72223          	sw	a1,4(a4)
   23370:	00b72423          	sw	a1,8(a4)
   23374:	00b72623          	sw	a1,12(a4)
   23378:	01070713          	addi	a4,a4,16
   2337c:	fed766e3          	bltu	a4,a3,23368 <memset+0x24>
   23380:	00061463          	bnez	a2,23388 <memset+0x44>
   23384:	00008067          	ret
   23388:	40c306b3          	sub	a3,t1,a2
   2338c:	00269693          	slli	a3,a3,0x2
   23390:	00000297          	auipc	t0,0x0
   23394:	005686b3          	add	a3,a3,t0
   23398:	00c68067          	jr	12(a3)
   2339c:	00b70723          	sb	a1,14(a4)
   233a0:	00b706a3          	sb	a1,13(a4)
   233a4:	00b70623          	sb	a1,12(a4)
   233a8:	00b705a3          	sb	a1,11(a4)
   233ac:	00b70523          	sb	a1,10(a4)
   233b0:	00b704a3          	sb	a1,9(a4)
   233b4:	00b70423          	sb	a1,8(a4)
   233b8:	00b703a3          	sb	a1,7(a4)
   233bc:	00b70323          	sb	a1,6(a4)
   233c0:	00b702a3          	sb	a1,5(a4)
   233c4:	00b70223          	sb	a1,4(a4)
   233c8:	00b701a3          	sb	a1,3(a4)
   233cc:	00b70123          	sb	a1,2(a4)
   233d0:	00b700a3          	sb	a1,1(a4)
   233d4:	00b70023          	sb	a1,0(a4)
   233d8:	00008067          	ret
   233dc:	0ff5f593          	zext.b	a1,a1
   233e0:	00859693          	slli	a3,a1,0x8
   233e4:	00d5e5b3          	or	a1,a1,a3
   233e8:	01059693          	slli	a3,a1,0x10
   233ec:	00d5e5b3          	or	a1,a1,a3
   233f0:	f6dff06f          	j	2335c <memset+0x18>
   233f4:	00279693          	slli	a3,a5,0x2
   233f8:	00000297          	auipc	t0,0x0
   233fc:	005686b3          	add	a3,a3,t0
   23400:	00008293          	mv	t0,ra
   23404:	fa0680e7          	jalr	-96(a3)
   23408:	00028093          	mv	ra,t0
   2340c:	ff078793          	addi	a5,a5,-16
   23410:	40f70733          	sub	a4,a4,a5
   23414:	00f60633          	add	a2,a2,a5
   23418:	f6c378e3          	bgeu	t1,a2,23388 <memset+0x44>
   2341c:	f3dff06f          	j	23358 <memset+0x14>

00023420 <__adddf3>:
__adddf3():
/opt/riscv-gnu-toolchain/build-gcc-newlib-stage2/riscv32-vega-elf/libgcc/../../.././gcc/libgcc/soft-fp/adddf3.c:42
   23420:	00100837          	lui	a6,0x100
   23424:	fff80813          	addi	a6,a6,-1 # fffff <_heap_end+0xd703f>
/opt/riscv-gnu-toolchain/build-gcc-newlib-stage2/riscv32-vega-elf/libgcc/../../.././gcc/libgcc/soft-fp/adddf3.c:34
   23428:	fe010113          	addi	sp,sp,-32
/opt/riscv-gnu-toolchain/build-gcc-newlib-stage2/riscv32-vega-elf/libgcc/../../.././gcc/libgcc/soft-fp/adddf3.c:42
   2342c:	00b878b3          	and	a7,a6,a1
   23430:	0145d713          	srli	a4,a1,0x14
/opt/riscv-gnu-toolchain/build-gcc-newlib-stage2/riscv32-vega-elf/libgcc/../../.././gcc/libgcc/soft-fp/adddf3.c:43
   23434:	00d87833          	and	a6,a6,a3
/opt/riscv-gnu-toolchain/build-gcc-newlib-stage2/riscv32-vega-elf/libgcc/../../.././gcc/libgcc/soft-fp/adddf3.c:34
   23438:	01412423          	sw	s4,8(sp)
/opt/riscv-gnu-toolchain/build-gcc-newlib-stage2/riscv32-vega-elf/libgcc/../../.././gcc/libgcc/soft-fp/adddf3.c:42
   2343c:	7ff77a13          	andi	s4,a4,2047
/opt/riscv-gnu-toolchain/build-gcc-newlib-stage2/riscv32-vega-elf/libgcc/../../.././gcc/libgcc/soft-fp/adddf3.c:42 (discriminator 2)
   23440:	00389713          	slli	a4,a7,0x3
/opt/riscv-gnu-toolchain/build-gcc-newlib-stage2/riscv32-vega-elf/libgcc/../../.././gcc/libgcc/soft-fp/adddf3.c:43
   23444:	0146d893          	srli	a7,a3,0x14
/opt/riscv-gnu-toolchain/build-gcc-newlib-stage2/riscv32-vega-elf/libgcc/../../.././gcc/libgcc/soft-fp/adddf3.c:42 (discriminator 2)
   23448:	01d55793          	srli	a5,a0,0x1d
/opt/riscv-gnu-toolchain/build-gcc-newlib-stage2/riscv32-vega-elf/libgcc/../../.././gcc/libgcc/soft-fp/adddf3.c:43 (discriminator 2)
   2344c:	00381813          	slli	a6,a6,0x3
/opt/riscv-gnu-toolchain/build-gcc-newlib-stage2/riscv32-vega-elf/libgcc/../../.././gcc/libgcc/soft-fp/adddf3.c:34
   23450:	01312623          	sw	s3,12(sp)
/opt/riscv-gnu-toolchain/build-gcc-newlib-stage2/riscv32-vega-elf/libgcc/../../.././gcc/libgcc/soft-fp/adddf3.c:43
   23454:	7ff8f893          	andi	a7,a7,2047
/opt/riscv-gnu-toolchain/build-gcc-newlib-stage2/riscv32-vega-elf/libgcc/../../.././gcc/libgcc/soft-fp/adddf3.c:42
   23458:	01f5d993          	srli	s3,a1,0x1f
/opt/riscv-gnu-toolchain/build-gcc-newlib-stage2/riscv32-vega-elf/libgcc/../../.././gcc/libgcc/soft-fp/adddf3.c:34
   2345c:	00112e23          	sw	ra,28(sp)
/opt/riscv-gnu-toolchain/build-gcc-newlib-stage2/riscv32-vega-elf/libgcc/../../.././gcc/libgcc/soft-fp/adddf3.c:43 (discriminator 2)
   23460:	01d65593          	srli	a1,a2,0x1d
/opt/riscv-gnu-toolchain/build-gcc-newlib-stage2/riscv32-vega-elf/libgcc/../../.././gcc/libgcc/soft-fp/adddf3.c:34
   23464:	00812c23          	sw	s0,24(sp)
   23468:	00912a23          	sw	s1,20(sp)
   2346c:	01212823          	sw	s2,16(sp)
   23470:	01512223          	sw	s5,4(sp)
/opt/riscv-gnu-toolchain/build-gcc-newlib-stage2/riscv32-vega-elf/libgcc/../../.././gcc/libgcc/soft-fp/adddf3.c:43
   23474:	01f6d693          	srli	a3,a3,0x1f
/opt/riscv-gnu-toolchain/build-gcc-newlib-stage2/riscv32-vega-elf/libgcc/../../.././gcc/libgcc/soft-fp/adddf3.c:43 (discriminator 2)
   23478:	0105e5b3          	or	a1,a1,a6
/opt/riscv-gnu-toolchain/build-gcc-newlib-stage2/riscv32-vega-elf/libgcc/../../.././gcc/libgcc/soft-fp/adddf3.c:42 (discriminator 2)
   2347c:	00e7e7b3          	or	a5,a5,a4
   23480:	00351513          	slli	a0,a0,0x3
/opt/riscv-gnu-toolchain/build-gcc-newlib-stage2/riscv32-vega-elf/libgcc/../../.././gcc/libgcc/soft-fp/adddf3.c:43 (discriminator 2)
   23484:	00361613          	slli	a2,a2,0x3
/opt/riscv-gnu-toolchain/build-gcc-newlib-stage2/riscv32-vega-elf/libgcc/../../.././gcc/libgcc/soft-fp/adddf3.c:44 (discriminator 7)
   23488:	411a0833          	sub	a6,s4,a7
   2348c:	7ff00313          	li	t1,2047
/opt/riscv-gnu-toolchain/build-gcc-newlib-stage2/riscv32-vega-elf/libgcc/../../.././gcc/libgcc/soft-fp/adddf3.c:44 (discriminator 6)
   23490:	32d99863          	bne	s3,a3,237c0 <__adddf3+0x3a0>
/opt/riscv-gnu-toolchain/build-gcc-newlib-stage2/riscv32-vega-elf/libgcc/../../.././gcc/libgcc/soft-fp/adddf3.c:44 (discriminator 7)
   23494:	17005e63          	blez	a6,23610 <__adddf3+0x1f0>
/opt/riscv-gnu-toolchain/build-gcc-newlib-stage2/riscv32-vega-elf/libgcc/../../.././gcc/libgcc/soft-fp/adddf3.c:44 (discriminator 9)
   23498:	0a089863          	bnez	a7,23548 <__adddf3+0x128>
/opt/riscv-gnu-toolchain/build-gcc-newlib-stage2/riscv32-vega-elf/libgcc/../../.././gcc/libgcc/soft-fp/adddf3.c:44 (discriminator 11)
   2349c:	00c5e733          	or	a4,a1,a2
   234a0:	02070663          	beqz	a4,234cc <__adddf3+0xac>
/opt/riscv-gnu-toolchain/build-gcc-newlib-stage2/riscv32-vega-elf/libgcc/../../.././gcc/libgcc/soft-fp/adddf3.c:44 (discriminator 14)
   234a4:	fffa0813          	addi	a6,s4,-1
   234a8:	02081063          	bnez	a6,234c8 <__adddf3+0xa8>
/opt/riscv-gnu-toolchain/build-gcc-newlib-stage2/riscv32-vega-elf/libgcc/../../.././gcc/libgcc/soft-fp/adddf3.c:44 (discriminator 80)
   234ac:	00c50633          	add	a2,a0,a2
   234b0:	00a63733          	sltu	a4,a2,a0
   234b4:	00b785b3          	add	a1,a5,a1
   234b8:	00060513          	mv	a0,a2
   234bc:	00e587b3          	add	a5,a1,a4
/opt/riscv-gnu-toolchain/build-gcc-newlib-stage2/riscv32-vega-elf/libgcc/../../.././gcc/libgcc/soft-fp/adddf3.c:44 (discriminator 66)
   234c0:	00100a13          	li	s4,1
/opt/riscv-gnu-toolchain/build-gcc-newlib-stage2/riscv32-vega-elf/libgcc/../../.././gcc/libgcc/soft-fp/adddf3.c:44
   234c4:	0d40006f          	j	23598 <__adddf3+0x178>
/opt/riscv-gnu-toolchain/build-gcc-newlib-stage2/riscv32-vega-elf/libgcc/../../.././gcc/libgcc/soft-fp/adddf3.c:44 (discriminator 24)
   234c8:	086a1663          	bne	s4,t1,23554 <__adddf3+0x134>
/opt/riscv-gnu-toolchain/build-gcc-newlib-stage2/riscv32-vega-elf/libgcc/../../.././gcc/libgcc/soft-fp/adddf3.c:45 (discriminator 79)
   234cc:	01d79693          	slli	a3,a5,0x1d
   234d0:	00355513          	srli	a0,a0,0x3
   234d4:	7ff00713          	li	a4,2047
   234d8:	00a6e6b3          	or	a3,a3,a0
   234dc:	0037d793          	srli	a5,a5,0x3
   234e0:	00ea1e63          	bne	s4,a4,234fc <__adddf3+0xdc>
/opt/riscv-gnu-toolchain/build-gcc-newlib-stage2/riscv32-vega-elf/libgcc/../../.././gcc/libgcc/soft-fp/adddf3.c:45 (discriminator 80)
   234e4:	00f6e6b3          	or	a3,a3,a5
/opt/riscv-gnu-toolchain/build-gcc-newlib-stage2/riscv32-vega-elf/libgcc/../../.././gcc/libgcc/soft-fp/adddf3.c:45 (discriminator 79)
   234e8:	00000793          	li	a5,0
/opt/riscv-gnu-toolchain/build-gcc-newlib-stage2/riscv32-vega-elf/libgcc/../../.././gcc/libgcc/soft-fp/adddf3.c:45 (discriminator 80)
   234ec:	00068863          	beqz	a3,234fc <__adddf3+0xdc>
/opt/riscv-gnu-toolchain/build-gcc-newlib-stage2/riscv32-vega-elf/libgcc/../../.././gcc/libgcc/soft-fp/adddf3.c:45 (discriminator 84)
   234f0:	000807b7          	lui	a5,0x80
   234f4:	00000693          	li	a3,0
   234f8:	00000993          	li	s3,0
/opt/riscv-gnu-toolchain/build-gcc-newlib-stage2/riscv32-vega-elf/libgcc/../../.././gcc/libgcc/soft-fp/adddf3.c:45 (discriminator 90)
   234fc:	014a1713          	slli	a4,s4,0x14
   23500:	7ff00637          	lui	a2,0x7ff00
   23504:	00c79793          	slli	a5,a5,0xc
   23508:	00c77733          	and	a4,a4,a2
/opt/riscv-gnu-toolchain/build-gcc-newlib-stage2/riscv32-vega-elf/libgcc/../../.././gcc/libgcc/soft-fp/adddf3.c:49
   2350c:	01c12083          	lw	ra,28(sp)
   23510:	01812403          	lw	s0,24(sp)
/opt/riscv-gnu-toolchain/build-gcc-newlib-stage2/riscv32-vega-elf/libgcc/../../.././gcc/libgcc/soft-fp/adddf3.c:45 (discriminator 90)
   23514:	00c7d793          	srli	a5,a5,0xc
   23518:	00f767b3          	or	a5,a4,a5
   2351c:	01f99713          	slli	a4,s3,0x1f
   23520:	00e7e633          	or	a2,a5,a4
/opt/riscv-gnu-toolchain/build-gcc-newlib-stage2/riscv32-vega-elf/libgcc/../../.././gcc/libgcc/soft-fp/adddf3.c:49
   23524:	01412483          	lw	s1,20(sp)
   23528:	01012903          	lw	s2,16(sp)
   2352c:	00c12983          	lw	s3,12(sp)
   23530:	00812a03          	lw	s4,8(sp)
   23534:	00412a83          	lw	s5,4(sp)
   23538:	00068513          	mv	a0,a3
   2353c:	00060593          	mv	a1,a2
   23540:	02010113          	addi	sp,sp,32
   23544:	00008067          	ret
/opt/riscv-gnu-toolchain/build-gcc-newlib-stage2/riscv32-vega-elf/libgcc/../../.././gcc/libgcc/soft-fp/adddf3.c:44 (discriminator 12)
   23548:	f86a02e3          	beq	s4,t1,234cc <__adddf3+0xac>
/opt/riscv-gnu-toolchain/build-gcc-newlib-stage2/riscv32-vega-elf/libgcc/../../.././gcc/libgcc/soft-fp/adddf3.c:44 (discriminator 38)
   2354c:	00800737          	lui	a4,0x800
   23550:	00e5e5b3          	or	a1,a1,a4
/opt/riscv-gnu-toolchain/build-gcc-newlib-stage2/riscv32-vega-elf/libgcc/../../.././gcc/libgcc/soft-fp/adddf3.c:44 (discriminator 47)
   23554:	03800713          	li	a4,56
   23558:	0b074663          	blt	a4,a6,23604 <__adddf3+0x1e4>
/opt/riscv-gnu-toolchain/build-gcc-newlib-stage2/riscv32-vega-elf/libgcc/../../.././gcc/libgcc/soft-fp/adddf3.c:44 (discriminator 48)
   2355c:	01f00713          	li	a4,31
   23560:	02000893          	li	a7,32
   23564:	07074863          	blt	a4,a6,235d4 <__adddf3+0x1b4>
/opt/riscv-gnu-toolchain/build-gcc-newlib-stage2/riscv32-vega-elf/libgcc/../../.././gcc/libgcc/soft-fp/adddf3.c:44 (discriminator 50)
   23568:	410888b3          	sub	a7,a7,a6
   2356c:	01159733          	sll	a4,a1,a7
   23570:	010656b3          	srl	a3,a2,a6
/opt/riscv-gnu-toolchain/build-gcc-newlib-stage2/riscv32-vega-elf/libgcc/../../.././gcc/libgcc/soft-fp/adddf3.c:44 (discriminator 55)
   23574:	011618b3          	sll	a7,a2,a7
/opt/riscv-gnu-toolchain/build-gcc-newlib-stage2/riscv32-vega-elf/libgcc/../../.././gcc/libgcc/soft-fp/adddf3.c:44 (discriminator 50)
   23578:	00d76733          	or	a4,a4,a3
/opt/riscv-gnu-toolchain/build-gcc-newlib-stage2/riscv32-vega-elf/libgcc/../../.././gcc/libgcc/soft-fp/adddf3.c:44 (discriminator 55)
   2357c:	011038b3          	snez	a7,a7
/opt/riscv-gnu-toolchain/build-gcc-newlib-stage2/riscv32-vega-elf/libgcc/../../.././gcc/libgcc/soft-fp/adddf3.c:44 (discriminator 57)
   23580:	01176733          	or	a4,a4,a7
   23584:	0105d833          	srl	a6,a1,a6
/opt/riscv-gnu-toolchain/build-gcc-newlib-stage2/riscv32-vega-elf/libgcc/../../.././gcc/libgcc/soft-fp/adddf3.c:44
   23588:	00a70533          	add	a0,a4,a0
/opt/riscv-gnu-toolchain/build-gcc-newlib-stage2/riscv32-vega-elf/libgcc/../../.././gcc/libgcc/soft-fp/adddf3.c:44 (discriminator 64)
   2358c:	00f80833          	add	a6,a6,a5
   23590:	00e53733          	sltu	a4,a0,a4
   23594:	00e807b3          	add	a5,a6,a4
/opt/riscv-gnu-toolchain/build-gcc-newlib-stage2/riscv32-vega-elf/libgcc/../../.././gcc/libgcc/soft-fp/adddf3.c:44 (discriminator 122)
   23598:	00879713          	slli	a4,a5,0x8
   2359c:	1c075e63          	bgez	a4,23778 <__adddf3+0x358>
/opt/riscv-gnu-toolchain/build-gcc-newlib-stage2/riscv32-vega-elf/libgcc/../../.././gcc/libgcc/soft-fp/adddf3.c:44 (discriminator 182)
   235a0:	001a0a13          	addi	s4,s4,1
   235a4:	7ff00713          	li	a4,2047
   235a8:	5cea0863          	beq	s4,a4,23b78 <__adddf3+0x758>
   235ac:	ff800737          	lui	a4,0xff800
   235b0:	fff70713          	addi	a4,a4,-1 # ff7fffff <_heap_end+0xff7d703f>
   235b4:	00e7f7b3          	and	a5,a5,a4
   235b8:	00155713          	srli	a4,a0,0x1
   235bc:	00157513          	andi	a0,a0,1
   235c0:	00a76733          	or	a4,a4,a0
   235c4:	01f79513          	slli	a0,a5,0x1f
   235c8:	00e56533          	or	a0,a0,a4
   235cc:	0017d793          	srli	a5,a5,0x1
   235d0:	1a80006f          	j	23778 <__adddf3+0x358>
/opt/riscv-gnu-toolchain/build-gcc-newlib-stage2/riscv32-vega-elf/libgcc/../../.././gcc/libgcc/soft-fp/adddf3.c:44 (discriminator 51)
   235d4:	fe080713          	addi	a4,a6,-32
   235d8:	00e5d733          	srl	a4,a1,a4
/opt/riscv-gnu-toolchain/build-gcc-newlib-stage2/riscv32-vega-elf/libgcc/../../.././gcc/libgcc/soft-fp/adddf3.c:44 (discriminator 59)
   235dc:	00000693          	li	a3,0
/opt/riscv-gnu-toolchain/build-gcc-newlib-stage2/riscv32-vega-elf/libgcc/../../.././gcc/libgcc/soft-fp/adddf3.c:44 (discriminator 51)
   235e0:	01180863          	beq	a6,a7,235f0 <__adddf3+0x1d0>
/opt/riscv-gnu-toolchain/build-gcc-newlib-stage2/riscv32-vega-elf/libgcc/../../.././gcc/libgcc/soft-fp/adddf3.c:44 (discriminator 58)
   235e4:	04000693          	li	a3,64
   235e8:	410686b3          	sub	a3,a3,a6
   235ec:	00d596b3          	sll	a3,a1,a3
/opt/riscv-gnu-toolchain/build-gcc-newlib-stage2/riscv32-vega-elf/libgcc/../../.././gcc/libgcc/soft-fp/adddf3.c:44 (discriminator 61)
   235f0:	00c6e6b3          	or	a3,a3,a2
   235f4:	00d036b3          	snez	a3,a3
   235f8:	00d76733          	or	a4,a4,a3
/opt/riscv-gnu-toolchain/build-gcc-newlib-stage2/riscv32-vega-elf/libgcc/../../.././gcc/libgcc/soft-fp/adddf3.c:44
   235fc:	00000813          	li	a6,0
   23600:	f89ff06f          	j	23588 <__adddf3+0x168>
/opt/riscv-gnu-toolchain/build-gcc-newlib-stage2/riscv32-vega-elf/libgcc/../../.././gcc/libgcc/soft-fp/adddf3.c:44 (discriminator 49)
   23604:	00c5e733          	or	a4,a1,a2
   23608:	00e03733          	snez	a4,a4
   2360c:	ff1ff06f          	j	235fc <__adddf3+0x1dc>
/opt/riscv-gnu-toolchain/build-gcc-newlib-stage2/riscv32-vega-elf/libgcc/../../.././gcc/libgcc/soft-fp/adddf3.c:44 (discriminator 10)
   23610:	0c080663          	beqz	a6,236dc <__adddf3+0x2bc>
/opt/riscv-gnu-toolchain/build-gcc-newlib-stage2/riscv32-vega-elf/libgcc/../../.././gcc/libgcc/soft-fp/adddf3.c:44 (discriminator 66)
   23614:	41488733          	sub	a4,a7,s4
   23618:	020a1463          	bnez	s4,23640 <__adddf3+0x220>
/opt/riscv-gnu-toolchain/build-gcc-newlib-stage2/riscv32-vega-elf/libgcc/../../.././gcc/libgcc/soft-fp/adddf3.c:44 (discriminator 68)
   2361c:	00a7e6b3          	or	a3,a5,a0
   23620:	00068863          	beqz	a3,23630 <__adddf3+0x210>
/opt/riscv-gnu-toolchain/build-gcc-newlib-stage2/riscv32-vega-elf/libgcc/../../.././gcc/libgcc/soft-fp/adddf3.c:44 (discriminator 71)
   23624:	fff70693          	addi	a3,a4,-1
   23628:	e80682e3          	beqz	a3,234ac <__adddf3+0x8c>
/opt/riscv-gnu-toolchain/build-gcc-newlib-stage2/riscv32-vega-elf/libgcc/../../.././gcc/libgcc/soft-fp/adddf3.c:44 (discriminator 81)
   2362c:	02671263          	bne	a4,t1,23650 <__adddf3+0x230>
/opt/riscv-gnu-toolchain/build-gcc-newlib-stage2/riscv32-vega-elf/libgcc/../../.././gcc/libgcc/soft-fp/adddf3.c:44 (discriminator 91)
   23630:	00058793          	mv	a5,a1
   23634:	00060513          	mv	a0,a2
/opt/riscv-gnu-toolchain/build-gcc-newlib-stage2/riscv32-vega-elf/libgcc/../../.././gcc/libgcc/soft-fp/adddf3.c:44 (discriminator 66)
   23638:	00070a13          	mv	s4,a4
   2363c:	e91ff06f          	j	234cc <__adddf3+0xac>
/opt/riscv-gnu-toolchain/build-gcc-newlib-stage2/riscv32-vega-elf/libgcc/../../.././gcc/libgcc/soft-fp/adddf3.c:44 (discriminator 69)
   23640:	54688263          	beq	a7,t1,23b84 <__adddf3+0x764>
/opt/riscv-gnu-toolchain/build-gcc-newlib-stage2/riscv32-vega-elf/libgcc/../../.././gcc/libgcc/soft-fp/adddf3.c:44 (discriminator 95)
   23644:	008006b7          	lui	a3,0x800
   23648:	00d7e7b3          	or	a5,a5,a3
/opt/riscv-gnu-toolchain/build-gcc-newlib-stage2/riscv32-vega-elf/libgcc/../../.././gcc/libgcc/soft-fp/adddf3.c:44 (discriminator 66)
   2364c:	00070693          	mv	a3,a4
/opt/riscv-gnu-toolchain/build-gcc-newlib-stage2/riscv32-vega-elf/libgcc/../../.././gcc/libgcc/soft-fp/adddf3.c:44 (discriminator 104)
   23650:	03800713          	li	a4,56
   23654:	06d74e63          	blt	a4,a3,236d0 <__adddf3+0x2b0>
/opt/riscv-gnu-toolchain/build-gcc-newlib-stage2/riscv32-vega-elf/libgcc/../../.././gcc/libgcc/soft-fp/adddf3.c:44 (discriminator 105)
   23658:	01f00713          	li	a4,31
   2365c:	02000313          	li	t1,32
   23660:	04d74063          	blt	a4,a3,236a0 <__adddf3+0x280>
/opt/riscv-gnu-toolchain/build-gcc-newlib-stage2/riscv32-vega-elf/libgcc/../../.././gcc/libgcc/soft-fp/adddf3.c:44 (discriminator 107)
   23664:	40d30333          	sub	t1,t1,a3
   23668:	00679733          	sll	a4,a5,t1
   2366c:	00d55833          	srl	a6,a0,a3
/opt/riscv-gnu-toolchain/build-gcc-newlib-stage2/riscv32-vega-elf/libgcc/../../.././gcc/libgcc/soft-fp/adddf3.c:44 (discriminator 112)
   23670:	00651333          	sll	t1,a0,t1
/opt/riscv-gnu-toolchain/build-gcc-newlib-stage2/riscv32-vega-elf/libgcc/../../.././gcc/libgcc/soft-fp/adddf3.c:44 (discriminator 107)
   23674:	01076733          	or	a4,a4,a6
/opt/riscv-gnu-toolchain/build-gcc-newlib-stage2/riscv32-vega-elf/libgcc/../../.././gcc/libgcc/soft-fp/adddf3.c:44 (discriminator 112)
   23678:	00603333          	snez	t1,t1
/opt/riscv-gnu-toolchain/build-gcc-newlib-stage2/riscv32-vega-elf/libgcc/../../.././gcc/libgcc/soft-fp/adddf3.c:44 (discriminator 114)
   2367c:	00676733          	or	a4,a4,t1
   23680:	00d7d6b3          	srl	a3,a5,a3
/opt/riscv-gnu-toolchain/build-gcc-newlib-stage2/riscv32-vega-elf/libgcc/../../.././gcc/libgcc/soft-fp/adddf3.c:44 (discriminator 121)
   23684:	00c70633          	add	a2,a4,a2
   23688:	00b686b3          	add	a3,a3,a1
   2368c:	00e63733          	sltu	a4,a2,a4
   23690:	00060513          	mv	a0,a2
   23694:	00e687b3          	add	a5,a3,a4
/opt/riscv-gnu-toolchain/build-gcc-newlib-stage2/riscv32-vega-elf/libgcc/../../.././gcc/libgcc/soft-fp/adddf3.c:44 (discriminator 66)
   23698:	00088a13          	mv	s4,a7
   2369c:	efdff06f          	j	23598 <__adddf3+0x178>
/opt/riscv-gnu-toolchain/build-gcc-newlib-stage2/riscv32-vega-elf/libgcc/../../.././gcc/libgcc/soft-fp/adddf3.c:44 (discriminator 108)
   236a0:	fe068713          	addi	a4,a3,-32 # 7fffe0 <_heap_end+0x7d7020>
   236a4:	00e7d733          	srl	a4,a5,a4
/opt/riscv-gnu-toolchain/build-gcc-newlib-stage2/riscv32-vega-elf/libgcc/../../.././gcc/libgcc/soft-fp/adddf3.c:44 (discriminator 116)
   236a8:	00000813          	li	a6,0
/opt/riscv-gnu-toolchain/build-gcc-newlib-stage2/riscv32-vega-elf/libgcc/../../.././gcc/libgcc/soft-fp/adddf3.c:44 (discriminator 108)
   236ac:	00668863          	beq	a3,t1,236bc <__adddf3+0x29c>
/opt/riscv-gnu-toolchain/build-gcc-newlib-stage2/riscv32-vega-elf/libgcc/../../.././gcc/libgcc/soft-fp/adddf3.c:44 (discriminator 115)
   236b0:	04000813          	li	a6,64
   236b4:	40d80833          	sub	a6,a6,a3
   236b8:	01079833          	sll	a6,a5,a6
/opt/riscv-gnu-toolchain/build-gcc-newlib-stage2/riscv32-vega-elf/libgcc/../../.././gcc/libgcc/soft-fp/adddf3.c:44 (discriminator 118)
   236bc:	00a86833          	or	a6,a6,a0
   236c0:	01003833          	snez	a6,a6
   236c4:	01076733          	or	a4,a4,a6
/opt/riscv-gnu-toolchain/build-gcc-newlib-stage2/riscv32-vega-elf/libgcc/../../.././gcc/libgcc/soft-fp/adddf3.c:44
   236c8:	00000693          	li	a3,0
   236cc:	fb9ff06f          	j	23684 <__adddf3+0x264>
/opt/riscv-gnu-toolchain/build-gcc-newlib-stage2/riscv32-vega-elf/libgcc/../../.././gcc/libgcc/soft-fp/adddf3.c:44 (discriminator 106)
   236d0:	00a7e733          	or	a4,a5,a0
   236d4:	00e03733          	snez	a4,a4
   236d8:	ff1ff06f          	j	236c8 <__adddf3+0x2a8>
/opt/riscv-gnu-toolchain/build-gcc-newlib-stage2/riscv32-vega-elf/libgcc/../../.././gcc/libgcc/soft-fp/adddf3.c:44 (discriminator 67)
   236dc:	001a0713          	addi	a4,s4,1
   236e0:	7fe77693          	andi	a3,a4,2046
   236e4:	06069663          	bnez	a3,23750 <__adddf3+0x330>
/opt/riscv-gnu-toolchain/build-gcc-newlib-stage2/riscv32-vega-elf/libgcc/../../.././gcc/libgcc/soft-fp/adddf3.c:44 (discriminator 68)
   236e8:	00a7e733          	or	a4,a5,a0
/opt/riscv-gnu-toolchain/build-gcc-newlib-stage2/riscv32-vega-elf/libgcc/../../.././gcc/libgcc/soft-fp/adddf3.c:44 (discriminator 123)
   236ec:	040a1263          	bnez	s4,23730 <__adddf3+0x310>
/opt/riscv-gnu-toolchain/build-gcc-newlib-stage2/riscv32-vega-elf/libgcc/../../.././gcc/libgcc/soft-fp/adddf3.c:44 (discriminator 125)
   236f0:	46070263          	beqz	a4,23b54 <__adddf3+0x734>
/opt/riscv-gnu-toolchain/build-gcc-newlib-stage2/riscv32-vega-elf/libgcc/../../.././gcc/libgcc/soft-fp/adddf3.c:44 (discriminator 11)
   236f4:	00c5e733          	or	a4,a1,a2
/opt/riscv-gnu-toolchain/build-gcc-newlib-stage2/riscv32-vega-elf/libgcc/../../.././gcc/libgcc/soft-fp/adddf3.c:44 (discriminator 128)
   236f8:	46070263          	beqz	a4,23b5c <__adddf3+0x73c>
/opt/riscv-gnu-toolchain/build-gcc-newlib-stage2/riscv32-vega-elf/libgcc/../../.././gcc/libgcc/soft-fp/adddf3.c:44
   236fc:	00c50733          	add	a4,a0,a2
/opt/riscv-gnu-toolchain/build-gcc-newlib-stage2/riscv32-vega-elf/libgcc/../../.././gcc/libgcc/soft-fp/adddf3.c:44 (discriminator 134)
   23700:	00b785b3          	add	a1,a5,a1
   23704:	00a737b3          	sltu	a5,a4,a0
   23708:	00f587b3          	add	a5,a1,a5
   2370c:	00879693          	slli	a3,a5,0x8
   23710:	00070613          	mv	a2,a4
   23714:	2c06de63          	bgez	a3,239f0 <__adddf3+0x5d0>
/opt/riscv-gnu-toolchain/build-gcc-newlib-stage2/riscv32-vega-elf/libgcc/../../.././gcc/libgcc/soft-fp/adddf3.c:44 (discriminator 136)
   23718:	ff8006b7          	lui	a3,0xff800
   2371c:	fff68693          	addi	a3,a3,-1 # ff7fffff <_heap_end+0xff7d703f>
   23720:	00d7f7b3          	and	a5,a5,a3
/opt/riscv-gnu-toolchain/build-gcc-newlib-stage2/riscv32-vega-elf/libgcc/../../.././gcc/libgcc/soft-fp/adddf3.c:44 (discriminator 134)
   23724:	00070513          	mv	a0,a4
/opt/riscv-gnu-toolchain/build-gcc-newlib-stage2/riscv32-vega-elf/libgcc/../../.././gcc/libgcc/soft-fp/adddf3.c:44 (discriminator 136)
   23728:	00100a13          	li	s4,1
   2372c:	da1ff06f          	j	234cc <__adddf3+0xac>
/opt/riscv-gnu-toolchain/build-gcc-newlib-stage2/riscv32-vega-elf/libgcc/../../.././gcc/libgcc/soft-fp/adddf3.c:44 (discriminator 153)
   23730:	42070a63          	beqz	a4,23b64 <__adddf3+0x744>
/opt/riscv-gnu-toolchain/build-gcc-newlib-stage2/riscv32-vega-elf/libgcc/../../.././gcc/libgcc/soft-fp/adddf3.c:44 (discriminator 155)
   23734:	00c5e633          	or	a2,a1,a2
/opt/riscv-gnu-toolchain/build-gcc-newlib-stage2/riscv32-vega-elf/libgcc/../../.././gcc/libgcc/soft-fp/adddf3.c:44 (discriminator 153)
   23738:	00030a13          	mv	s4,t1
/opt/riscv-gnu-toolchain/build-gcc-newlib-stage2/riscv32-vega-elf/libgcc/../../.././gcc/libgcc/soft-fp/adddf3.c:44 (discriminator 155)
   2373c:	d80608e3          	beqz	a2,234cc <__adddf3+0xac>
/opt/riscv-gnu-toolchain/build-gcc-newlib-stage2/riscv32-vega-elf/libgcc/../../.././gcc/libgcc/soft-fp/adddf3.c:44 (discriminator 351)
   23740:	00000993          	li	s3,0
/opt/riscv-gnu-toolchain/build-gcc-newlib-stage2/riscv32-vega-elf/libgcc/../../.././gcc/libgcc/soft-fp/adddf3.c:44 (discriminator 354)
   23744:	004007b7          	lui	a5,0x400
   23748:	00000513          	li	a0,0
   2374c:	d81ff06f          	j	234cc <__adddf3+0xac>
/opt/riscv-gnu-toolchain/build-gcc-newlib-stage2/riscv32-vega-elf/libgcc/../../.././gcc/libgcc/soft-fp/adddf3.c:44 (discriminator 124)
   23750:	42670263          	beq	a4,t1,23b74 <__adddf3+0x754>
   23754:	00c50633          	add	a2,a0,a2
   23758:	00a63533          	sltu	a0,a2,a0
   2375c:	00b785b3          	add	a1,a5,a1
   23760:	00a585b3          	add	a1,a1,a0
   23764:	01f59513          	slli	a0,a1,0x1f
   23768:	00165613          	srli	a2,a2,0x1
   2376c:	00c56533          	or	a0,a0,a2
   23770:	0015d793          	srli	a5,a1,0x1
   23774:	00070a13          	mv	s4,a4
/opt/riscv-gnu-toolchain/build-gcc-newlib-stage2/riscv32-vega-elf/libgcc/../../.././gcc/libgcc/soft-fp/adddf3.c:45 (discriminator 36)
   23778:	00757713          	andi	a4,a0,7
   2377c:	02070063          	beqz	a4,2379c <__adddf3+0x37c>
/opt/riscv-gnu-toolchain/build-gcc-newlib-stage2/riscv32-vega-elf/libgcc/../../.././gcc/libgcc/soft-fp/adddf3.c:45 (discriminator 40)
   23780:	00f57713          	andi	a4,a0,15
   23784:	00400693          	li	a3,4
   23788:	00d70a63          	beq	a4,a3,2379c <__adddf3+0x37c>
/opt/riscv-gnu-toolchain/build-gcc-newlib-stage2/riscv32-vega-elf/libgcc/../../.././gcc/libgcc/soft-fp/adddf3.c:45 (discriminator 44)
   2378c:	00d50733          	add	a4,a0,a3
   23790:	00a736b3          	sltu	a3,a4,a0
   23794:	00d787b3          	add	a5,a5,a3
   23798:	00070513          	mv	a0,a4
/opt/riscv-gnu-toolchain/build-gcc-newlib-stage2/riscv32-vega-elf/libgcc/../../.././gcc/libgcc/soft-fp/adddf3.c:45 (discriminator 62)
   2379c:	00879713          	slli	a4,a5,0x8
   237a0:	d20756e3          	bgez	a4,234cc <__adddf3+0xac>
/opt/riscv-gnu-toolchain/build-gcc-newlib-stage2/riscv32-vega-elf/libgcc/../../.././gcc/libgcc/soft-fp/adddf3.c:45 (discriminator 63)
   237a4:	001a0a13          	addi	s4,s4,1
   237a8:	7ff00713          	li	a4,2047
   237ac:	3cea0663          	beq	s4,a4,23b78 <__adddf3+0x758>
   237b0:	ff800737          	lui	a4,0xff800
   237b4:	fff70713          	addi	a4,a4,-1 # ff7fffff <_heap_end+0xff7d703f>
   237b8:	00e7f7b3          	and	a5,a5,a4
   237bc:	d11ff06f          	j	234cc <__adddf3+0xac>
/opt/riscv-gnu-toolchain/build-gcc-newlib-stage2/riscv32-vega-elf/libgcc/../../.././gcc/libgcc/soft-fp/adddf3.c:44 (discriminator 8)
   237c0:	0f005463          	blez	a6,238a8 <__adddf3+0x488>
/opt/riscv-gnu-toolchain/build-gcc-newlib-stage2/riscv32-vega-elf/libgcc/../../.././gcc/libgcc/soft-fp/adddf3.c:44 (discriminator 200)
   237c4:	08089c63          	bnez	a7,2385c <__adddf3+0x43c>
/opt/riscv-gnu-toolchain/build-gcc-newlib-stage2/riscv32-vega-elf/libgcc/../../.././gcc/libgcc/soft-fp/adddf3.c:44 (discriminator 202)
   237c8:	00c5e733          	or	a4,a1,a2
   237cc:	d00700e3          	beqz	a4,234cc <__adddf3+0xac>
/opt/riscv-gnu-toolchain/build-gcc-newlib-stage2/riscv32-vega-elf/libgcc/../../.././gcc/libgcc/soft-fp/adddf3.c:44 (discriminator 205)
   237d0:	fffa0813          	addi	a6,s4,-1
   237d4:	02081063          	bnez	a6,237f4 <__adddf3+0x3d4>
/opt/riscv-gnu-toolchain/build-gcc-newlib-stage2/riscv32-vega-elf/libgcc/../../.././gcc/libgcc/soft-fp/adddf3.c:44 (discriminator 214)
   237d8:	40c50633          	sub	a2,a0,a2
   237dc:	00c53733          	sltu	a4,a0,a2
   237e0:	40b785b3          	sub	a1,a5,a1
   237e4:	00060513          	mv	a0,a2
   237e8:	40e587b3          	sub	a5,a1,a4
/opt/riscv-gnu-toolchain/build-gcc-newlib-stage2/riscv32-vega-elf/libgcc/../../.././gcc/libgcc/soft-fp/adddf3.c:44 (discriminator 257)
   237ec:	00100a13          	li	s4,1
/opt/riscv-gnu-toolchain/build-gcc-newlib-stage2/riscv32-vega-elf/libgcc/../../.././gcc/libgcc/soft-fp/adddf3.c:44
   237f0:	0500006f          	j	23840 <__adddf3+0x420>
/opt/riscv-gnu-toolchain/build-gcc-newlib-stage2/riscv32-vega-elf/libgcc/../../.././gcc/libgcc/soft-fp/adddf3.c:44 (discriminator 215)
   237f4:	cc6a0ce3          	beq	s4,t1,234cc <__adddf3+0xac>
/opt/riscv-gnu-toolchain/build-gcc-newlib-stage2/riscv32-vega-elf/libgcc/../../.././gcc/libgcc/soft-fp/adddf3.c:44 (discriminator 238)
   237f8:	03800713          	li	a4,56
   237fc:	0b074063          	blt	a4,a6,2389c <__adddf3+0x47c>
/opt/riscv-gnu-toolchain/build-gcc-newlib-stage2/riscv32-vega-elf/libgcc/../../.././gcc/libgcc/soft-fp/adddf3.c:44 (discriminator 239)
   23800:	01f00713          	li	a4,31
   23804:	02000893          	li	a7,32
   23808:	07074263          	blt	a4,a6,2386c <__adddf3+0x44c>
/opt/riscv-gnu-toolchain/build-gcc-newlib-stage2/riscv32-vega-elf/libgcc/../../.././gcc/libgcc/soft-fp/adddf3.c:44 (discriminator 241)
   2380c:	410888b3          	sub	a7,a7,a6
   23810:	01159733          	sll	a4,a1,a7
   23814:	010656b3          	srl	a3,a2,a6
/opt/riscv-gnu-toolchain/build-gcc-newlib-stage2/riscv32-vega-elf/libgcc/../../.././gcc/libgcc/soft-fp/adddf3.c:44 (discriminator 246)
   23818:	011618b3          	sll	a7,a2,a7
/opt/riscv-gnu-toolchain/build-gcc-newlib-stage2/riscv32-vega-elf/libgcc/../../.././gcc/libgcc/soft-fp/adddf3.c:44 (discriminator 241)
   2381c:	00d76733          	or	a4,a4,a3
/opt/riscv-gnu-toolchain/build-gcc-newlib-stage2/riscv32-vega-elf/libgcc/../../.././gcc/libgcc/soft-fp/adddf3.c:44 (discriminator 246)
   23820:	011038b3          	snez	a7,a7
/opt/riscv-gnu-toolchain/build-gcc-newlib-stage2/riscv32-vega-elf/libgcc/../../.././gcc/libgcc/soft-fp/adddf3.c:44 (discriminator 248)
   23824:	01176733          	or	a4,a4,a7
   23828:	0105d833          	srl	a6,a1,a6
/opt/riscv-gnu-toolchain/build-gcc-newlib-stage2/riscv32-vega-elf/libgcc/../../.././gcc/libgcc/soft-fp/adddf3.c:44 (discriminator 255)
   2382c:	40e50733          	sub	a4,a0,a4
   23830:	00e536b3          	sltu	a3,a0,a4
   23834:	41078833          	sub	a6,a5,a6
   23838:	00070513          	mv	a0,a4
   2383c:	40d807b3          	sub	a5,a6,a3
/opt/riscv-gnu-toolchain/build-gcc-newlib-stage2/riscv32-vega-elf/libgcc/../../.././gcc/libgcc/soft-fp/adddf3.c:44 (discriminator 313)
   23840:	00879713          	slli	a4,a5,0x8
   23844:	f2075ae3          	bgez	a4,23778 <__adddf3+0x358>
/opt/riscv-gnu-toolchain/build-gcc-newlib-stage2/riscv32-vega-elf/libgcc/../../.././gcc/libgcc/soft-fp/adddf3.c:44 (discriminator 373)
   23848:	00800937          	lui	s2,0x800
   2384c:	fff90913          	addi	s2,s2,-1 # 7fffff <_heap_end+0x7d703f>
   23850:	0127f933          	and	s2,a5,s2
   23854:	00050a93          	mv	s5,a0
   23858:	2180006f          	j	23a70 <__adddf3+0x650>
/opt/riscv-gnu-toolchain/build-gcc-newlib-stage2/riscv32-vega-elf/libgcc/../../.././gcc/libgcc/soft-fp/adddf3.c:44 (discriminator 203)
   2385c:	c66a08e3          	beq	s4,t1,234cc <__adddf3+0xac>
/opt/riscv-gnu-toolchain/build-gcc-newlib-stage2/riscv32-vega-elf/libgcc/../../.././gcc/libgcc/soft-fp/adddf3.c:44 (discriminator 229)
   23860:	00800737          	lui	a4,0x800
   23864:	00e5e5b3          	or	a1,a1,a4
   23868:	f91ff06f          	j	237f8 <__adddf3+0x3d8>
/opt/riscv-gnu-toolchain/build-gcc-newlib-stage2/riscv32-vega-elf/libgcc/../../.././gcc/libgcc/soft-fp/adddf3.c:44 (discriminator 242)
   2386c:	fe080713          	addi	a4,a6,-32
   23870:	00e5d733          	srl	a4,a1,a4
/opt/riscv-gnu-toolchain/build-gcc-newlib-stage2/riscv32-vega-elf/libgcc/../../.././gcc/libgcc/soft-fp/adddf3.c:44 (discriminator 250)
   23874:	00000693          	li	a3,0
/opt/riscv-gnu-toolchain/build-gcc-newlib-stage2/riscv32-vega-elf/libgcc/../../.././gcc/libgcc/soft-fp/adddf3.c:44 (discriminator 242)
   23878:	01180863          	beq	a6,a7,23888 <__adddf3+0x468>
/opt/riscv-gnu-toolchain/build-gcc-newlib-stage2/riscv32-vega-elf/libgcc/../../.././gcc/libgcc/soft-fp/adddf3.c:44 (discriminator 249)
   2387c:	04000693          	li	a3,64
   23880:	410686b3          	sub	a3,a3,a6
   23884:	00d596b3          	sll	a3,a1,a3
/opt/riscv-gnu-toolchain/build-gcc-newlib-stage2/riscv32-vega-elf/libgcc/../../.././gcc/libgcc/soft-fp/adddf3.c:44 (discriminator 252)
   23888:	00c6e6b3          	or	a3,a3,a2
   2388c:	00d036b3          	snez	a3,a3
   23890:	00d76733          	or	a4,a4,a3
/opt/riscv-gnu-toolchain/build-gcc-newlib-stage2/riscv32-vega-elf/libgcc/../../.././gcc/libgcc/soft-fp/adddf3.c:44
   23894:	00000813          	li	a6,0
   23898:	f95ff06f          	j	2382c <__adddf3+0x40c>
/opt/riscv-gnu-toolchain/build-gcc-newlib-stage2/riscv32-vega-elf/libgcc/../../.././gcc/libgcc/soft-fp/adddf3.c:44 (discriminator 240)
   2389c:	00c5e733          	or	a4,a1,a2
   238a0:	00e03733          	snez	a4,a4
   238a4:	ff1ff06f          	j	23894 <__adddf3+0x474>
/opt/riscv-gnu-toolchain/build-gcc-newlib-stage2/riscv32-vega-elf/libgcc/../../.././gcc/libgcc/soft-fp/adddf3.c:44 (discriminator 201)
   238a8:	0e080463          	beqz	a6,23990 <__adddf3+0x570>
/opt/riscv-gnu-toolchain/build-gcc-newlib-stage2/riscv32-vega-elf/libgcc/../../.././gcc/libgcc/soft-fp/adddf3.c:44 (discriminator 257)
   238ac:	41488833          	sub	a6,a7,s4
   238b0:	040a1263          	bnez	s4,238f4 <__adddf3+0x4d4>
/opt/riscv-gnu-toolchain/build-gcc-newlib-stage2/riscv32-vega-elf/libgcc/../../.././gcc/libgcc/soft-fp/adddf3.c:44 (discriminator 259)
   238b4:	00a7e733          	or	a4,a5,a0
   238b8:	02070463          	beqz	a4,238e0 <__adddf3+0x4c0>
/opt/riscv-gnu-toolchain/build-gcc-newlib-stage2/riscv32-vega-elf/libgcc/../../.././gcc/libgcc/soft-fp/adddf3.c:44 (discriminator 262)
   238bc:	fff80713          	addi	a4,a6,-1
   238c0:	00071e63          	bnez	a4,238dc <__adddf3+0x4bc>
/opt/riscv-gnu-toolchain/build-gcc-newlib-stage2/riscv32-vega-elf/libgcc/../../.././gcc/libgcc/soft-fp/adddf3.c:44
   238c4:	40a60533          	sub	a0,a2,a0
/opt/riscv-gnu-toolchain/build-gcc-newlib-stage2/riscv32-vega-elf/libgcc/../../.././gcc/libgcc/soft-fp/adddf3.c:44 (discriminator 271)
   238c8:	40f585b3          	sub	a1,a1,a5
   238cc:	00a63633          	sltu	a2,a2,a0
   238d0:	40c587b3          	sub	a5,a1,a2
/opt/riscv-gnu-toolchain/build-gcc-newlib-stage2/riscv32-vega-elf/libgcc/../../.././gcc/libgcc/soft-fp/adddf3.c:44 (discriminator 257)
   238d4:	00068993          	mv	s3,a3
   238d8:	f15ff06f          	j	237ec <__adddf3+0x3cc>
/opt/riscv-gnu-toolchain/build-gcc-newlib-stage2/riscv32-vega-elf/libgcc/../../.././gcc/libgcc/soft-fp/adddf3.c:44 (discriminator 272)
   238dc:	02681463          	bne	a6,t1,23904 <__adddf3+0x4e4>
/opt/riscv-gnu-toolchain/build-gcc-newlib-stage2/riscv32-vega-elf/libgcc/../../.././gcc/libgcc/soft-fp/adddf3.c:44 (discriminator 257)
   238e0:	00068993          	mv	s3,a3
/opt/riscv-gnu-toolchain/build-gcc-newlib-stage2/riscv32-vega-elf/libgcc/../../.././gcc/libgcc/soft-fp/adddf3.c:44 (discriminator 282)
   238e4:	00058793          	mv	a5,a1
   238e8:	00060513          	mv	a0,a2
/opt/riscv-gnu-toolchain/build-gcc-newlib-stage2/riscv32-vega-elf/libgcc/../../.././gcc/libgcc/soft-fp/adddf3.c:44 (discriminator 257)
   238ec:	00080a13          	mv	s4,a6
   238f0:	bddff06f          	j	234cc <__adddf3+0xac>
/opt/riscv-gnu-toolchain/build-gcc-newlib-stage2/riscv32-vega-elf/libgcc/../../.././gcc/libgcc/soft-fp/adddf3.c:44 (discriminator 260)
   238f4:	28688663          	beq	a7,t1,23b80 <__adddf3+0x760>
/opt/riscv-gnu-toolchain/build-gcc-newlib-stage2/riscv32-vega-elf/libgcc/../../.././gcc/libgcc/soft-fp/adddf3.c:44 (discriminator 286)
   238f8:	00800737          	lui	a4,0x800
   238fc:	00e7e7b3          	or	a5,a5,a4
/opt/riscv-gnu-toolchain/build-gcc-newlib-stage2/riscv32-vega-elf/libgcc/../../.././gcc/libgcc/soft-fp/adddf3.c:44 (discriminator 257)
   23900:	00080713          	mv	a4,a6
/opt/riscv-gnu-toolchain/build-gcc-newlib-stage2/riscv32-vega-elf/libgcc/../../.././gcc/libgcc/soft-fp/adddf3.c:44 (discriminator 295)
   23904:	03800813          	li	a6,56
   23908:	06e84e63          	blt	a6,a4,23984 <__adddf3+0x564>
/opt/riscv-gnu-toolchain/build-gcc-newlib-stage2/riscv32-vega-elf/libgcc/../../.././gcc/libgcc/soft-fp/adddf3.c:44 (discriminator 296)
   2390c:	01f00813          	li	a6,31
   23910:	02000e13          	li	t3,32
   23914:	04e84063          	blt	a6,a4,23954 <__adddf3+0x534>
/opt/riscv-gnu-toolchain/build-gcc-newlib-stage2/riscv32-vega-elf/libgcc/../../.././gcc/libgcc/soft-fp/adddf3.c:44 (discriminator 298)
   23918:	40ee0e33          	sub	t3,t3,a4
   2391c:	00e55333          	srl	t1,a0,a4
   23920:	01c79833          	sll	a6,a5,t3
/opt/riscv-gnu-toolchain/build-gcc-newlib-stage2/riscv32-vega-elf/libgcc/../../.././gcc/libgcc/soft-fp/adddf3.c:44 (discriminator 303)
   23924:	01c51e33          	sll	t3,a0,t3
/opt/riscv-gnu-toolchain/build-gcc-newlib-stage2/riscv32-vega-elf/libgcc/../../.././gcc/libgcc/soft-fp/adddf3.c:44 (discriminator 298)
   23928:	00686833          	or	a6,a6,t1
/opt/riscv-gnu-toolchain/build-gcc-newlib-stage2/riscv32-vega-elf/libgcc/../../.././gcc/libgcc/soft-fp/adddf3.c:44 (discriminator 303)
   2392c:	01c03e33          	snez	t3,t3
/opt/riscv-gnu-toolchain/build-gcc-newlib-stage2/riscv32-vega-elf/libgcc/../../.././gcc/libgcc/soft-fp/adddf3.c:44 (discriminator 305)
   23930:	01c86533          	or	a0,a6,t3
   23934:	00e7d733          	srl	a4,a5,a4
/opt/riscv-gnu-toolchain/build-gcc-newlib-stage2/riscv32-vega-elf/libgcc/../../.././gcc/libgcc/soft-fp/adddf3.c:44
   23938:	40a60533          	sub	a0,a2,a0
/opt/riscv-gnu-toolchain/build-gcc-newlib-stage2/riscv32-vega-elf/libgcc/../../.././gcc/libgcc/soft-fp/adddf3.c:44 (discriminator 312)
   2393c:	40e58733          	sub	a4,a1,a4
   23940:	00a63633          	sltu	a2,a2,a0
   23944:	40c707b3          	sub	a5,a4,a2
/opt/riscv-gnu-toolchain/build-gcc-newlib-stage2/riscv32-vega-elf/libgcc/../../.././gcc/libgcc/soft-fp/adddf3.c:44 (discriminator 257)
   23948:	00088a13          	mv	s4,a7
   2394c:	00068993          	mv	s3,a3
   23950:	ef1ff06f          	j	23840 <__adddf3+0x420>
/opt/riscv-gnu-toolchain/build-gcc-newlib-stage2/riscv32-vega-elf/libgcc/../../.././gcc/libgcc/soft-fp/adddf3.c:44 (discriminator 299)
   23954:	fe070813          	addi	a6,a4,-32 # 7fffe0 <_heap_end+0x7d7020>
   23958:	0107d833          	srl	a6,a5,a6
/opt/riscv-gnu-toolchain/build-gcc-newlib-stage2/riscv32-vega-elf/libgcc/../../.././gcc/libgcc/soft-fp/adddf3.c:44 (discriminator 307)
   2395c:	00000313          	li	t1,0
/opt/riscv-gnu-toolchain/build-gcc-newlib-stage2/riscv32-vega-elf/libgcc/../../.././gcc/libgcc/soft-fp/adddf3.c:44 (discriminator 299)
   23960:	01c70863          	beq	a4,t3,23970 <__adddf3+0x550>
/opt/riscv-gnu-toolchain/build-gcc-newlib-stage2/riscv32-vega-elf/libgcc/../../.././gcc/libgcc/soft-fp/adddf3.c:44 (discriminator 306)
   23964:	04000313          	li	t1,64
   23968:	40e30333          	sub	t1,t1,a4
   2396c:	00679333          	sll	t1,a5,t1
/opt/riscv-gnu-toolchain/build-gcc-newlib-stage2/riscv32-vega-elf/libgcc/../../.././gcc/libgcc/soft-fp/adddf3.c:44 (discriminator 309)
   23970:	00a36333          	or	t1,t1,a0
   23974:	00603333          	snez	t1,t1
   23978:	00686533          	or	a0,a6,t1
/opt/riscv-gnu-toolchain/build-gcc-newlib-stage2/riscv32-vega-elf/libgcc/../../.././gcc/libgcc/soft-fp/adddf3.c:44
   2397c:	00000713          	li	a4,0
   23980:	fb9ff06f          	j	23938 <__adddf3+0x518>
/opt/riscv-gnu-toolchain/build-gcc-newlib-stage2/riscv32-vega-elf/libgcc/../../.././gcc/libgcc/soft-fp/adddf3.c:44 (discriminator 297)
   23984:	00a7e533          	or	a0,a5,a0
   23988:	00a03533          	snez	a0,a0
   2398c:	ff1ff06f          	j	2397c <__adddf3+0x55c>
/opt/riscv-gnu-toolchain/build-gcc-newlib-stage2/riscv32-vega-elf/libgcc/../../.././gcc/libgcc/soft-fp/adddf3.c:44 (discriminator 258)
   23990:	001a0713          	addi	a4,s4,1
   23994:	7fe77713          	andi	a4,a4,2046
   23998:	0a071463          	bnez	a4,23a40 <__adddf3+0x620>
/opt/riscv-gnu-toolchain/build-gcc-newlib-stage2/riscv32-vega-elf/libgcc/../../.././gcc/libgcc/soft-fp/adddf3.c:44 (discriminator 68)
   2399c:	00a7e833          	or	a6,a5,a0
/opt/riscv-gnu-toolchain/build-gcc-newlib-stage2/riscv32-vega-elf/libgcc/../../.././gcc/libgcc/soft-fp/adddf3.c:44 (discriminator 11)
   239a0:	00c5e733          	or	a4,a1,a2
/opt/riscv-gnu-toolchain/build-gcc-newlib-stage2/riscv32-vega-elf/libgcc/../../.././gcc/libgcc/soft-fp/adddf3.c:44 (discriminator 314)
   239a4:	060a1a63          	bnez	s4,23a18 <__adddf3+0x5f8>
/opt/riscv-gnu-toolchain/build-gcc-newlib-stage2/riscv32-vega-elf/libgcc/../../.././gcc/libgcc/soft-fp/adddf3.c:44 (discriminator 316)
   239a8:	00081a63          	bnez	a6,239bc <__adddf3+0x59c>
/opt/riscv-gnu-toolchain/build-gcc-newlib-stage2/riscv32-vega-elf/libgcc/../../.././gcc/libgcc/soft-fp/adddf3.c:44 (discriminator 318)
   239ac:	00058793          	mv	a5,a1
   239b0:	02071e63          	bnez	a4,239ec <__adddf3+0x5cc>
/opt/riscv-gnu-toolchain/build-gcc-newlib-stage2/riscv32-vega-elf/libgcc/../../.././gcc/libgcc/soft-fp/adddf3.c:44 (discriminator 320)
   239b4:	00000993          	li	s3,0
   239b8:	1c00006f          	j	23b78 <__adddf3+0x758>
/opt/riscv-gnu-toolchain/build-gcc-newlib-stage2/riscv32-vega-elf/libgcc/../../.././gcc/libgcc/soft-fp/adddf3.c:44 (discriminator 319)
   239bc:	1a070063          	beqz	a4,23b5c <__adddf3+0x73c>
/opt/riscv-gnu-toolchain/build-gcc-newlib-stage2/riscv32-vega-elf/libgcc/../../.././gcc/libgcc/soft-fp/adddf3.c:44
   239c0:	40c50833          	sub	a6,a0,a2
/opt/riscv-gnu-toolchain/build-gcc-newlib-stage2/riscv32-vega-elf/libgcc/../../.././gcc/libgcc/soft-fp/adddf3.c:44 (discriminator 326)
   239c4:	010538b3          	sltu	a7,a0,a6
   239c8:	40b78733          	sub	a4,a5,a1
   239cc:	41170733          	sub	a4,a4,a7
   239d0:	00871893          	slli	a7,a4,0x8
   239d4:	0208d863          	bgez	a7,23a04 <__adddf3+0x5e4>
/opt/riscv-gnu-toolchain/build-gcc-newlib-stage2/riscv32-vega-elf/libgcc/../../.././gcc/libgcc/soft-fp/adddf3.c:44 (discriminator 328)
   239d8:	40a60533          	sub	a0,a2,a0
   239dc:	00a63733          	sltu	a4,a2,a0
   239e0:	40f585b3          	sub	a1,a1,a5
   239e4:	00050613          	mv	a2,a0
   239e8:	40e587b3          	sub	a5,a1,a4
   239ec:	00068993          	mv	s3,a3
/opt/riscv-gnu-toolchain/build-gcc-newlib-stage2/riscv32-vega-elf/libgcc/../../.././gcc/libgcc/soft-fp/adddf3.c:45 (discriminator 1)
   239f0:	00c7e533          	or	a0,a5,a2
   239f4:	0e050663          	beqz	a0,23ae0 <__adddf3+0x6c0>
   239f8:	00060513          	mv	a0,a2
   239fc:	00000a13          	li	s4,0
   23a00:	d79ff06f          	j	23778 <__adddf3+0x358>
/opt/riscv-gnu-toolchain/build-gcc-newlib-stage2/riscv32-vega-elf/libgcc/../../.././gcc/libgcc/soft-fp/adddf3.c:44 (discriminator 329)
   23a04:	00e86533          	or	a0,a6,a4
   23a08:	18050663          	beqz	a0,23b94 <__adddf3+0x774>
/opt/riscv-gnu-toolchain/build-gcc-newlib-stage2/riscv32-vega-elf/libgcc/../../.././gcc/libgcc/soft-fp/adddf3.c:44 (discriminator 326)
   23a0c:	00070793          	mv	a5,a4
   23a10:	00080613          	mv	a2,a6
   23a14:	fddff06f          	j	239f0 <__adddf3+0x5d0>
/opt/riscv-gnu-toolchain/build-gcc-newlib-stage2/riscv32-vega-elf/libgcc/../../.././gcc/libgcc/soft-fp/adddf3.c:44 (discriminator 348)
   23a18:	00081e63          	bnez	a6,23a34 <__adddf3+0x614>
/opt/riscv-gnu-toolchain/build-gcc-newlib-stage2/riscv32-vega-elf/libgcc/../../.././gcc/libgcc/soft-fp/adddf3.c:44 (discriminator 352)
   23a1c:	00068993          	mv	s3,a3
/opt/riscv-gnu-toolchain/build-gcc-newlib-stage2/riscv32-vega-elf/libgcc/../../.././gcc/libgcc/soft-fp/adddf3.c:44 (discriminator 349)
   23a20:	14071263          	bnez	a4,23b64 <__adddf3+0x744>
/opt/riscv-gnu-toolchain/build-gcc-newlib-stage2/riscv32-vega-elf/libgcc/../../.././gcc/libgcc/soft-fp/adddf3.c:44 (discriminator 351)
   23a24:	00000993          	li	s3,0
/opt/riscv-gnu-toolchain/build-gcc-newlib-stage2/riscv32-vega-elf/libgcc/../../.././gcc/libgcc/soft-fp/adddf3.c:44 (discriminator 354)
   23a28:	004007b7          	lui	a5,0x400
   23a2c:	00000513          	li	a0,0
   23a30:	13c0006f          	j	23b6c <__adddf3+0x74c>
/opt/riscv-gnu-toolchain/build-gcc-newlib-stage2/riscv32-vega-elf/libgcc/../../.././gcc/libgcc/soft-fp/adddf3.c:44 (discriminator 200)
   23a34:	00030a13          	mv	s4,t1
/opt/riscv-gnu-toolchain/build-gcc-newlib-stage2/riscv32-vega-elf/libgcc/../../.././gcc/libgcc/soft-fp/adddf3.c:44 (discriminator 350)
   23a38:	a8070ae3          	beqz	a4,234cc <__adddf3+0xac>
   23a3c:	d05ff06f          	j	23740 <__adddf3+0x320>
/opt/riscv-gnu-toolchain/build-gcc-newlib-stage2/riscv32-vega-elf/libgcc/../../.././gcc/libgcc/soft-fp/adddf3.c:44
   23a40:	40c50733          	sub	a4,a0,a2
/opt/riscv-gnu-toolchain/build-gcc-newlib-stage2/riscv32-vega-elf/libgcc/../../.././gcc/libgcc/soft-fp/adddf3.c:44 (discriminator 315)
   23a44:	00e53833          	sltu	a6,a0,a4
   23a48:	40b78933          	sub	s2,a5,a1
   23a4c:	41090933          	sub	s2,s2,a6
   23a50:	00891813          	slli	a6,s2,0x8
   23a54:	00070a93          	mv	s5,a4
   23a58:	06085e63          	bgez	a6,23ad4 <__adddf3+0x6b4>
/opt/riscv-gnu-toolchain/build-gcc-newlib-stage2/riscv32-vega-elf/libgcc/../../.././gcc/libgcc/soft-fp/adddf3.c:44
   23a5c:	40a60ab3          	sub	s5,a2,a0
/opt/riscv-gnu-toolchain/build-gcc-newlib-stage2/riscv32-vega-elf/libgcc/../../.././gcc/libgcc/soft-fp/adddf3.c:44 (discriminator 366)
   23a60:	40f58933          	sub	s2,a1,a5
   23a64:	01563633          	sltu	a2,a2,s5
   23a68:	40c90933          	sub	s2,s2,a2
   23a6c:	00068993          	mv	s3,a3
/opt/riscv-gnu-toolchain/build-gcc-newlib-stage2/riscv32-vega-elf/libgcc/../../.././gcc/libgcc/soft-fp/adddf3.c:44 (discriminator 375)
   23a70:	06090e63          	beqz	s2,23aec <__adddf3+0x6cc>
/opt/riscv-gnu-toolchain/build-gcc-newlib-stage2/riscv32-vega-elf/libgcc/../../.././gcc/libgcc/soft-fp/adddf3.c:44 (discriminator 378)
   23a74:	00090513          	mv	a0,s2
   23a78:	38c020ef          	jal	25e04 <__clzsi2>
/opt/riscv-gnu-toolchain/build-gcc-newlib-stage2/riscv32-vega-elf/libgcc/../../.././gcc/libgcc/soft-fp/adddf3.c:44 (discriminator 392)
   23a7c:	ff850613          	addi	a2,a0,-8
/opt/riscv-gnu-toolchain/build-gcc-newlib-stage2/riscv32-vega-elf/libgcc/../../.././gcc/libgcc/soft-fp/adddf3.c:44 (discriminator 398)
   23a80:	02000793          	li	a5,32
   23a84:	40c787b3          	sub	a5,a5,a2
   23a88:	00c91933          	sll	s2,s2,a2
   23a8c:	00fad7b3          	srl	a5,s5,a5
   23a90:	0127e7b3          	or	a5,a5,s2
   23a94:	00ca9933          	sll	s2,s5,a2
/opt/riscv-gnu-toolchain/build-gcc-newlib-stage2/riscv32-vega-elf/libgcc/../../.././gcc/libgcc/soft-fp/adddf3.c:44 (discriminator 402)
   23a98:	0b464263          	blt	a2,s4,23b3c <__adddf3+0x71c>
/opt/riscv-gnu-toolchain/build-gcc-newlib-stage2/riscv32-vega-elf/libgcc/../../.././gcc/libgcc/soft-fp/adddf3.c:44 (discriminator 403)
   23a9c:	41460633          	sub	a2,a2,s4
   23aa0:	00160593          	addi	a1,a2,1 # 7ff00001 <_heap_end+0x7fed7041>
   23aa4:	01f00713          	li	a4,31
   23aa8:	02000693          	li	a3,32
   23aac:	06b74063          	blt	a4,a1,23b0c <__adddf3+0x6ec>
/opt/riscv-gnu-toolchain/build-gcc-newlib-stage2/riscv32-vega-elf/libgcc/../../.././gcc/libgcc/soft-fp/adddf3.c:44 (discriminator 405)
   23ab0:	40b686b3          	sub	a3,a3,a1
   23ab4:	00d79633          	sll	a2,a5,a3
   23ab8:	00b95733          	srl	a4,s2,a1
/opt/riscv-gnu-toolchain/build-gcc-newlib-stage2/riscv32-vega-elf/libgcc/../../.././gcc/libgcc/soft-fp/adddf3.c:44 (discriminator 410)
   23abc:	00d916b3          	sll	a3,s2,a3
/opt/riscv-gnu-toolchain/build-gcc-newlib-stage2/riscv32-vega-elf/libgcc/../../.././gcc/libgcc/soft-fp/adddf3.c:44 (discriminator 405)
   23ac0:	00e66633          	or	a2,a2,a4
/opt/riscv-gnu-toolchain/build-gcc-newlib-stage2/riscv32-vega-elf/libgcc/../../.././gcc/libgcc/soft-fp/adddf3.c:44 (discriminator 410)
   23ac4:	00d036b3          	snez	a3,a3
/opt/riscv-gnu-toolchain/build-gcc-newlib-stage2/riscv32-vega-elf/libgcc/../../.././gcc/libgcc/soft-fp/adddf3.c:44 (discriminator 412)
   23ac8:	00d66633          	or	a2,a2,a3
   23acc:	00b7d7b3          	srl	a5,a5,a1
   23ad0:	f21ff06f          	j	239f0 <__adddf3+0x5d0>
/opt/riscv-gnu-toolchain/build-gcc-newlib-stage2/riscv32-vega-elf/libgcc/../../.././gcc/libgcc/soft-fp/adddf3.c:44 (discriminator 367)
   23ad4:	01276533          	or	a0,a4,s2
   23ad8:	f8051ce3          	bnez	a0,23a70 <__adddf3+0x650>
/opt/riscv-gnu-toolchain/build-gcc-newlib-stage2/riscv32-vega-elf/libgcc/../../.././gcc/libgcc/soft-fp/adddf3.c:44 (discriminator 320)
   23adc:	00000993          	li	s3,0
   23ae0:	00000793          	li	a5,0
   23ae4:	00000a13          	li	s4,0
   23ae8:	9e5ff06f          	j	234cc <__adddf3+0xac>
/opt/riscv-gnu-toolchain/build-gcc-newlib-stage2/riscv32-vega-elf/libgcc/../../.././gcc/libgcc/soft-fp/adddf3.c:44 (discriminator 385)
   23aec:	000a8513          	mv	a0,s5
   23af0:	314020ef          	jal	25e04 <__clzsi2>
/opt/riscv-gnu-toolchain/build-gcc-newlib-stage2/riscv32-vega-elf/libgcc/../../.././gcc/libgcc/soft-fp/adddf3.c:44 (discriminator 392)
   23af4:	01850613          	addi	a2,a0,24
   23af8:	01f00793          	li	a5,31
   23afc:	f8c7d2e3          	bge	a5,a2,23a80 <__adddf3+0x660>
/opt/riscv-gnu-toolchain/build-gcc-newlib-stage2/riscv32-vega-elf/libgcc/../../.././gcc/libgcc/soft-fp/adddf3.c:44 (discriminator 394)
   23b00:	ff850793          	addi	a5,a0,-8
   23b04:	00fa97b3          	sll	a5,s5,a5
/opt/riscv-gnu-toolchain/build-gcc-newlib-stage2/riscv32-vega-elf/libgcc/../../.././gcc/libgcc/soft-fp/adddf3.c:44
   23b08:	f91ff06f          	j	23a98 <__adddf3+0x678>
/opt/riscv-gnu-toolchain/build-gcc-newlib-stage2/riscv32-vega-elf/libgcc/../../.././gcc/libgcc/soft-fp/adddf3.c:44 (discriminator 406)
   23b0c:	fe160613          	addi	a2,a2,-31
   23b10:	00c7d633          	srl	a2,a5,a2
/opt/riscv-gnu-toolchain/build-gcc-newlib-stage2/riscv32-vega-elf/libgcc/../../.././gcc/libgcc/soft-fp/adddf3.c:44 (discriminator 415)
   23b14:	00000713          	li	a4,0
/opt/riscv-gnu-toolchain/build-gcc-newlib-stage2/riscv32-vega-elf/libgcc/../../.././gcc/libgcc/soft-fp/adddf3.c:44 (discriminator 406)
   23b18:	00d58863          	beq	a1,a3,23b28 <__adddf3+0x708>
/opt/riscv-gnu-toolchain/build-gcc-newlib-stage2/riscv32-vega-elf/libgcc/../../.././gcc/libgcc/soft-fp/adddf3.c:44 (discriminator 414)
   23b1c:	04000713          	li	a4,64
   23b20:	40b70733          	sub	a4,a4,a1
   23b24:	00e79733          	sll	a4,a5,a4
/opt/riscv-gnu-toolchain/build-gcc-newlib-stage2/riscv32-vega-elf/libgcc/../../.././gcc/libgcc/soft-fp/adddf3.c:44 (discriminator 417)
   23b28:	00e96733          	or	a4,s2,a4
   23b2c:	00e03733          	snez	a4,a4
   23b30:	00e66633          	or	a2,a2,a4
   23b34:	00000793          	li	a5,0
   23b38:	eb9ff06f          	j	239f0 <__adddf3+0x5d0>
/opt/riscv-gnu-toolchain/build-gcc-newlib-stage2/riscv32-vega-elf/libgcc/../../.././gcc/libgcc/soft-fp/adddf3.c:44 (discriminator 404)
   23b3c:	ff800737          	lui	a4,0xff800
   23b40:	fff70713          	addi	a4,a4,-1 # ff7fffff <_heap_end+0xff7d703f>
   23b44:	40ca0a33          	sub	s4,s4,a2
   23b48:	00e7f7b3          	and	a5,a5,a4
   23b4c:	00090513          	mv	a0,s2
   23b50:	c29ff06f          	j	23778 <__adddf3+0x358>
/opt/riscv-gnu-toolchain/build-gcc-newlib-stage2/riscv32-vega-elf/libgcc/../../.././gcc/libgcc/soft-fp/adddf3.c:44 (discriminator 131)
   23b54:	00058793          	mv	a5,a1
   23b58:	e99ff06f          	j	239f0 <__adddf3+0x5d0>
/opt/riscv-gnu-toolchain/build-gcc-newlib-stage2/riscv32-vega-elf/libgcc/../../.././gcc/libgcc/soft-fp/adddf3.c:44 (discriminator 325)
   23b5c:	00050613          	mv	a2,a0
   23b60:	e91ff06f          	j	239f0 <__adddf3+0x5d0>
/opt/riscv-gnu-toolchain/build-gcc-newlib-stage2/riscv32-vega-elf/libgcc/../../.././gcc/libgcc/soft-fp/adddf3.c:44 (discriminator 154)
   23b64:	00058793          	mv	a5,a1
   23b68:	00060513          	mv	a0,a2
/opt/riscv-gnu-toolchain/build-gcc-newlib-stage2/riscv32-vega-elf/libgcc/../../.././gcc/libgcc/soft-fp/adddf3.c:44 (discriminator 348)
   23b6c:	00030a13          	mv	s4,t1
   23b70:	95dff06f          	j	234cc <__adddf3+0xac>
   23b74:	00070a13          	mv	s4,a4
   23b78:	00000793          	li	a5,0
   23b7c:	bcdff06f          	j	23748 <__adddf3+0x328>
/opt/riscv-gnu-toolchain/build-gcc-newlib-stage2/riscv32-vega-elf/libgcc/../../.././gcc/libgcc/soft-fp/adddf3.c:44 (discriminator 257)
   23b80:	00068993          	mv	s3,a3
/opt/riscv-gnu-toolchain/build-gcc-newlib-stage2/riscv32-vega-elf/libgcc/../../.././gcc/libgcc/soft-fp/adddf3.c:44 (discriminator 282)
   23b84:	00058793          	mv	a5,a1
   23b88:	00060513          	mv	a0,a2
/opt/riscv-gnu-toolchain/build-gcc-newlib-stage2/riscv32-vega-elf/libgcc/../../.././gcc/libgcc/soft-fp/adddf3.c:44 (discriminator 257)
   23b8c:	00088a13          	mv	s4,a7
   23b90:	93dff06f          	j	234cc <__adddf3+0xac>
/opt/riscv-gnu-toolchain/build-gcc-newlib-stage2/riscv32-vega-elf/libgcc/../../.././gcc/libgcc/soft-fp/adddf3.c:44 (discriminator 320)
   23b94:	00000993          	li	s3,0
   23b98:	00000793          	li	a5,0
   23b9c:	931ff06f          	j	234cc <__adddf3+0xac>

00023ba0 <__divdf3>:
__divdf3():
/opt/riscv-gnu-toolchain/build-gcc-newlib-stage2/riscv32-vega-elf/libgcc/../../.././gcc/libgcc/soft-fp/divdf3.c:34
   23ba0:	fd010113          	addi	sp,sp,-48
   23ba4:	01812423          	sw	s8,8(sp)
/opt/riscv-gnu-toolchain/build-gcc-newlib-stage2/riscv32-vega-elf/libgcc/../../.././gcc/libgcc/soft-fp/divdf3.c:42
   23ba8:	0145dc13          	srli	s8,a1,0x14
/opt/riscv-gnu-toolchain/build-gcc-newlib-stage2/riscv32-vega-elf/libgcc/../../.././gcc/libgcc/soft-fp/divdf3.c:34
   23bac:	02812423          	sw	s0,40(sp)
   23bb0:	01412c23          	sw	s4,24(sp)
   23bb4:	01512a23          	sw	s5,20(sp)
   23bb8:	01712623          	sw	s7,12(sp)
   23bbc:	01912223          	sw	s9,4(sp)
/opt/riscv-gnu-toolchain/build-gcc-newlib-stage2/riscv32-vega-elf/libgcc/../../.././gcc/libgcc/soft-fp/divdf3.c:42
   23bc0:	00c59413          	slli	s0,a1,0xc
/opt/riscv-gnu-toolchain/build-gcc-newlib-stage2/riscv32-vega-elf/libgcc/../../.././gcc/libgcc/soft-fp/divdf3.c:34
   23bc4:	02112623          	sw	ra,44(sp)
   23bc8:	02912223          	sw	s1,36(sp)
   23bcc:	03212023          	sw	s2,32(sp)
   23bd0:	01312e23          	sw	s3,28(sp)
   23bd4:	01612823          	sw	s6,16(sp)
/opt/riscv-gnu-toolchain/build-gcc-newlib-stage2/riscv32-vega-elf/libgcc/../../.././gcc/libgcc/soft-fp/divdf3.c:42
   23bd8:	7ffc7713          	andi	a4,s8,2047
/opt/riscv-gnu-toolchain/build-gcc-newlib-stage2/riscv32-vega-elf/libgcc/../../.././gcc/libgcc/soft-fp/divdf3.c:34
   23bdc:	00050b93          	mv	s7,a0
   23be0:	00060c93          	mv	s9,a2
   23be4:	00068a93          	mv	s5,a3
/opt/riscv-gnu-toolchain/build-gcc-newlib-stage2/riscv32-vega-elf/libgcc/../../.././gcc/libgcc/soft-fp/divdf3.c:42
   23be8:	00c45413          	srli	s0,s0,0xc
   23bec:	01f5da13          	srli	s4,a1,0x1f
   23bf0:	0a070063          	beqz	a4,23c90 <__divdf3+0xf0>
   23bf4:	7ff00793          	li	a5,2047
   23bf8:	10f70063          	beq	a4,a5,23cf8 <__divdf3+0x158>
/opt/riscv-gnu-toolchain/build-gcc-newlib-stage2/riscv32-vega-elf/libgcc/../../.././gcc/libgcc/soft-fp/divdf3.c:42 (discriminator 5)
   23bfc:	01d55b13          	srli	s6,a0,0x1d
   23c00:	00341413          	slli	s0,s0,0x3
   23c04:	008b6b33          	or	s6,s6,s0
   23c08:	008007b7          	lui	a5,0x800
   23c0c:	00fb6b33          	or	s6,s6,a5
   23c10:	00351493          	slli	s1,a0,0x3
/opt/riscv-gnu-toolchain/build-gcc-newlib-stage2/riscv32-vega-elf/libgcc/../../.././gcc/libgcc/soft-fp/divdf3.c:42 (discriminator 7)
   23c14:	c0170c13          	addi	s8,a4,-1023
/opt/riscv-gnu-toolchain/build-gcc-newlib-stage2/riscv32-vega-elf/libgcc/../../.././gcc/libgcc/soft-fp/divdf3.c:42 (discriminator 41)
   23c18:	00000b93          	li	s7,0
/opt/riscv-gnu-toolchain/build-gcc-newlib-stage2/riscv32-vega-elf/libgcc/../../.././gcc/libgcc/soft-fp/divdf3.c:43
   23c1c:	014ad693          	srli	a3,s5,0x14
   23c20:	00ca9413          	slli	s0,s5,0xc
   23c24:	7ff6f693          	andi	a3,a3,2047
   23c28:	00c45413          	srli	s0,s0,0xc
   23c2c:	01fada93          	srli	s5,s5,0x1f
   23c30:	10068263          	beqz	a3,23d34 <__divdf3+0x194>
   23c34:	7ff00793          	li	a5,2047
   23c38:	16f68663          	beq	a3,a5,23da4 <__divdf3+0x204>
/opt/riscv-gnu-toolchain/build-gcc-newlib-stage2/riscv32-vega-elf/libgcc/../../.././gcc/libgcc/soft-fp/divdf3.c:43 (discriminator 5)
   23c3c:	00341413          	slli	s0,s0,0x3
   23c40:	01dcd793          	srli	a5,s9,0x1d
   23c44:	0087e7b3          	or	a5,a5,s0
   23c48:	00800437          	lui	s0,0x800
   23c4c:	0087e433          	or	s0,a5,s0
   23c50:	003c9f13          	slli	t5,s9,0x3
/opt/riscv-gnu-toolchain/build-gcc-newlib-stage2/riscv32-vega-elf/libgcc/../../.././gcc/libgcc/soft-fp/divdf3.c:43 (discriminator 7)
   23c54:	c0168693          	addi	a3,a3,-1023
/opt/riscv-gnu-toolchain/build-gcc-newlib-stage2/riscv32-vega-elf/libgcc/../../.././gcc/libgcc/soft-fp/divdf3.c:43 (discriminator 41)
   23c58:	00000593          	li	a1,0
/opt/riscv-gnu-toolchain/build-gcc-newlib-stage2/riscv32-vega-elf/libgcc/../../.././gcc/libgcc/soft-fp/divdf3.c:44
   23c5c:	002b9793          	slli	a5,s7,0x2
   23c60:	00b7e7b3          	or	a5,a5,a1
   23c64:	40dc0733          	sub	a4,s8,a3
   23c68:	fff78793          	addi	a5,a5,-1 # 7fffff <_heap_end+0x7d703f>
   23c6c:	00e00693          	li	a3,14
   23c70:	015a4633          	xor	a2,s4,s5
   23c74:	16f6e063          	bltu	a3,a5,23dd4 <__divdf3+0x234>
   23c78:	000276b7          	lui	a3,0x27
   23c7c:	00279793          	slli	a5,a5,0x2
   23c80:	c0068693          	addi	a3,a3,-1024 # 26c00 <__fpclassifyd+0x370>
   23c84:	00d787b3          	add	a5,a5,a3
   23c88:	0007a783          	lw	a5,0(a5)
   23c8c:	00078067          	jr	a5
/opt/riscv-gnu-toolchain/build-gcc-newlib-stage2/riscv32-vega-elf/libgcc/../../.././gcc/libgcc/soft-fp/divdf3.c:42 (discriminator 2)
   23c90:	00a46b33          	or	s6,s0,a0
   23c94:	060b0e63          	beqz	s6,23d10 <__divdf3+0x170>
/opt/riscv-gnu-toolchain/build-gcc-newlib-stage2/riscv32-vega-elf/libgcc/../../.././gcc/libgcc/soft-fp/divdf3.c:42 (discriminator 13)
   23c98:	02040e63          	beqz	s0,23cd4 <__divdf3+0x134>
/opt/riscv-gnu-toolchain/build-gcc-newlib-stage2/riscv32-vega-elf/libgcc/../../.././gcc/libgcc/soft-fp/divdf3.c:42 (discriminator 17)
   23c9c:	00040513          	mv	a0,s0
   23ca0:	164020ef          	jal	25e04 <__clzsi2>
/opt/riscv-gnu-toolchain/build-gcc-newlib-stage2/riscv32-vega-elf/libgcc/../../.././gcc/libgcc/soft-fp/divdf3.c:42 (discriminator 31)
   23ca4:	ff550793          	addi	a5,a0,-11
/opt/riscv-gnu-toolchain/build-gcc-newlib-stage2/riscv32-vega-elf/libgcc/../../.././gcc/libgcc/soft-fp/divdf3.c:42 (discriminator 37)
   23ca8:	01d00b13          	li	s6,29
/opt/riscv-gnu-toolchain/build-gcc-newlib-stage2/riscv32-vega-elf/libgcc/../../.././gcc/libgcc/soft-fp/divdf3.c:42 (discriminator 32)
   23cac:	ff850713          	addi	a4,a0,-8
/opt/riscv-gnu-toolchain/build-gcc-newlib-stage2/riscv32-vega-elf/libgcc/../../.././gcc/libgcc/soft-fp/divdf3.c:42 (discriminator 37)
   23cb0:	40fb0b33          	sub	s6,s6,a5
   23cb4:	00e41433          	sll	s0,s0,a4
   23cb8:	016bdb33          	srl	s6,s7,s6
   23cbc:	008b6b33          	or	s6,s6,s0
   23cc0:	00eb9433          	sll	s0,s7,a4
/opt/riscv-gnu-toolchain/build-gcc-newlib-stage2/riscv32-vega-elf/libgcc/../../.././gcc/libgcc/soft-fp/divdf3.c:42 (discriminator 41)
   23cc4:	c0d00713          	li	a4,-1011
   23cc8:	40a70c33          	sub	s8,a4,a0
   23ccc:	00040493          	mv	s1,s0
   23cd0:	f49ff06f          	j	23c18 <__divdf3+0x78>
/opt/riscv-gnu-toolchain/build-gcc-newlib-stage2/riscv32-vega-elf/libgcc/../../.././gcc/libgcc/soft-fp/divdf3.c:42 (discriminator 24)
   23cd4:	130020ef          	jal	25e04 <__clzsi2>
   23cd8:	00050b13          	mv	s6,a0
/opt/riscv-gnu-toolchain/build-gcc-newlib-stage2/riscv32-vega-elf/libgcc/../../.././gcc/libgcc/soft-fp/divdf3.c:42 (discriminator 31)
   23cdc:	015b0793          	addi	a5,s6,21
   23ce0:	01c00713          	li	a4,28
/opt/riscv-gnu-toolchain/build-gcc-newlib-stage2/riscv32-vega-elf/libgcc/../../.././gcc/libgcc/soft-fp/divdf3.c:42 (discriminator 30)
   23ce4:	02050513          	addi	a0,a0,32
/opt/riscv-gnu-toolchain/build-gcc-newlib-stage2/riscv32-vega-elf/libgcc/../../.././gcc/libgcc/soft-fp/divdf3.c:42 (discriminator 31)
   23ce8:	fcf750e3          	bge	a4,a5,23ca8 <__divdf3+0x108>
/opt/riscv-gnu-toolchain/build-gcc-newlib-stage2/riscv32-vega-elf/libgcc/../../.././gcc/libgcc/soft-fp/divdf3.c:42 (discriminator 33)
   23cec:	ff8b0b13          	addi	s6,s6,-8
   23cf0:	016b9b33          	sll	s6,s7,s6
/opt/riscv-gnu-toolchain/build-gcc-newlib-stage2/riscv32-vega-elf/libgcc/../../.././gcc/libgcc/soft-fp/divdf3.c:42
   23cf4:	fd1ff06f          	j	23cc4 <__divdf3+0x124>
/opt/riscv-gnu-toolchain/build-gcc-newlib-stage2/riscv32-vega-elf/libgcc/../../.././gcc/libgcc/soft-fp/divdf3.c:42 (discriminator 3)
   23cf8:	00a46b33          	or	s6,s0,a0
   23cfc:	020b1263          	bnez	s6,23d20 <__divdf3+0x180>
/opt/riscv-gnu-toolchain/build-gcc-newlib-stage2/riscv32-vega-elf/libgcc/../../.././gcc/libgcc/soft-fp/divdf3.c:42
   23d00:	00000493          	li	s1,0
   23d04:	00070c13          	mv	s8,a4
/opt/riscv-gnu-toolchain/build-gcc-newlib-stage2/riscv32-vega-elf/libgcc/../../.././gcc/libgcc/soft-fp/divdf3.c:42 (discriminator 43)
   23d08:	00200b93          	li	s7,2
   23d0c:	f11ff06f          	j	23c1c <__divdf3+0x7c>
/opt/riscv-gnu-toolchain/build-gcc-newlib-stage2/riscv32-vega-elf/libgcc/../../.././gcc/libgcc/soft-fp/divdf3.c:42
   23d10:	00000493          	li	s1,0
   23d14:	00000c13          	li	s8,0
/opt/riscv-gnu-toolchain/build-gcc-newlib-stage2/riscv32-vega-elf/libgcc/../../.././gcc/libgcc/soft-fp/divdf3.c:42 (discriminator 9)
   23d18:	00100b93          	li	s7,1
   23d1c:	f01ff06f          	j	23c1c <__divdf3+0x7c>
   23d20:	00050493          	mv	s1,a0
/opt/riscv-gnu-toolchain/build-gcc-newlib-stage2/riscv32-vega-elf/libgcc/../../.././gcc/libgcc/soft-fp/divdf3.c:42
   23d24:	00040b13          	mv	s6,s0
   23d28:	00070c13          	mv	s8,a4
/opt/riscv-gnu-toolchain/build-gcc-newlib-stage2/riscv32-vega-elf/libgcc/../../.././gcc/libgcc/soft-fp/divdf3.c:42 (discriminator 44)
   23d2c:	00300b93          	li	s7,3
   23d30:	eedff06f          	j	23c1c <__divdf3+0x7c>
/opt/riscv-gnu-toolchain/build-gcc-newlib-stage2/riscv32-vega-elf/libgcc/../../.././gcc/libgcc/soft-fp/divdf3.c:43 (discriminator 2)
   23d34:	01946f33          	or	t5,s0,s9
   23d38:	080f0063          	beqz	t5,23db8 <__divdf3+0x218>
/opt/riscv-gnu-toolchain/build-gcc-newlib-stage2/riscv32-vega-elf/libgcc/../../.././gcc/libgcc/soft-fp/divdf3.c:43 (discriminator 13)
   23d3c:	04040063          	beqz	s0,23d7c <__divdf3+0x1dc>
/opt/riscv-gnu-toolchain/build-gcc-newlib-stage2/riscv32-vega-elf/libgcc/../../.././gcc/libgcc/soft-fp/divdf3.c:43 (discriminator 17)
   23d40:	00040513          	mv	a0,s0
   23d44:	0c0020ef          	jal	25e04 <__clzsi2>
/opt/riscv-gnu-toolchain/build-gcc-newlib-stage2/riscv32-vega-elf/libgcc/../../.././gcc/libgcc/soft-fp/divdf3.c:43 (discriminator 31)
   23d48:	ff550713          	addi	a4,a0,-11
/opt/riscv-gnu-toolchain/build-gcc-newlib-stage2/riscv32-vega-elf/libgcc/../../.././gcc/libgcc/soft-fp/divdf3.c:43 (discriminator 37)
   23d4c:	01d00793          	li	a5,29
/opt/riscv-gnu-toolchain/build-gcc-newlib-stage2/riscv32-vega-elf/libgcc/../../.././gcc/libgcc/soft-fp/divdf3.c:43 (discriminator 32)
   23d50:	ff850693          	addi	a3,a0,-8
/opt/riscv-gnu-toolchain/build-gcc-newlib-stage2/riscv32-vega-elf/libgcc/../../.././gcc/libgcc/soft-fp/divdf3.c:43 (discriminator 37)
   23d54:	40e787b3          	sub	a5,a5,a4
   23d58:	00d41433          	sll	s0,s0,a3
   23d5c:	00fcd7b3          	srl	a5,s9,a5
   23d60:	0087e7b3          	or	a5,a5,s0
   23d64:	00dc9433          	sll	s0,s9,a3
/opt/riscv-gnu-toolchain/build-gcc-newlib-stage2/riscv32-vega-elf/libgcc/../../.././gcc/libgcc/soft-fp/divdf3.c:43 (discriminator 41)
   23d68:	c0d00693          	li	a3,-1011
   23d6c:	00040f13          	mv	t5,s0
   23d70:	40a686b3          	sub	a3,a3,a0
   23d74:	00078413          	mv	s0,a5
   23d78:	ee1ff06f          	j	23c58 <__divdf3+0xb8>
/opt/riscv-gnu-toolchain/build-gcc-newlib-stage2/riscv32-vega-elf/libgcc/../../.././gcc/libgcc/soft-fp/divdf3.c:43 (discriminator 24)
   23d7c:	000c8513          	mv	a0,s9
   23d80:	084020ef          	jal	25e04 <__clzsi2>
   23d84:	00050793          	mv	a5,a0
/opt/riscv-gnu-toolchain/build-gcc-newlib-stage2/riscv32-vega-elf/libgcc/../../.././gcc/libgcc/soft-fp/divdf3.c:43 (discriminator 31)
   23d88:	01578713          	addi	a4,a5,21
   23d8c:	01c00693          	li	a3,28
/opt/riscv-gnu-toolchain/build-gcc-newlib-stage2/riscv32-vega-elf/libgcc/../../.././gcc/libgcc/soft-fp/divdf3.c:43 (discriminator 30)
   23d90:	02050513          	addi	a0,a0,32
/opt/riscv-gnu-toolchain/build-gcc-newlib-stage2/riscv32-vega-elf/libgcc/../../.././gcc/libgcc/soft-fp/divdf3.c:43 (discriminator 31)
   23d94:	fae6dce3          	bge	a3,a4,23d4c <__divdf3+0x1ac>
/opt/riscv-gnu-toolchain/build-gcc-newlib-stage2/riscv32-vega-elf/libgcc/../../.././gcc/libgcc/soft-fp/divdf3.c:43 (discriminator 33)
   23d98:	ff878793          	addi	a5,a5,-8
   23d9c:	00fc97b3          	sll	a5,s9,a5
/opt/riscv-gnu-toolchain/build-gcc-newlib-stage2/riscv32-vega-elf/libgcc/../../.././gcc/libgcc/soft-fp/divdf3.c:43
   23da0:	fc9ff06f          	j	23d68 <__divdf3+0x1c8>
/opt/riscv-gnu-toolchain/build-gcc-newlib-stage2/riscv32-vega-elf/libgcc/../../.././gcc/libgcc/soft-fp/divdf3.c:43 (discriminator 3)
   23da4:	01946f33          	or	t5,s0,s9
   23da8:	020f1063          	bnez	t5,23dc8 <__divdf3+0x228>
/opt/riscv-gnu-toolchain/build-gcc-newlib-stage2/riscv32-vega-elf/libgcc/../../.././gcc/libgcc/soft-fp/divdf3.c:43
   23dac:	00000413          	li	s0,0
/opt/riscv-gnu-toolchain/build-gcc-newlib-stage2/riscv32-vega-elf/libgcc/../../.././gcc/libgcc/soft-fp/divdf3.c:43 (discriminator 43)
   23db0:	00200593          	li	a1,2
   23db4:	ea9ff06f          	j	23c5c <__divdf3+0xbc>
/opt/riscv-gnu-toolchain/build-gcc-newlib-stage2/riscv32-vega-elf/libgcc/../../.././gcc/libgcc/soft-fp/divdf3.c:43
   23db8:	00000413          	li	s0,0
   23dbc:	00000693          	li	a3,0
/opt/riscv-gnu-toolchain/build-gcc-newlib-stage2/riscv32-vega-elf/libgcc/../../.././gcc/libgcc/soft-fp/divdf3.c:43 (discriminator 9)
   23dc0:	00100593          	li	a1,1
   23dc4:	e99ff06f          	j	23c5c <__divdf3+0xbc>
/opt/riscv-gnu-toolchain/build-gcc-newlib-stage2/riscv32-vega-elf/libgcc/../../.././gcc/libgcc/soft-fp/divdf3.c:43
   23dc8:	000c8f13          	mv	t5,s9
/opt/riscv-gnu-toolchain/build-gcc-newlib-stage2/riscv32-vega-elf/libgcc/../../.././gcc/libgcc/soft-fp/divdf3.c:43 (discriminator 44)
   23dcc:	00300593          	li	a1,3
   23dd0:	e8dff06f          	j	23c5c <__divdf3+0xbc>
/opt/riscv-gnu-toolchain/build-gcc-newlib-stage2/riscv32-vega-elf/libgcc/../../.././gcc/libgcc/soft-fp/divdf3.c:44 (discriminator 2)
   23dd4:	01646663          	bltu	s0,s6,23de0 <__divdf3+0x240>
/opt/riscv-gnu-toolchain/build-gcc-newlib-stage2/riscv32-vega-elf/libgcc/../../.././gcc/libgcc/soft-fp/divdf3.c:44 (discriminator 11)
   23dd8:	348b1a63          	bne	s6,s0,2412c <__divdf3+0x58c>
/opt/riscv-gnu-toolchain/build-gcc-newlib-stage2/riscv32-vega-elf/libgcc/../../.././gcc/libgcc/soft-fp/divdf3.c:44 (discriminator 12)
   23ddc:	35e4e863          	bltu	s1,t5,2412c <__divdf3+0x58c>
/opt/riscv-gnu-toolchain/build-gcc-newlib-stage2/riscv32-vega-elf/libgcc/../../.././gcc/libgcc/soft-fp/divdf3.c:44 (discriminator 14)
   23de0:	01fb1693          	slli	a3,s6,0x1f
   23de4:	0014d793          	srli	a5,s1,0x1
   23de8:	01f49313          	slli	t1,s1,0x1f
   23dec:	001b5b13          	srli	s6,s6,0x1
   23df0:	00f6e4b3          	or	s1,a3,a5
/opt/riscv-gnu-toolchain/build-gcc-newlib-stage2/riscv32-vega-elf/libgcc/../../.././gcc/libgcc/soft-fp/divdf3.c:44 (discriminator 19)
   23df4:	00841813          	slli	a6,s0,0x8
   23df8:	018f5693          	srli	a3,t5,0x18
   23dfc:	0106e6b3          	or	a3,a3,a6
/opt/riscv-gnu-toolchain/build-gcc-newlib-stage2/riscv32-vega-elf/libgcc/../../.././gcc/libgcc/soft-fp/divdf3.c:44 (discriminator 21)
   23e00:	01085813          	srli	a6,a6,0x10
   23e04:	030b5eb3          	divu	t4,s6,a6
   23e08:	01069893          	slli	a7,a3,0x10
   23e0c:	0108d893          	srli	a7,a7,0x10
   23e10:	0104d793          	srli	a5,s1,0x10
/opt/riscv-gnu-toolchain/build-gcc-newlib-stage2/riscv32-vega-elf/libgcc/../../.././gcc/libgcc/soft-fp/divdf3.c:44 (discriminator 19)
   23e14:	008f1593          	slli	a1,t5,0x8
/opt/riscv-gnu-toolchain/build-gcc-newlib-stage2/riscv32-vega-elf/libgcc/../../.././gcc/libgcc/soft-fp/divdf3.c:44 (discriminator 21)
   23e18:	030b7b33          	remu	s6,s6,a6
   23e1c:	000e8513          	mv	a0,t4
   23e20:	03d88e33          	mul	t3,a7,t4
   23e24:	010b1b13          	slli	s6,s6,0x10
   23e28:	0167e7b3          	or	a5,a5,s6
   23e2c:	01c7fe63          	bgeu	a5,t3,23e48 <__divdf3+0x2a8>
/opt/riscv-gnu-toolchain/build-gcc-newlib-stage2/riscv32-vega-elf/libgcc/../../.././gcc/libgcc/soft-fp/divdf3.c:44 (discriminator 22)
   23e30:	00f687b3          	add	a5,a3,a5
   23e34:	fffe8513          	addi	a0,t4,-1
   23e38:	00d7e863          	bltu	a5,a3,23e48 <__divdf3+0x2a8>
/opt/riscv-gnu-toolchain/build-gcc-newlib-stage2/riscv32-vega-elf/libgcc/../../.././gcc/libgcc/soft-fp/divdf3.c:44 (discriminator 24)
   23e3c:	01c7f663          	bgeu	a5,t3,23e48 <__divdf3+0x2a8>
/opt/riscv-gnu-toolchain/build-gcc-newlib-stage2/riscv32-vega-elf/libgcc/../../.././gcc/libgcc/soft-fp/divdf3.c:44 (discriminator 26)
   23e40:	ffee8513          	addi	a0,t4,-2
   23e44:	00d787b3          	add	a5,a5,a3
/opt/riscv-gnu-toolchain/build-gcc-newlib-stage2/riscv32-vega-elf/libgcc/../../.././gcc/libgcc/soft-fp/divdf3.c:44 (discriminator 28)
   23e48:	41c787b3          	sub	a5,a5,t3
   23e4c:	0307deb3          	divu	t4,a5,a6
   23e50:	01049493          	slli	s1,s1,0x10
   23e54:	0104d493          	srli	s1,s1,0x10
   23e58:	0307f7b3          	remu	a5,a5,a6
   23e5c:	03d88e33          	mul	t3,a7,t4
   23e60:	01079793          	slli	a5,a5,0x10
   23e64:	00f4e4b3          	or	s1,s1,a5
   23e68:	000e8793          	mv	a5,t4
   23e6c:	01c4fe63          	bgeu	s1,t3,23e88 <__divdf3+0x2e8>
/opt/riscv-gnu-toolchain/build-gcc-newlib-stage2/riscv32-vega-elf/libgcc/../../.././gcc/libgcc/soft-fp/divdf3.c:44 (discriminator 29)
   23e70:	009684b3          	add	s1,a3,s1
   23e74:	fffe8793          	addi	a5,t4,-1
   23e78:	00d4e863          	bltu	s1,a3,23e88 <__divdf3+0x2e8>
/opt/riscv-gnu-toolchain/build-gcc-newlib-stage2/riscv32-vega-elf/libgcc/../../.././gcc/libgcc/soft-fp/divdf3.c:44 (discriminator 31)
   23e7c:	01c4f663          	bgeu	s1,t3,23e88 <__divdf3+0x2e8>
/opt/riscv-gnu-toolchain/build-gcc-newlib-stage2/riscv32-vega-elf/libgcc/../../.././gcc/libgcc/soft-fp/divdf3.c:44 (discriminator 33)
   23e80:	ffee8793          	addi	a5,t4,-2
   23e84:	00d484b3          	add	s1,s1,a3
/opt/riscv-gnu-toolchain/build-gcc-newlib-stage2/riscv32-vega-elf/libgcc/../../.././gcc/libgcc/soft-fp/divdf3.c:44 (discriminator 35)
   23e88:	01051513          	slli	a0,a0,0x10
   23e8c:	00f56533          	or	a0,a0,a5
   23e90:	01051793          	slli	a5,a0,0x10
   23e94:	01059e93          	slli	t4,a1,0x10
   23e98:	01055f93          	srli	t6,a0,0x10
   23e9c:	0107d793          	srli	a5,a5,0x10
   23ea0:	010ede93          	srli	t4,t4,0x10
   23ea4:	41c484b3          	sub	s1,s1,t3
   23ea8:	0105de13          	srli	t3,a1,0x10
   23eac:	03d782b3          	mul	t0,a5,t4
   23eb0:	03df83b3          	mul	t2,t6,t4
   23eb4:	02fe07b3          	mul	a5,t3,a5
   23eb8:	00778f33          	add	t5,a5,t2
   23ebc:	0102d793          	srli	a5,t0,0x10
   23ec0:	01e787b3          	add	a5,a5,t5
   23ec4:	03cf8fb3          	mul	t6,t6,t3
   23ec8:	0077f663          	bgeu	a5,t2,23ed4 <__divdf3+0x334>
/opt/riscv-gnu-toolchain/build-gcc-newlib-stage2/riscv32-vega-elf/libgcc/../../.././gcc/libgcc/soft-fp/divdf3.c:44 (discriminator 36)
   23ecc:	00010f37          	lui	t5,0x10
   23ed0:	01ef8fb3          	add	t6,t6,t5
/opt/riscv-gnu-toolchain/build-gcc-newlib-stage2/riscv32-vega-elf/libgcc/../../.././gcc/libgcc/soft-fp/divdf3.c:44 (discriminator 38)
   23ed4:	0107df13          	srli	t5,a5,0x10
   23ed8:	01029293          	slli	t0,t0,0x10
   23edc:	01079793          	slli	a5,a5,0x10
   23ee0:	0102d293          	srli	t0,t0,0x10
   23ee4:	01ff0f33          	add	t5,t5,t6
   23ee8:	005787b3          	add	a5,a5,t0
   23eec:	01e4e863          	bltu	s1,t5,23efc <__divdf3+0x35c>
/opt/riscv-gnu-toolchain/build-gcc-newlib-stage2/riscv32-vega-elf/libgcc/../../.././gcc/libgcc/soft-fp/divdf3.c:44 (discriminator 35)
   23ef0:	00050413          	mv	s0,a0
/opt/riscv-gnu-toolchain/build-gcc-newlib-stage2/riscv32-vega-elf/libgcc/../../.././gcc/libgcc/soft-fp/divdf3.c:44 (discriminator 40)
   23ef4:	05e49863          	bne	s1,t5,23f44 <__divdf3+0x3a4>
/opt/riscv-gnu-toolchain/build-gcc-newlib-stage2/riscv32-vega-elf/libgcc/../../.././gcc/libgcc/soft-fp/divdf3.c:44 (discriminator 41)
   23ef8:	04f37663          	bgeu	t1,a5,23f44 <__divdf3+0x3a4>
/opt/riscv-gnu-toolchain/build-gcc-newlib-stage2/riscv32-vega-elf/libgcc/../../.././gcc/libgcc/soft-fp/divdf3.c:44 (discriminator 43)
   23efc:	00b30fb3          	add	t6,t1,a1
   23f00:	006fb2b3          	sltu	t0,t6,t1
   23f04:	00d283b3          	add	t2,t0,a3
   23f08:	007484b3          	add	s1,s1,t2
   23f0c:	fff50413          	addi	s0,a0,-1
   23f10:	000f8313          	mv	t1,t6
   23f14:	0096e663          	bltu	a3,s1,23f20 <__divdf3+0x380>
/opt/riscv-gnu-toolchain/build-gcc-newlib-stage2/riscv32-vega-elf/libgcc/../../.././gcc/libgcc/soft-fp/divdf3.c:44 (discriminator 46)
   23f18:	02969663          	bne	a3,s1,23f44 <__divdf3+0x3a4>
/opt/riscv-gnu-toolchain/build-gcc-newlib-stage2/riscv32-vega-elf/libgcc/../../.././gcc/libgcc/soft-fp/divdf3.c:44 (discriminator 47)
   23f1c:	02029463          	bnez	t0,23f44 <__divdf3+0x3a4>
/opt/riscv-gnu-toolchain/build-gcc-newlib-stage2/riscv32-vega-elf/libgcc/../../.././gcc/libgcc/soft-fp/divdf3.c:44 (discriminator 49)
   23f20:	01e4e663          	bltu	s1,t5,23f2c <__divdf3+0x38c>
/opt/riscv-gnu-toolchain/build-gcc-newlib-stage2/riscv32-vega-elf/libgcc/../../.././gcc/libgcc/soft-fp/divdf3.c:44 (discriminator 52)
   23f24:	029f1063          	bne	t5,s1,23f44 <__divdf3+0x3a4>
/opt/riscv-gnu-toolchain/build-gcc-newlib-stage2/riscv32-vega-elf/libgcc/../../.././gcc/libgcc/soft-fp/divdf3.c:44 (discriminator 53)
   23f28:	00fffe63          	bgeu	t6,a5,23f44 <__divdf3+0x3a4>
/opt/riscv-gnu-toolchain/build-gcc-newlib-stage2/riscv32-vega-elf/libgcc/../../.././gcc/libgcc/soft-fp/divdf3.c:44 (discriminator 55)
   23f2c:	01f58fb3          	add	t6,a1,t6
   23f30:	ffe50413          	addi	s0,a0,-2
   23f34:	00bfb533          	sltu	a0,t6,a1
   23f38:	00d50533          	add	a0,a0,a3
   23f3c:	000f8313          	mv	t1,t6
   23f40:	00a484b3          	add	s1,s1,a0
/opt/riscv-gnu-toolchain/build-gcc-newlib-stage2/riscv32-vega-elf/libgcc/../../.././gcc/libgcc/soft-fp/divdf3.c:44 (discriminator 57)
   23f44:	40f30533          	sub	a0,t1,a5
   23f48:	41e484b3          	sub	s1,s1,t5
   23f4c:	00a33333          	sltu	t1,t1,a0
   23f50:	406484b3          	sub	s1,s1,t1
/opt/riscv-gnu-toolchain/build-gcc-newlib-stage2/riscv32-vega-elf/libgcc/../../.././gcc/libgcc/soft-fp/divdf3.c:44 (discriminator 58)
   23f54:	fff00f13          	li	t5,-1
/opt/riscv-gnu-toolchain/build-gcc-newlib-stage2/riscv32-vega-elf/libgcc/../../.././gcc/libgcc/soft-fp/divdf3.c:44 (discriminator 57)
   23f58:	12968263          	beq	a3,s1,2407c <__divdf3+0x4dc>
/opt/riscv-gnu-toolchain/build-gcc-newlib-stage2/riscv32-vega-elf/libgcc/../../.././gcc/libgcc/soft-fp/divdf3.c:44 (discriminator 59)
   23f5c:	0304dfb3          	divu	t6,s1,a6
   23f60:	01055793          	srli	a5,a0,0x10
   23f64:	0304f4b3          	remu	s1,s1,a6
   23f68:	000f8313          	mv	t1,t6
   23f6c:	03f88f33          	mul	t5,a7,t6
   23f70:	01049493          	slli	s1,s1,0x10
   23f74:	0097e7b3          	or	a5,a5,s1
   23f78:	01e7fe63          	bgeu	a5,t5,23f94 <__divdf3+0x3f4>
/opt/riscv-gnu-toolchain/build-gcc-newlib-stage2/riscv32-vega-elf/libgcc/../../.././gcc/libgcc/soft-fp/divdf3.c:44 (discriminator 61)
   23f7c:	00f687b3          	add	a5,a3,a5
   23f80:	ffff8313          	addi	t1,t6,-1
   23f84:	00d7e863          	bltu	a5,a3,23f94 <__divdf3+0x3f4>
/opt/riscv-gnu-toolchain/build-gcc-newlib-stage2/riscv32-vega-elf/libgcc/../../.././gcc/libgcc/soft-fp/divdf3.c:44 (discriminator 63)
   23f88:	01e7f663          	bgeu	a5,t5,23f94 <__divdf3+0x3f4>
/opt/riscv-gnu-toolchain/build-gcc-newlib-stage2/riscv32-vega-elf/libgcc/../../.././gcc/libgcc/soft-fp/divdf3.c:44 (discriminator 65)
   23f8c:	ffef8313          	addi	t1,t6,-2
   23f90:	00d787b3          	add	a5,a5,a3
/opt/riscv-gnu-toolchain/build-gcc-newlib-stage2/riscv32-vega-elf/libgcc/../../.././gcc/libgcc/soft-fp/divdf3.c:44 (discriminator 67)
   23f94:	41e787b3          	sub	a5,a5,t5
   23f98:	0307df33          	divu	t5,a5,a6
   23f9c:	01051513          	slli	a0,a0,0x10
   23fa0:	01055513          	srli	a0,a0,0x10
   23fa4:	0307f7b3          	remu	a5,a5,a6
   23fa8:	000f0813          	mv	a6,t5
   23fac:	03e888b3          	mul	a7,a7,t5
   23fb0:	01079793          	slli	a5,a5,0x10
   23fb4:	00f567b3          	or	a5,a0,a5
   23fb8:	0117fe63          	bgeu	a5,a7,23fd4 <__divdf3+0x434>
/opt/riscv-gnu-toolchain/build-gcc-newlib-stage2/riscv32-vega-elf/libgcc/../../.././gcc/libgcc/soft-fp/divdf3.c:44 (discriminator 68)
   23fbc:	00f687b3          	add	a5,a3,a5
   23fc0:	ffff0813          	addi	a6,t5,-1 # ffff <__heap_size+0xdfff>
   23fc4:	00d7e863          	bltu	a5,a3,23fd4 <__divdf3+0x434>
/opt/riscv-gnu-toolchain/build-gcc-newlib-stage2/riscv32-vega-elf/libgcc/../../.././gcc/libgcc/soft-fp/divdf3.c:44 (discriminator 70)
   23fc8:	0117f663          	bgeu	a5,a7,23fd4 <__divdf3+0x434>
/opt/riscv-gnu-toolchain/build-gcc-newlib-stage2/riscv32-vega-elf/libgcc/../../.././gcc/libgcc/soft-fp/divdf3.c:44 (discriminator 72)
   23fcc:	ffef0813          	addi	a6,t5,-2
   23fd0:	00d787b3          	add	a5,a5,a3
/opt/riscv-gnu-toolchain/build-gcc-newlib-stage2/riscv32-vega-elf/libgcc/../../.././gcc/libgcc/soft-fp/divdf3.c:44 (discriminator 74)
   23fd4:	01031513          	slli	a0,t1,0x10
   23fd8:	01056533          	or	a0,a0,a6
   23fdc:	01051813          	slli	a6,a0,0x10
   23fe0:	01085813          	srli	a6,a6,0x10
   23fe4:	01055313          	srli	t1,a0,0x10
   23fe8:	030e8f33          	mul	t5,t4,a6
   23fec:	411787b3          	sub	a5,a5,a7
   23ff0:	03d30eb3          	mul	t4,t1,t4
   23ff4:	026e0333          	mul	t1,t3,t1
   23ff8:	030e0e33          	mul	t3,t3,a6
   23ffc:	010f5813          	srli	a6,t5,0x10
   24000:	01de0e33          	add	t3,t3,t4
   24004:	01c80833          	add	a6,a6,t3
   24008:	01d87663          	bgeu	a6,t4,24014 <__divdf3+0x474>
/opt/riscv-gnu-toolchain/build-gcc-newlib-stage2/riscv32-vega-elf/libgcc/../../.././gcc/libgcc/soft-fp/divdf3.c:44 (discriminator 75)
   2400c:	000108b7          	lui	a7,0x10
   24010:	01130333          	add	t1,t1,a7
/opt/riscv-gnu-toolchain/build-gcc-newlib-stage2/riscv32-vega-elf/libgcc/../../.././gcc/libgcc/soft-fp/divdf3.c:44 (discriminator 77)
   24014:	01085893          	srli	a7,a6,0x10
   24018:	010f1f13          	slli	t5,t5,0x10
   2401c:	01081813          	slli	a6,a6,0x10
   24020:	010f5f13          	srli	t5,t5,0x10
   24024:	006888b3          	add	a7,a7,t1
   24028:	01e80833          	add	a6,a6,t5
   2402c:	0117e863          	bltu	a5,a7,2403c <__divdf3+0x49c>
/opt/riscv-gnu-toolchain/build-gcc-newlib-stage2/riscv32-vega-elf/libgcc/../../.././gcc/libgcc/soft-fp/divdf3.c:44 (discriminator 74)
   24030:	00050f13          	mv	t5,a0
/opt/riscv-gnu-toolchain/build-gcc-newlib-stage2/riscv32-vega-elf/libgcc/../../.././gcc/libgcc/soft-fp/divdf3.c:44 (discriminator 79)
   24034:	05179263          	bne	a5,a7,24078 <__divdf3+0x4d8>
/opt/riscv-gnu-toolchain/build-gcc-newlib-stage2/riscv32-vega-elf/libgcc/../../.././gcc/libgcc/soft-fp/divdf3.c:44 (discriminator 80)
   24038:	04080263          	beqz	a6,2407c <__divdf3+0x4dc>
/opt/riscv-gnu-toolchain/build-gcc-newlib-stage2/riscv32-vega-elf/libgcc/../../.././gcc/libgcc/soft-fp/divdf3.c:44 (discriminator 82)
   2403c:	00f687b3          	add	a5,a3,a5
   24040:	fff50f13          	addi	t5,a0,-1
   24044:	00078313          	mv	t1,a5
/opt/riscv-gnu-toolchain/build-gcc-newlib-stage2/riscv32-vega-elf/libgcc/../../.././gcc/libgcc/soft-fp/divdf3.c:44 (discriminator 85)
   24048:	02d7e463          	bltu	a5,a3,24070 <__divdf3+0x4d0>
/opt/riscv-gnu-toolchain/build-gcc-newlib-stage2/riscv32-vega-elf/libgcc/../../.././gcc/libgcc/soft-fp/divdf3.c:44 (discriminator 88)
   2404c:	0117e663          	bltu	a5,a7,24058 <__divdf3+0x4b8>
/opt/riscv-gnu-toolchain/build-gcc-newlib-stage2/riscv32-vega-elf/libgcc/../../.././gcc/libgcc/soft-fp/divdf3.c:44 (discriminator 91)
   24050:	03179463          	bne	a5,a7,24078 <__divdf3+0x4d8>
/opt/riscv-gnu-toolchain/build-gcc-newlib-stage2/riscv32-vega-elf/libgcc/../../.././gcc/libgcc/soft-fp/divdf3.c:44 (discriminator 92)
   24054:	0305f063          	bgeu	a1,a6,24074 <__divdf3+0x4d4>
/opt/riscv-gnu-toolchain/build-gcc-newlib-stage2/riscv32-vega-elf/libgcc/../../.././gcc/libgcc/soft-fp/divdf3.c:44 (discriminator 94)
   24058:	ffe50f13          	addi	t5,a0,-2
   2405c:	00159513          	slli	a0,a1,0x1
   24060:	00b53333          	sltu	t1,a0,a1
   24064:	00d30333          	add	t1,t1,a3
   24068:	00678333          	add	t1,a5,t1
   2406c:	00050593          	mv	a1,a0
/opt/riscv-gnu-toolchain/build-gcc-newlib-stage2/riscv32-vega-elf/libgcc/../../.././gcc/libgcc/soft-fp/divdf3.c:44 (discriminator 96)
   24070:	01131463          	bne	t1,a7,24078 <__divdf3+0x4d8>
/opt/riscv-gnu-toolchain/build-gcc-newlib-stage2/riscv32-vega-elf/libgcc/../../.././gcc/libgcc/soft-fp/divdf3.c:44 (discriminator 98)
   24074:	00b80463          	beq	a6,a1,2407c <__divdf3+0x4dc>
/opt/riscv-gnu-toolchain/build-gcc-newlib-stage2/riscv32-vega-elf/libgcc/../../.././gcc/libgcc/soft-fp/divdf3.c:44 (discriminator 99)
   24078:	001f6f13          	ori	t5,t5,1
/opt/riscv-gnu-toolchain/build-gcc-newlib-stage2/riscv32-vega-elf/libgcc/../../.././gcc/libgcc/soft-fp/divdf3.c:45 (discriminator 2)
   2407c:	3ff70793          	addi	a5,a4,1023
   24080:	0ef05a63          	blez	a5,24174 <__divdf3+0x5d4>
/opt/riscv-gnu-toolchain/build-gcc-newlib-stage2/riscv32-vega-elf/libgcc/../../.././gcc/libgcc/soft-fp/divdf3.c:45 (discriminator 6)
   24084:	007f7693          	andi	a3,t5,7
   24088:	02068063          	beqz	a3,240a8 <__divdf3+0x508>
/opt/riscv-gnu-toolchain/build-gcc-newlib-stage2/riscv32-vega-elf/libgcc/../../.././gcc/libgcc/soft-fp/divdf3.c:45 (discriminator 11)
   2408c:	00ff7693          	andi	a3,t5,15
   24090:	00400593          	li	a1,4
   24094:	00b68a63          	beq	a3,a1,240a8 <__divdf3+0x508>
/opt/riscv-gnu-toolchain/build-gcc-newlib-stage2/riscv32-vega-elf/libgcc/../../.././gcc/libgcc/soft-fp/divdf3.c:45 (discriminator 15)
   24098:	00bf06b3          	add	a3,t5,a1
   2409c:	01e6b5b3          	sltu	a1,a3,t5
   240a0:	00b40433          	add	s0,s0,a1
   240a4:	00068f13          	mv	t5,a3
/opt/riscv-gnu-toolchain/build-gcc-newlib-stage2/riscv32-vega-elf/libgcc/../../.././gcc/libgcc/soft-fp/divdf3.c:45 (discriminator 18)
   240a8:	00741693          	slli	a3,s0,0x7
   240ac:	0006da63          	bgez	a3,240c0 <__divdf3+0x520>
/opt/riscv-gnu-toolchain/build-gcc-newlib-stage2/riscv32-vega-elf/libgcc/../../.././gcc/libgcc/soft-fp/divdf3.c:45 (discriminator 29)
   240b0:	ff0007b7          	lui	a5,0xff000
   240b4:	fff78793          	addi	a5,a5,-1 # feffffff <_heap_end+0xfefd703f>
   240b8:	00f47433          	and	s0,s0,a5
   240bc:	40070793          	addi	a5,a4,1024
/opt/riscv-gnu-toolchain/build-gcc-newlib-stage2/riscv32-vega-elf/libgcc/../../.././gcc/libgcc/soft-fp/divdf3.c:45 (discriminator 31)
   240c0:	7fe00713          	li	a4,2046
   240c4:	16f74c63          	blt	a4,a5,2423c <__divdf3+0x69c>
   240c8:	01d41713          	slli	a4,s0,0x1d
   240cc:	003f5f13          	srli	t5,t5,0x3
   240d0:	01e76733          	or	a4,a4,t5
   240d4:	00345413          	srli	s0,s0,0x3
/opt/riscv-gnu-toolchain/build-gcc-newlib-stage2/riscv32-vega-elf/libgcc/../../.././gcc/libgcc/soft-fp/divdf3.c:45 (discriminator 143)
   240d8:	00c41413          	slli	s0,s0,0xc
   240dc:	00c45413          	srli	s0,s0,0xc
   240e0:	01479793          	slli	a5,a5,0x14
/opt/riscv-gnu-toolchain/build-gcc-newlib-stage2/riscv32-vega-elf/libgcc/../../.././gcc/libgcc/soft-fp/divdf3.c:49
   240e4:	02c12083          	lw	ra,44(sp)
/opt/riscv-gnu-toolchain/build-gcc-newlib-stage2/riscv32-vega-elf/libgcc/../../.././gcc/libgcc/soft-fp/divdf3.c:45 (discriminator 143)
   240e8:	0087e7b3          	or	a5,a5,s0
/opt/riscv-gnu-toolchain/build-gcc-newlib-stage2/riscv32-vega-elf/libgcc/../../.././gcc/libgcc/soft-fp/divdf3.c:49
   240ec:	02812403          	lw	s0,40(sp)
/opt/riscv-gnu-toolchain/build-gcc-newlib-stage2/riscv32-vega-elf/libgcc/../../.././gcc/libgcc/soft-fp/divdf3.c:45 (discriminator 143)
   240f0:	01f61613          	slli	a2,a2,0x1f
   240f4:	00c7e6b3          	or	a3,a5,a2
/opt/riscv-gnu-toolchain/build-gcc-newlib-stage2/riscv32-vega-elf/libgcc/../../.././gcc/libgcc/soft-fp/divdf3.c:49
   240f8:	02412483          	lw	s1,36(sp)
   240fc:	02012903          	lw	s2,32(sp)
   24100:	01c12983          	lw	s3,28(sp)
   24104:	01812a03          	lw	s4,24(sp)
   24108:	01412a83          	lw	s5,20(sp)
   2410c:	01012b03          	lw	s6,16(sp)
   24110:	00c12b83          	lw	s7,12(sp)
   24114:	00812c03          	lw	s8,8(sp)
   24118:	00412c83          	lw	s9,4(sp)
   2411c:	00070513          	mv	a0,a4
   24120:	00068593          	mv	a1,a3
   24124:	03010113          	addi	sp,sp,48
   24128:	00008067          	ret
/opt/riscv-gnu-toolchain/build-gcc-newlib-stage2/riscv32-vega-elf/libgcc/../../.././gcc/libgcc/soft-fp/divdf3.c:44 (discriminator 15)
   2412c:	fff70713          	addi	a4,a4,-1
   24130:	00000313          	li	t1,0
   24134:	cc1ff06f          	j	23df4 <__divdf3+0x254>
/opt/riscv-gnu-toolchain/build-gcc-newlib-stage2/riscv32-vega-elf/libgcc/../../.././gcc/libgcc/soft-fp/divdf3.c:43
   24138:	000a8613          	mv	a2,s5
/opt/riscv-gnu-toolchain/build-gcc-newlib-stage2/riscv32-vega-elf/libgcc/../../.././gcc/libgcc/soft-fp/divdf3.c:44 (discriminator 5)
   2413c:	00058b93          	mv	s7,a1
/opt/riscv-gnu-toolchain/build-gcc-newlib-stage2/riscv32-vega-elf/libgcc/../../.././gcc/libgcc/soft-fp/divdf3.c:45
   24140:	00200793          	li	a5,2
   24144:	0efb8c63          	beq	s7,a5,2423c <__divdf3+0x69c>
   24148:	00300793          	li	a5,3
   2414c:	0cfb8e63          	beq	s7,a5,24228 <__divdf3+0x688>
   24150:	00100793          	li	a5,1
   24154:	f2fb94e3          	bne	s7,a5,2407c <__divdf3+0x4dc>
   24158:	00000413          	li	s0,0
   2415c:	00000713          	li	a4,0
   24160:	08c0006f          	j	241ec <__divdf3+0x64c>
/opt/riscv-gnu-toolchain/build-gcc-newlib-stage2/riscv32-vega-elf/libgcc/../../.././gcc/libgcc/soft-fp/divdf3.c:42
   24164:	000a0613          	mv	a2,s4
/opt/riscv-gnu-toolchain/build-gcc-newlib-stage2/riscv32-vega-elf/libgcc/../../.././gcc/libgcc/soft-fp/divdf3.c:44 (discriminator 8)
   24168:	000b0413          	mv	s0,s6
   2416c:	00048f13          	mv	t5,s1
   24170:	fd1ff06f          	j	24140 <__divdf3+0x5a0>
/opt/riscv-gnu-toolchain/build-gcc-newlib-stage2/riscv32-vega-elf/libgcc/../../.././gcc/libgcc/soft-fp/divdf3.c:45
   24174:	00100593          	li	a1,1
/opt/riscv-gnu-toolchain/build-gcc-newlib-stage2/riscv32-vega-elf/libgcc/../../.././gcc/libgcc/soft-fp/divdf3.c:45 (discriminator 7)
   24178:	00078c63          	beqz	a5,24190 <__divdf3+0x5f0>
/opt/riscv-gnu-toolchain/build-gcc-newlib-stage2/riscv32-vega-elf/libgcc/../../.././gcc/libgcc/soft-fp/divdf3.c:45 (discriminator 73)
   2417c:	40f585b3          	sub	a1,a1,a5
   24180:	03800693          	li	a3,56
   24184:	fcb6cae3          	blt	a3,a1,24158 <__divdf3+0x5b8>
/opt/riscv-gnu-toolchain/build-gcc-newlib-stage2/riscv32-vega-elf/libgcc/../../.././gcc/libgcc/soft-fp/divdf3.c:45 (discriminator 74)
   24188:	01f00693          	li	a3,31
   2418c:	06b6c463          	blt	a3,a1,241f4 <__divdf3+0x654>
/opt/riscv-gnu-toolchain/build-gcc-newlib-stage2/riscv32-vega-elf/libgcc/../../.././gcc/libgcc/soft-fp/divdf3.c:45 (discriminator 76)
   24190:	41e70713          	addi	a4,a4,1054
   24194:	00bf57b3          	srl	a5,t5,a1
/opt/riscv-gnu-toolchain/build-gcc-newlib-stage2/riscv32-vega-elf/libgcc/../../.././gcc/libgcc/soft-fp/divdf3.c:45 (discriminator 81)
   24198:	00ef1f33          	sll	t5,t5,a4
   2419c:	01e03f33          	snez	t5,t5
/opt/riscv-gnu-toolchain/build-gcc-newlib-stage2/riscv32-vega-elf/libgcc/../../.././gcc/libgcc/soft-fp/divdf3.c:45 (discriminator 76)
   241a0:	00e41733          	sll	a4,s0,a4
   241a4:	00ef6f33          	or	t5,t5,a4
/opt/riscv-gnu-toolchain/build-gcc-newlib-stage2/riscv32-vega-elf/libgcc/../../.././gcc/libgcc/soft-fp/divdf3.c:45 (discriminator 83)
   241a8:	01e7e7b3          	or	a5,a5,t5
   241ac:	00b45433          	srl	s0,s0,a1
/opt/riscv-gnu-toolchain/build-gcc-newlib-stage2/riscv32-vega-elf/libgcc/../../.././gcc/libgcc/soft-fp/divdf3.c:45 (discriminator 89)
   241b0:	0077f713          	andi	a4,a5,7
   241b4:	02070063          	beqz	a4,241d4 <__divdf3+0x634>
/opt/riscv-gnu-toolchain/build-gcc-newlib-stage2/riscv32-vega-elf/libgcc/../../.././gcc/libgcc/soft-fp/divdf3.c:45 (discriminator 93)
   241b8:	00f7f713          	andi	a4,a5,15
   241bc:	00400693          	li	a3,4
   241c0:	00d70a63          	beq	a4,a3,241d4 <__divdf3+0x634>
/opt/riscv-gnu-toolchain/build-gcc-newlib-stage2/riscv32-vega-elf/libgcc/../../.././gcc/libgcc/soft-fp/divdf3.c:45 (discriminator 97)
   241c4:	00d78733          	add	a4,a5,a3
   241c8:	00f736b3          	sltu	a3,a4,a5
   241cc:	00d40433          	add	s0,s0,a3
   241d0:	00070793          	mv	a5,a4
/opt/riscv-gnu-toolchain/build-gcc-newlib-stage2/riscv32-vega-elf/libgcc/../../.././gcc/libgcc/soft-fp/divdf3.c:45 (discriminator 100)
   241d4:	00841713          	slli	a4,s0,0x8
   241d8:	06074a63          	bltz	a4,2424c <__divdf3+0x6ac>
/opt/riscv-gnu-toolchain/build-gcc-newlib-stage2/riscv32-vega-elf/libgcc/../../.././gcc/libgcc/soft-fp/divdf3.c:45 (discriminator 112)
   241dc:	01d41713          	slli	a4,s0,0x1d
   241e0:	0037d793          	srli	a5,a5,0x3
   241e4:	00f76733          	or	a4,a4,a5
   241e8:	00345413          	srli	s0,s0,0x3
/opt/riscv-gnu-toolchain/build-gcc-newlib-stage2/riscv32-vega-elf/libgcc/../../.././gcc/libgcc/soft-fp/divdf3.c:45 (discriminator 75)
   241ec:	00000793          	li	a5,0
   241f0:	ee9ff06f          	j	240d8 <__divdf3+0x538>
/opt/riscv-gnu-toolchain/build-gcc-newlib-stage2/riscv32-vega-elf/libgcc/../../.././gcc/libgcc/soft-fp/divdf3.c:45 (discriminator 77)
   241f4:	fe100693          	li	a3,-31
   241f8:	40f687b3          	sub	a5,a3,a5
   241fc:	02000513          	li	a0,32
   24200:	00f457b3          	srl	a5,s0,a5
/opt/riscv-gnu-toolchain/build-gcc-newlib-stage2/riscv32-vega-elf/libgcc/../../.././gcc/libgcc/soft-fp/divdf3.c:45 (discriminator 86)
   24204:	00000693          	li	a3,0
/opt/riscv-gnu-toolchain/build-gcc-newlib-stage2/riscv32-vega-elf/libgcc/../../.././gcc/libgcc/soft-fp/divdf3.c:45 (discriminator 77)
   24208:	00a58663          	beq	a1,a0,24214 <__divdf3+0x674>
/opt/riscv-gnu-toolchain/build-gcc-newlib-stage2/riscv32-vega-elf/libgcc/../../.././gcc/libgcc/soft-fp/divdf3.c:45 (discriminator 85)
   2420c:	43e70713          	addi	a4,a4,1086
   24210:	00e416b3          	sll	a3,s0,a4
/opt/riscv-gnu-toolchain/build-gcc-newlib-stage2/riscv32-vega-elf/libgcc/../../.././gcc/libgcc/soft-fp/divdf3.c:45 (discriminator 88)
   24214:	01e6e6b3          	or	a3,a3,t5
   24218:	00d036b3          	snez	a3,a3
   2421c:	00d7e7b3          	or	a5,a5,a3
   24220:	00000413          	li	s0,0
   24224:	f8dff06f          	j	241b0 <__divdf3+0x610>
/opt/riscv-gnu-toolchain/build-gcc-newlib-stage2/riscv32-vega-elf/libgcc/../../.././gcc/libgcc/soft-fp/divdf3.c:45 (discriminator 144)
   24228:	00080437          	lui	s0,0x80
   2422c:	00000713          	li	a4,0
/opt/riscv-gnu-toolchain/build-gcc-newlib-stage2/riscv32-vega-elf/libgcc/../../.././gcc/libgcc/soft-fp/divdf3.c:45 (discriminator 5)
   24230:	7ff00793          	li	a5,2047
/opt/riscv-gnu-toolchain/build-gcc-newlib-stage2/riscv32-vega-elf/libgcc/../../.././gcc/libgcc/soft-fp/divdf3.c:45 (discriminator 144)
   24234:	00000613          	li	a2,0
   24238:	ea1ff06f          	j	240d8 <__divdf3+0x538>
   2423c:	00000413          	li	s0,0
   24240:	00000713          	li	a4,0
   24244:	7ff00793          	li	a5,2047
   24248:	e91ff06f          	j	240d8 <__divdf3+0x538>
/opt/riscv-gnu-toolchain/build-gcc-newlib-stage2/riscv32-vega-elf/libgcc/../../.././gcc/libgcc/soft-fp/divdf3.c:45 (discriminator 111)
   2424c:	00000413          	li	s0,0
   24250:	00000713          	li	a4,0
   24254:	00100793          	li	a5,1
   24258:	e81ff06f          	j	240d8 <__divdf3+0x538>

0002425c <__eqdf2>:
__eqdf2():
/opt/riscv-gnu-toolchain/build-gcc-newlib-stage2/riscv32-vega-elf/libgcc/../../.././gcc/libgcc/soft-fp/eqdf2.c:41
   2425c:	0145d713          	srli	a4,a1,0x14
   24260:	001007b7          	lui	a5,0x100
   24264:	fff78793          	addi	a5,a5,-1 # fffff <_heap_end+0xd703f>
/opt/riscv-gnu-toolchain/build-gcc-newlib-stage2/riscv32-vega-elf/libgcc/../../.././gcc/libgcc/soft-fp/eqdf2.c:42
   24268:	0146d813          	srli	a6,a3,0x14
/opt/riscv-gnu-toolchain/build-gcc-newlib-stage2/riscv32-vega-elf/libgcc/../../.././gcc/libgcc/soft-fp/eqdf2.c:34
   2426c:	00050313          	mv	t1,a0
   24270:	00050e93          	mv	t4,a0
/opt/riscv-gnu-toolchain/build-gcc-newlib-stage2/riscv32-vega-elf/libgcc/../../.././gcc/libgcc/soft-fp/eqdf2.c:41
   24274:	7ff77713          	andi	a4,a4,2047
/opt/riscv-gnu-toolchain/build-gcc-newlib-stage2/riscv32-vega-elf/libgcc/../../.././gcc/libgcc/soft-fp/eqdf2.c:43 (discriminator 19)
   24278:	7ff00513          	li	a0,2047
/opt/riscv-gnu-toolchain/build-gcc-newlib-stage2/riscv32-vega-elf/libgcc/../../.././gcc/libgcc/soft-fp/eqdf2.c:41
   2427c:	00b7f8b3          	and	a7,a5,a1
   24280:	00060f13          	mv	t5,a2
/opt/riscv-gnu-toolchain/build-gcc-newlib-stage2/riscv32-vega-elf/libgcc/../../.././gcc/libgcc/soft-fp/eqdf2.c:42
   24284:	00d7f7b3          	and	a5,a5,a3
/opt/riscv-gnu-toolchain/build-gcc-newlib-stage2/riscv32-vega-elf/libgcc/../../.././gcc/libgcc/soft-fp/eqdf2.c:41
   24288:	01f5d593          	srli	a1,a1,0x1f
/opt/riscv-gnu-toolchain/build-gcc-newlib-stage2/riscv32-vega-elf/libgcc/../../.././gcc/libgcc/soft-fp/eqdf2.c:42
   2428c:	7ff87813          	andi	a6,a6,2047
   24290:	01f6d693          	srli	a3,a3,0x1f
/opt/riscv-gnu-toolchain/build-gcc-newlib-stage2/riscv32-vega-elf/libgcc/../../.././gcc/libgcc/soft-fp/eqdf2.c:43 (discriminator 19)
   24294:	00a71c63          	bne	a4,a0,242ac <__eqdf2+0x50>
/opt/riscv-gnu-toolchain/build-gcc-newlib-stage2/riscv32-vega-elf/libgcc/../../.././gcc/libgcc/soft-fp/eqdf2.c:43 (discriminator 20)
   24298:	0068ee33          	or	t3,a7,t1
/opt/riscv-gnu-toolchain/build-gcc-newlib-stage2/riscv32-vega-elf/libgcc/../../.././gcc/libgcc/soft-fp/eqdf2.c:43 (discriminator 26)
   2429c:	00100513          	li	a0,1
/opt/riscv-gnu-toolchain/build-gcc-newlib-stage2/riscv32-vega-elf/libgcc/../../.././gcc/libgcc/soft-fp/eqdf2.c:43 (discriminator 20)
   242a0:	000e1463          	bnez	t3,242a8 <__eqdf2+0x4c>
/opt/riscv-gnu-toolchain/build-gcc-newlib-stage2/riscv32-vega-elf/libgcc/../../.././gcc/libgcc/soft-fp/eqdf2.c:43 (discriminator 23)
   242a4:	00e80663          	beq	a6,a4,242b0 <__eqdf2+0x54>
/opt/riscv-gnu-toolchain/build-gcc-newlib-stage2/riscv32-vega-elf/libgcc/../../.././gcc/libgcc/soft-fp/eqdf2.c:47
   242a8:	00008067          	ret
/opt/riscv-gnu-toolchain/build-gcc-newlib-stage2/riscv32-vega-elf/libgcc/../../.././gcc/libgcc/soft-fp/eqdf2.c:43 (discriminator 23)
   242ac:	00a81863          	bne	a6,a0,242bc <__eqdf2+0x60>
/opt/riscv-gnu-toolchain/build-gcc-newlib-stage2/riscv32-vega-elf/libgcc/../../.././gcc/libgcc/soft-fp/eqdf2.c:43 (discriminator 24)
   242b0:	00c7e633          	or	a2,a5,a2
/opt/riscv-gnu-toolchain/build-gcc-newlib-stage2/riscv32-vega-elf/libgcc/../../.././gcc/libgcc/soft-fp/eqdf2.c:43 (discriminator 26)
   242b4:	00100513          	li	a0,1
/opt/riscv-gnu-toolchain/build-gcc-newlib-stage2/riscv32-vega-elf/libgcc/../../.././gcc/libgcc/soft-fp/eqdf2.c:43 (discriminator 24)
   242b8:	fe0618e3          	bnez	a2,242a8 <__eqdf2+0x4c>
/opt/riscv-gnu-toolchain/build-gcc-newlib-stage2/riscv32-vega-elf/libgcc/../../.././gcc/libgcc/soft-fp/eqdf2.c:43 (discriminator 26)
   242bc:	00100513          	li	a0,1
/opt/riscv-gnu-toolchain/build-gcc-newlib-stage2/riscv32-vega-elf/libgcc/../../.././gcc/libgcc/soft-fp/eqdf2.c:43 (discriminator 78)
   242c0:	ff0714e3          	bne	a4,a6,242a8 <__eqdf2+0x4c>
/opt/riscv-gnu-toolchain/build-gcc-newlib-stage2/riscv32-vega-elf/libgcc/../../.././gcc/libgcc/soft-fp/eqdf2.c:43 (discriminator 80)
   242c4:	fef892e3          	bne	a7,a5,242a8 <__eqdf2+0x4c>
/opt/riscv-gnu-toolchain/build-gcc-newlib-stage2/riscv32-vega-elf/libgcc/../../.././gcc/libgcc/soft-fp/eqdf2.c:43 (discriminator 82)
   242c8:	ffee90e3          	bne	t4,t5,242a8 <__eqdf2+0x4c>
/opt/riscv-gnu-toolchain/build-gcc-newlib-stage2/riscv32-vega-elf/libgcc/../../.././gcc/libgcc/soft-fp/eqdf2.c:43 (discriminator 84)
   242cc:	00d58a63          	beq	a1,a3,242e0 <__eqdf2+0x84>
/opt/riscv-gnu-toolchain/build-gcc-newlib-stage2/riscv32-vega-elf/libgcc/../../.././gcc/libgcc/soft-fp/eqdf2.c:43 (discriminator 85)
   242d0:	fc071ce3          	bnez	a4,242a8 <__eqdf2+0x4c>
/opt/riscv-gnu-toolchain/build-gcc-newlib-stage2/riscv32-vega-elf/libgcc/../../.././gcc/libgcc/soft-fp/eqdf2.c:43 (discriminator 88)
   242d4:	0068e8b3          	or	a7,a7,t1
   242d8:	01103533          	snez	a0,a7
   242dc:	00008067          	ret
/opt/riscv-gnu-toolchain/build-gcc-newlib-stage2/riscv32-vega-elf/libgcc/../../.././gcc/libgcc/soft-fp/eqdf2.c:43 (discriminator 90)
   242e0:	00000513          	li	a0,0
   242e4:	00008067          	ret

000242e8 <__gedf2>:
__gedf2():
/opt/riscv-gnu-toolchain/build-gcc-newlib-stage2/riscv32-vega-elf/libgcc/../../.././gcc/libgcc/soft-fp/gedf2.c:42
   242e8:	0146d793          	srli	a5,a3,0x14
/opt/riscv-gnu-toolchain/build-gcc-newlib-stage2/riscv32-vega-elf/libgcc/../../.././gcc/libgcc/soft-fp/gedf2.c:41
   242ec:	0145d893          	srli	a7,a1,0x14
   242f0:	00100737          	lui	a4,0x100
   242f4:	fff70713          	addi	a4,a4,-1 # fffff <_heap_end+0xd703f>
/opt/riscv-gnu-toolchain/build-gcc-newlib-stage2/riscv32-vega-elf/libgcc/../../.././gcc/libgcc/soft-fp/gedf2.c:34
   242f8:	00050813          	mv	a6,a0
   242fc:	00050e13          	mv	t3,a0
/opt/riscv-gnu-toolchain/build-gcc-newlib-stage2/riscv32-vega-elf/libgcc/../../.././gcc/libgcc/soft-fp/gedf2.c:41
   24300:	7ff8f893          	andi	a7,a7,2047
/opt/riscv-gnu-toolchain/build-gcc-newlib-stage2/riscv32-vega-elf/libgcc/../../.././gcc/libgcc/soft-fp/gedf2.c:42
   24304:	7ff7f513          	andi	a0,a5,2047
/opt/riscv-gnu-toolchain/build-gcc-newlib-stage2/riscv32-vega-elf/libgcc/../../.././gcc/libgcc/soft-fp/gedf2.c:43 (discriminator 19)
   24308:	7ff00793          	li	a5,2047
/opt/riscv-gnu-toolchain/build-gcc-newlib-stage2/riscv32-vega-elf/libgcc/../../.././gcc/libgcc/soft-fp/gedf2.c:41
   2430c:	00b77333          	and	t1,a4,a1
   24310:	00060e93          	mv	t4,a2
/opt/riscv-gnu-toolchain/build-gcc-newlib-stage2/riscv32-vega-elf/libgcc/../../.././gcc/libgcc/soft-fp/gedf2.c:42
   24314:	00d77733          	and	a4,a4,a3
/opt/riscv-gnu-toolchain/build-gcc-newlib-stage2/riscv32-vega-elf/libgcc/../../.././gcc/libgcc/soft-fp/gedf2.c:41
   24318:	01f5d593          	srli	a1,a1,0x1f
/opt/riscv-gnu-toolchain/build-gcc-newlib-stage2/riscv32-vega-elf/libgcc/../../.././gcc/libgcc/soft-fp/gedf2.c:42
   2431c:	01f6d693          	srli	a3,a3,0x1f
/opt/riscv-gnu-toolchain/build-gcc-newlib-stage2/riscv32-vega-elf/libgcc/../../.././gcc/libgcc/soft-fp/gedf2.c:43 (discriminator 19)
   24320:	00f89663          	bne	a7,a5,2432c <__gedf2+0x44>
/opt/riscv-gnu-toolchain/build-gcc-newlib-stage2/riscv32-vega-elf/libgcc/../../.././gcc/libgcc/soft-fp/gedf2.c:43 (discriminator 20)
   24324:	01036f33          	or	t5,t1,a6
   24328:	060f1663          	bnez	t5,24394 <__gedf2+0xac>
/opt/riscv-gnu-toolchain/build-gcc-newlib-stage2/riscv32-vega-elf/libgcc/../../.././gcc/libgcc/soft-fp/gedf2.c:43 (discriminator 23)
   2432c:	00f51663          	bne	a0,a5,24338 <__gedf2+0x50>
/opt/riscv-gnu-toolchain/build-gcc-newlib-stage2/riscv32-vega-elf/libgcc/../../.././gcc/libgcc/soft-fp/gedf2.c:43 (discriminator 24)
   24330:	00c767b3          	or	a5,a4,a2
   24334:	06079063          	bnez	a5,24394 <__gedf2+0xac>
/opt/riscv-gnu-toolchain/build-gcc-newlib-stage2/riscv32-vega-elf/libgcc/../../.././gcc/libgcc/soft-fp/gedf2.c:43 (discriminator 66)
   24338:	00000793          	li	a5,0
/opt/riscv-gnu-toolchain/build-gcc-newlib-stage2/riscv32-vega-elf/libgcc/../../.././gcc/libgcc/soft-fp/gedf2.c:43 (discriminator 62)
   2433c:	00089663          	bnez	a7,24348 <__gedf2+0x60>
/opt/riscv-gnu-toolchain/build-gcc-newlib-stage2/riscv32-vega-elf/libgcc/../../.././gcc/libgcc/soft-fp/gedf2.c:43 (discriminator 63)
   24340:	01036833          	or	a6,t1,a6
   24344:	00183793          	seqz	a5,a6
/opt/riscv-gnu-toolchain/build-gcc-newlib-stage2/riscv32-vega-elf/libgcc/../../.././gcc/libgcc/soft-fp/gedf2.c:43 (discriminator 68)
   24348:	04051a63          	bnez	a0,2439c <__gedf2+0xb4>
/opt/riscv-gnu-toolchain/build-gcc-newlib-stage2/riscv32-vega-elf/libgcc/../../.././gcc/libgcc/soft-fp/gedf2.c:43 (discriminator 69)
   2434c:	00c76633          	or	a2,a4,a2
/opt/riscv-gnu-toolchain/build-gcc-newlib-stage2/riscv32-vega-elf/libgcc/../../.././gcc/libgcc/soft-fp/gedf2.c:43 (discriminator 74)
   24350:	00078a63          	beqz	a5,24364 <__gedf2+0x7c>
/opt/riscv-gnu-toolchain/build-gcc-newlib-stage2/riscv32-vega-elf/libgcc/../../.././gcc/libgcc/soft-fp/gedf2.c:43 (discriminator 75)
   24354:	06060063          	beqz	a2,243b4 <__gedf2+0xcc>
/opt/riscv-gnu-toolchain/build-gcc-newlib-stage2/riscv32-vega-elf/libgcc/../../.././gcc/libgcc/soft-fp/gedf2.c:43 (discriminator 83)
   24358:	00169513          	slli	a0,a3,0x1
   2435c:	fff50513          	addi	a0,a0,-1
   24360:	00008067          	ret
/opt/riscv-gnu-toolchain/build-gcc-newlib-stage2/riscv32-vega-elf/libgcc/../../.././gcc/libgcc/soft-fp/gedf2.c:43 (discriminator 81)
   24364:	02061e63          	bnez	a2,243a0 <__gedf2+0xb8>
/opt/riscv-gnu-toolchain/build-gcc-newlib-stage2/riscv32-vega-elf/libgcc/../../.././gcc/libgcc/soft-fp/gedf2.c:43 (discriminator 90)
   24368:	40b005b3          	neg	a1,a1
   2436c:	0015e513          	ori	a0,a1,1
   24370:	00008067          	ret
/opt/riscv-gnu-toolchain/build-gcc-newlib-stage2/riscv32-vega-elf/libgcc/../../.././gcc/libgcc/soft-fp/gedf2.c:43 (discriminator 102)
   24374:	fea8c2e3          	blt	a7,a0,24358 <__gedf2+0x70>
/opt/riscv-gnu-toolchain/build-gcc-newlib-stage2/riscv32-vega-elf/libgcc/../../.././gcc/libgcc/soft-fp/gedf2.c:43 (discriminator 109)
   24378:	fe6768e3          	bltu	a4,t1,24368 <__gedf2+0x80>
/opt/riscv-gnu-toolchain/build-gcc-newlib-stage2/riscv32-vega-elf/libgcc/../../.././gcc/libgcc/soft-fp/gedf2.c:43 (discriminator 116)
   2437c:	00e31863          	bne	t1,a4,2438c <__gedf2+0xa4>
/opt/riscv-gnu-toolchain/build-gcc-newlib-stage2/riscv32-vega-elf/libgcc/../../.././gcc/libgcc/soft-fp/gedf2.c:43 (discriminator 117)
   24380:	ffcee4e3          	bltu	t4,t3,24368 <__gedf2+0x80>
/opt/riscv-gnu-toolchain/build-gcc-newlib-stage2/riscv32-vega-elf/libgcc/../../.././gcc/libgcc/soft-fp/gedf2.c:43 (discriminator 77)
   24384:	00000513          	li	a0,0
/opt/riscv-gnu-toolchain/build-gcc-newlib-stage2/riscv32-vega-elf/libgcc/../../.././gcc/libgcc/soft-fp/gedf2.c:43 (discriminator 128)
   24388:	03de7663          	bgeu	t3,t4,243b4 <__gedf2+0xcc>
/opt/riscv-gnu-toolchain/build-gcc-newlib-stage2/riscv32-vega-elf/libgcc/../../.././gcc/libgcc/soft-fp/gedf2.c:43 (discriminator 83)
   2438c:	00159513          	slli	a0,a1,0x1
   24390:	fcdff06f          	j	2435c <__gedf2+0x74>
/opt/riscv-gnu-toolchain/build-gcc-newlib-stage2/riscv32-vega-elf/libgcc/../../.././gcc/libgcc/soft-fp/gedf2.c:43 (discriminator 26)
   24394:	ffe00513          	li	a0,-2
   24398:	00008067          	ret
/opt/riscv-gnu-toolchain/build-gcc-newlib-stage2/riscv32-vega-elf/libgcc/../../.././gcc/libgcc/soft-fp/gedf2.c:43 (discriminator 74)
   2439c:	fa079ee3          	bnez	a5,24358 <__gedf2+0x70>
/opt/riscv-gnu-toolchain/build-gcc-newlib-stage2/riscv32-vega-elf/libgcc/../../.././gcc/libgcc/soft-fp/gedf2.c:43 (discriminator 88)
   243a0:	fcb694e3          	bne	a3,a1,24368 <__gedf2+0x80>
/opt/riscv-gnu-toolchain/build-gcc-newlib-stage2/riscv32-vega-elf/libgcc/../../.././gcc/libgcc/soft-fp/gedf2.c:43 (discriminator 95)
   243a4:	fd1558e3          	bge	a0,a7,24374 <__gedf2+0x8c>
/opt/riscv-gnu-toolchain/build-gcc-newlib-stage2/riscv32-vega-elf/libgcc/../../.././gcc/libgcc/soft-fp/gedf2.c:43 (discriminator 90)
   243a8:	40d006b3          	neg	a3,a3
   243ac:	0016e513          	ori	a0,a3,1
   243b0:	00008067          	ret
/opt/riscv-gnu-toolchain/build-gcc-newlib-stage2/riscv32-vega-elf/libgcc/../../.././gcc/libgcc/soft-fp/gedf2.c:47
   243b4:	00008067          	ret

000243b8 <__ledf2>:
__ledf2():
/opt/riscv-gnu-toolchain/build-gcc-newlib-stage2/riscv32-vega-elf/libgcc/../../.././gcc/libgcc/soft-fp/ledf2.c:42
   243b8:	0146d793          	srli	a5,a3,0x14
/opt/riscv-gnu-toolchain/build-gcc-newlib-stage2/riscv32-vega-elf/libgcc/../../.././gcc/libgcc/soft-fp/ledf2.c:41
   243bc:	0145d893          	srli	a7,a1,0x14
   243c0:	00100737          	lui	a4,0x100
   243c4:	fff70713          	addi	a4,a4,-1 # fffff <_heap_end+0xd703f>
/opt/riscv-gnu-toolchain/build-gcc-newlib-stage2/riscv32-vega-elf/libgcc/../../.././gcc/libgcc/soft-fp/ledf2.c:34
   243c8:	00050813          	mv	a6,a0
   243cc:	00050e13          	mv	t3,a0
/opt/riscv-gnu-toolchain/build-gcc-newlib-stage2/riscv32-vega-elf/libgcc/../../.././gcc/libgcc/soft-fp/ledf2.c:41
   243d0:	7ff8f893          	andi	a7,a7,2047
/opt/riscv-gnu-toolchain/build-gcc-newlib-stage2/riscv32-vega-elf/libgcc/../../.././gcc/libgcc/soft-fp/ledf2.c:42
   243d4:	7ff7f513          	andi	a0,a5,2047
/opt/riscv-gnu-toolchain/build-gcc-newlib-stage2/riscv32-vega-elf/libgcc/../../.././gcc/libgcc/soft-fp/ledf2.c:43 (discriminator 19)
   243d8:	7ff00793          	li	a5,2047
/opt/riscv-gnu-toolchain/build-gcc-newlib-stage2/riscv32-vega-elf/libgcc/../../.././gcc/libgcc/soft-fp/ledf2.c:41
   243dc:	00b77333          	and	t1,a4,a1
   243e0:	00060e93          	mv	t4,a2
/opt/riscv-gnu-toolchain/build-gcc-newlib-stage2/riscv32-vega-elf/libgcc/../../.././gcc/libgcc/soft-fp/ledf2.c:42
   243e4:	00d77733          	and	a4,a4,a3
/opt/riscv-gnu-toolchain/build-gcc-newlib-stage2/riscv32-vega-elf/libgcc/../../.././gcc/libgcc/soft-fp/ledf2.c:41
   243e8:	01f5d593          	srli	a1,a1,0x1f
/opt/riscv-gnu-toolchain/build-gcc-newlib-stage2/riscv32-vega-elf/libgcc/../../.././gcc/libgcc/soft-fp/ledf2.c:42
   243ec:	01f6d693          	srli	a3,a3,0x1f
/opt/riscv-gnu-toolchain/build-gcc-newlib-stage2/riscv32-vega-elf/libgcc/../../.././gcc/libgcc/soft-fp/ledf2.c:43 (discriminator 19)
   243f0:	00f89663          	bne	a7,a5,243fc <__ledf2+0x44>
/opt/riscv-gnu-toolchain/build-gcc-newlib-stage2/riscv32-vega-elf/libgcc/../../.././gcc/libgcc/soft-fp/ledf2.c:43 (discriminator 20)
   243f4:	01036f33          	or	t5,t1,a6
   243f8:	060f1663          	bnez	t5,24464 <__ledf2+0xac>
/opt/riscv-gnu-toolchain/build-gcc-newlib-stage2/riscv32-vega-elf/libgcc/../../.././gcc/libgcc/soft-fp/ledf2.c:43 (discriminator 23)
   243fc:	00f51663          	bne	a0,a5,24408 <__ledf2+0x50>
/opt/riscv-gnu-toolchain/build-gcc-newlib-stage2/riscv32-vega-elf/libgcc/../../.././gcc/libgcc/soft-fp/ledf2.c:43 (discriminator 24)
   24400:	00c767b3          	or	a5,a4,a2
   24404:	06079063          	bnez	a5,24464 <__ledf2+0xac>
/opt/riscv-gnu-toolchain/build-gcc-newlib-stage2/riscv32-vega-elf/libgcc/../../.././gcc/libgcc/soft-fp/ledf2.c:43 (discriminator 66)
   24408:	00000793          	li	a5,0
/opt/riscv-gnu-toolchain/build-gcc-newlib-stage2/riscv32-vega-elf/libgcc/../../.././gcc/libgcc/soft-fp/ledf2.c:43 (discriminator 62)
   2440c:	00089663          	bnez	a7,24418 <__ledf2+0x60>
/opt/riscv-gnu-toolchain/build-gcc-newlib-stage2/riscv32-vega-elf/libgcc/../../.././gcc/libgcc/soft-fp/ledf2.c:43 (discriminator 63)
   24410:	01036833          	or	a6,t1,a6
   24414:	00183793          	seqz	a5,a6
/opt/riscv-gnu-toolchain/build-gcc-newlib-stage2/riscv32-vega-elf/libgcc/../../.././gcc/libgcc/soft-fp/ledf2.c:43 (discriminator 68)
   24418:	04051a63          	bnez	a0,2446c <__ledf2+0xb4>
/opt/riscv-gnu-toolchain/build-gcc-newlib-stage2/riscv32-vega-elf/libgcc/../../.././gcc/libgcc/soft-fp/ledf2.c:43 (discriminator 69)
   2441c:	00c76633          	or	a2,a4,a2
/opt/riscv-gnu-toolchain/build-gcc-newlib-stage2/riscv32-vega-elf/libgcc/../../.././gcc/libgcc/soft-fp/ledf2.c:43 (discriminator 74)
   24420:	00078a63          	beqz	a5,24434 <__ledf2+0x7c>
/opt/riscv-gnu-toolchain/build-gcc-newlib-stage2/riscv32-vega-elf/libgcc/../../.././gcc/libgcc/soft-fp/ledf2.c:43 (discriminator 75)
   24424:	06060063          	beqz	a2,24484 <__ledf2+0xcc>
/opt/riscv-gnu-toolchain/build-gcc-newlib-stage2/riscv32-vega-elf/libgcc/../../.././gcc/libgcc/soft-fp/ledf2.c:43 (discriminator 83)
   24428:	00169513          	slli	a0,a3,0x1
   2442c:	fff50513          	addi	a0,a0,-1
   24430:	00008067          	ret
/opt/riscv-gnu-toolchain/build-gcc-newlib-stage2/riscv32-vega-elf/libgcc/../../.././gcc/libgcc/soft-fp/ledf2.c:43 (discriminator 81)
   24434:	02061e63          	bnez	a2,24470 <__ledf2+0xb8>
/opt/riscv-gnu-toolchain/build-gcc-newlib-stage2/riscv32-vega-elf/libgcc/../../.././gcc/libgcc/soft-fp/ledf2.c:43 (discriminator 90)
   24438:	40b005b3          	neg	a1,a1
   2443c:	0015e513          	ori	a0,a1,1
   24440:	00008067          	ret
/opt/riscv-gnu-toolchain/build-gcc-newlib-stage2/riscv32-vega-elf/libgcc/../../.././gcc/libgcc/soft-fp/ledf2.c:43 (discriminator 102)
   24444:	fea8c2e3          	blt	a7,a0,24428 <__ledf2+0x70>
/opt/riscv-gnu-toolchain/build-gcc-newlib-stage2/riscv32-vega-elf/libgcc/../../.././gcc/libgcc/soft-fp/ledf2.c:43 (discriminator 109)
   24448:	fe6768e3          	bltu	a4,t1,24438 <__ledf2+0x80>
/opt/riscv-gnu-toolchain/build-gcc-newlib-stage2/riscv32-vega-elf/libgcc/../../.././gcc/libgcc/soft-fp/ledf2.c:43 (discriminator 116)
   2444c:	00e31863          	bne	t1,a4,2445c <__ledf2+0xa4>
/opt/riscv-gnu-toolchain/build-gcc-newlib-stage2/riscv32-vega-elf/libgcc/../../.././gcc/libgcc/soft-fp/ledf2.c:43 (discriminator 117)
   24450:	ffcee4e3          	bltu	t4,t3,24438 <__ledf2+0x80>
/opt/riscv-gnu-toolchain/build-gcc-newlib-stage2/riscv32-vega-elf/libgcc/../../.././gcc/libgcc/soft-fp/ledf2.c:43 (discriminator 77)
   24454:	00000513          	li	a0,0
/opt/riscv-gnu-toolchain/build-gcc-newlib-stage2/riscv32-vega-elf/libgcc/../../.././gcc/libgcc/soft-fp/ledf2.c:43 (discriminator 128)
   24458:	03de7663          	bgeu	t3,t4,24484 <__ledf2+0xcc>
/opt/riscv-gnu-toolchain/build-gcc-newlib-stage2/riscv32-vega-elf/libgcc/../../.././gcc/libgcc/soft-fp/ledf2.c:43 (discriminator 83)
   2445c:	00159513          	slli	a0,a1,0x1
   24460:	fcdff06f          	j	2442c <__ledf2+0x74>
/opt/riscv-gnu-toolchain/build-gcc-newlib-stage2/riscv32-vega-elf/libgcc/../../.././gcc/libgcc/soft-fp/ledf2.c:43 (discriminator 26)
   24464:	00200513          	li	a0,2
   24468:	00008067          	ret
/opt/riscv-gnu-toolchain/build-gcc-newlib-stage2/riscv32-vega-elf/libgcc/../../.././gcc/libgcc/soft-fp/ledf2.c:43 (discriminator 74)
   2446c:	fa079ee3          	bnez	a5,24428 <__ledf2+0x70>
/opt/riscv-gnu-toolchain/build-gcc-newlib-stage2/riscv32-vega-elf/libgcc/../../.././gcc/libgcc/soft-fp/ledf2.c:43 (discriminator 88)
   24470:	fcb694e3          	bne	a3,a1,24438 <__ledf2+0x80>
/opt/riscv-gnu-toolchain/build-gcc-newlib-stage2/riscv32-vega-elf/libgcc/../../.././gcc/libgcc/soft-fp/ledf2.c:43 (discriminator 95)
   24474:	fd1558e3          	bge	a0,a7,24444 <__ledf2+0x8c>
/opt/riscv-gnu-toolchain/build-gcc-newlib-stage2/riscv32-vega-elf/libgcc/../../.././gcc/libgcc/soft-fp/ledf2.c:43 (discriminator 90)
   24478:	40d006b3          	neg	a3,a3
   2447c:	0016e513          	ori	a0,a3,1
   24480:	00008067          	ret
/opt/riscv-gnu-toolchain/build-gcc-newlib-stage2/riscv32-vega-elf/libgcc/../../.././gcc/libgcc/soft-fp/ledf2.c:47
   24484:	00008067          	ret

00024488 <__muldf3>:
__muldf3():
/opt/riscv-gnu-toolchain/build-gcc-newlib-stage2/riscv32-vega-elf/libgcc/../../.././gcc/libgcc/soft-fp/muldf3.c:34
   24488:	fd010113          	addi	sp,sp,-48
   2448c:	01712623          	sw	s7,12(sp)
/opt/riscv-gnu-toolchain/build-gcc-newlib-stage2/riscv32-vega-elf/libgcc/../../.././gcc/libgcc/soft-fp/muldf3.c:42
   24490:	0145db93          	srli	s7,a1,0x14
/opt/riscv-gnu-toolchain/build-gcc-newlib-stage2/riscv32-vega-elf/libgcc/../../.././gcc/libgcc/soft-fp/muldf3.c:34
   24494:	02812423          	sw	s0,40(sp)
   24498:	02912223          	sw	s1,36(sp)
   2449c:	01512a23          	sw	s5,20(sp)
   244a0:	01612823          	sw	s6,16(sp)
   244a4:	01812423          	sw	s8,8(sp)
/opt/riscv-gnu-toolchain/build-gcc-newlib-stage2/riscv32-vega-elf/libgcc/../../.././gcc/libgcc/soft-fp/muldf3.c:42
   244a8:	00c59493          	slli	s1,a1,0xc
/opt/riscv-gnu-toolchain/build-gcc-newlib-stage2/riscv32-vega-elf/libgcc/../../.././gcc/libgcc/soft-fp/muldf3.c:34
   244ac:	02112623          	sw	ra,44(sp)
   244b0:	03212023          	sw	s2,32(sp)
   244b4:	01312e23          	sw	s3,28(sp)
   244b8:	01412c23          	sw	s4,24(sp)
   244bc:	01912223          	sw	s9,4(sp)
/opt/riscv-gnu-toolchain/build-gcc-newlib-stage2/riscv32-vega-elf/libgcc/../../.././gcc/libgcc/soft-fp/muldf3.c:42
   244c0:	7ffbfb93          	andi	s7,s7,2047
/opt/riscv-gnu-toolchain/build-gcc-newlib-stage2/riscv32-vega-elf/libgcc/../../.././gcc/libgcc/soft-fp/muldf3.c:34
   244c4:	00050413          	mv	s0,a0
   244c8:	00060c13          	mv	s8,a2
   244cc:	00068a93          	mv	s5,a3
/opt/riscv-gnu-toolchain/build-gcc-newlib-stage2/riscv32-vega-elf/libgcc/../../.././gcc/libgcc/soft-fp/muldf3.c:42
   244d0:	00c4d493          	srli	s1,s1,0xc
   244d4:	01f5db13          	srli	s6,a1,0x1f
   244d8:	0c0b8263          	beqz	s7,2459c <__muldf3+0x114>
   244dc:	7ff00793          	li	a5,2047
   244e0:	12fb8463          	beq	s7,a5,24608 <__muldf3+0x180>
/opt/riscv-gnu-toolchain/build-gcc-newlib-stage2/riscv32-vega-elf/libgcc/../../.././gcc/libgcc/soft-fp/muldf3.c:42 (discriminator 5)
   244e4:	00349493          	slli	s1,s1,0x3
   244e8:	01d55793          	srli	a5,a0,0x1d
   244ec:	0097e7b3          	or	a5,a5,s1
   244f0:	008004b7          	lui	s1,0x800
   244f4:	0097e4b3          	or	s1,a5,s1
   244f8:	00351a13          	slli	s4,a0,0x3
/opt/riscv-gnu-toolchain/build-gcc-newlib-stage2/riscv32-vega-elf/libgcc/../../.././gcc/libgcc/soft-fp/muldf3.c:42 (discriminator 7)
   244fc:	c01b8b93          	addi	s7,s7,-1023
/opt/riscv-gnu-toolchain/build-gcc-newlib-stage2/riscv32-vega-elf/libgcc/../../.././gcc/libgcc/soft-fp/muldf3.c:42 (discriminator 41)
   24500:	00000c93          	li	s9,0
/opt/riscv-gnu-toolchain/build-gcc-newlib-stage2/riscv32-vega-elf/libgcc/../../.././gcc/libgcc/soft-fp/muldf3.c:43
   24504:	014ad693          	srli	a3,s5,0x14
   24508:	00ca9413          	slli	s0,s5,0xc
   2450c:	7ff6f693          	andi	a3,a3,2047
   24510:	00c45413          	srli	s0,s0,0xc
   24514:	01fada93          	srli	s5,s5,0x1f
   24518:	12068063          	beqz	a3,24638 <__muldf3+0x1b0>
   2451c:	7ff00793          	li	a5,2047
   24520:	18f68463          	beq	a3,a5,246a8 <__muldf3+0x220>
/opt/riscv-gnu-toolchain/build-gcc-newlib-stage2/riscv32-vega-elf/libgcc/../../.././gcc/libgcc/soft-fp/muldf3.c:43 (discriminator 5)
   24524:	00341413          	slli	s0,s0,0x3
   24528:	01dc5793          	srli	a5,s8,0x1d
   2452c:	0087e7b3          	or	a5,a5,s0
   24530:	00800437          	lui	s0,0x800
   24534:	0087e433          	or	s0,a5,s0
/opt/riscv-gnu-toolchain/build-gcc-newlib-stage2/riscv32-vega-elf/libgcc/../../.././gcc/libgcc/soft-fp/muldf3.c:43 (discriminator 7)
   24538:	c0168693          	addi	a3,a3,-1023
/opt/riscv-gnu-toolchain/build-gcc-newlib-stage2/riscv32-vega-elf/libgcc/../../.././gcc/libgcc/soft-fp/muldf3.c:43 (discriminator 5)
   2453c:	003c1793          	slli	a5,s8,0x3
/opt/riscv-gnu-toolchain/build-gcc-newlib-stage2/riscv32-vega-elf/libgcc/../../.././gcc/libgcc/soft-fp/muldf3.c:43 (discriminator 41)
   24540:	00000513          	li	a0,0
/opt/riscv-gnu-toolchain/build-gcc-newlib-stage2/riscv32-vega-elf/libgcc/../../.././gcc/libgcc/soft-fp/muldf3.c:44
   24544:	002c9713          	slli	a4,s9,0x2
   24548:	00db8bb3          	add	s7,s7,a3
   2454c:	00a76733          	or	a4,a4,a0
   24550:	00a00693          	li	a3,10
   24554:	001b8593          	addi	a1,s7,1
   24558:	1ae6c263          	blt	a3,a4,246fc <__muldf3+0x274>
   2455c:	00200813          	li	a6,2
   24560:	015b4633          	xor	a2,s6,s5
   24564:	00100693          	li	a3,1
   24568:	16e84863          	blt	a6,a4,246d8 <__muldf3+0x250>
   2456c:	fff70713          	addi	a4,a4,-1
   24570:	1ae6e663          	bltu	a3,a4,2471c <__muldf3+0x294>
/opt/riscv-gnu-toolchain/build-gcc-newlib-stage2/riscv32-vega-elf/libgcc/../../.././gcc/libgcc/soft-fp/muldf3.c:44 (discriminator 45)
   24574:	00050c93          	mv	s9,a0
/opt/riscv-gnu-toolchain/build-gcc-newlib-stage2/riscv32-vega-elf/libgcc/../../.././gcc/libgcc/soft-fp/muldf3.c:45
   24578:	00200713          	li	a4,2
   2457c:	4eec8063          	beq	s9,a4,24a5c <__muldf3+0x5d4>
   24580:	00300713          	li	a4,3
   24584:	4cec8663          	beq	s9,a4,24a50 <__muldf3+0x5c8>
   24588:	00100713          	li	a4,1
   2458c:	34ec9463          	bne	s9,a4,248d4 <__muldf3+0x44c>
   24590:	00000413          	li	s0,0
   24594:	00000693          	li	a3,0
   24598:	46c0006f          	j	24a04 <__muldf3+0x57c>
/opt/riscv-gnu-toolchain/build-gcc-newlib-stage2/riscv32-vega-elf/libgcc/../../.././gcc/libgcc/soft-fp/muldf3.c:42 (discriminator 2)
   2459c:	00a4ea33          	or	s4,s1,a0
   245a0:	060a0e63          	beqz	s4,2461c <__muldf3+0x194>
/opt/riscv-gnu-toolchain/build-gcc-newlib-stage2/riscv32-vega-elf/libgcc/../../.././gcc/libgcc/soft-fp/muldf3.c:42 (discriminator 13)
   245a4:	04048063          	beqz	s1,245e4 <__muldf3+0x15c>
/opt/riscv-gnu-toolchain/build-gcc-newlib-stage2/riscv32-vega-elf/libgcc/../../.././gcc/libgcc/soft-fp/muldf3.c:42 (discriminator 17)
   245a8:	00048513          	mv	a0,s1
   245ac:	059010ef          	jal	25e04 <__clzsi2>
/opt/riscv-gnu-toolchain/build-gcc-newlib-stage2/riscv32-vega-elf/libgcc/../../.././gcc/libgcc/soft-fp/muldf3.c:42 (discriminator 31)
   245b0:	ff550713          	addi	a4,a0,-11
/opt/riscv-gnu-toolchain/build-gcc-newlib-stage2/riscv32-vega-elf/libgcc/../../.././gcc/libgcc/soft-fp/muldf3.c:42 (discriminator 37)
   245b4:	01d00793          	li	a5,29
/opt/riscv-gnu-toolchain/build-gcc-newlib-stage2/riscv32-vega-elf/libgcc/../../.././gcc/libgcc/soft-fp/muldf3.c:42 (discriminator 32)
   245b8:	ff850693          	addi	a3,a0,-8
/opt/riscv-gnu-toolchain/build-gcc-newlib-stage2/riscv32-vega-elf/libgcc/../../.././gcc/libgcc/soft-fp/muldf3.c:42 (discriminator 37)
   245bc:	40e787b3          	sub	a5,a5,a4
   245c0:	00d494b3          	sll	s1,s1,a3
   245c4:	00f457b3          	srl	a5,s0,a5
   245c8:	0097e7b3          	or	a5,a5,s1
   245cc:	00d414b3          	sll	s1,s0,a3
/opt/riscv-gnu-toolchain/build-gcc-newlib-stage2/riscv32-vega-elf/libgcc/../../.././gcc/libgcc/soft-fp/muldf3.c:42 (discriminator 41)
   245d0:	c0d00b93          	li	s7,-1011
   245d4:	00048a13          	mv	s4,s1
   245d8:	40ab8bb3          	sub	s7,s7,a0
   245dc:	00078493          	mv	s1,a5
   245e0:	f21ff06f          	j	24500 <__muldf3+0x78>
/opt/riscv-gnu-toolchain/build-gcc-newlib-stage2/riscv32-vega-elf/libgcc/../../.././gcc/libgcc/soft-fp/muldf3.c:42 (discriminator 24)
   245e4:	021010ef          	jal	25e04 <__clzsi2>
   245e8:	00050793          	mv	a5,a0
/opt/riscv-gnu-toolchain/build-gcc-newlib-stage2/riscv32-vega-elf/libgcc/../../.././gcc/libgcc/soft-fp/muldf3.c:42 (discriminator 31)
   245ec:	01578713          	addi	a4,a5,21
   245f0:	01c00693          	li	a3,28
/opt/riscv-gnu-toolchain/build-gcc-newlib-stage2/riscv32-vega-elf/libgcc/../../.././gcc/libgcc/soft-fp/muldf3.c:42 (discriminator 30)
   245f4:	02050513          	addi	a0,a0,32
/opt/riscv-gnu-toolchain/build-gcc-newlib-stage2/riscv32-vega-elf/libgcc/../../.././gcc/libgcc/soft-fp/muldf3.c:42 (discriminator 31)
   245f8:	fae6dee3          	bge	a3,a4,245b4 <__muldf3+0x12c>
/opt/riscv-gnu-toolchain/build-gcc-newlib-stage2/riscv32-vega-elf/libgcc/../../.././gcc/libgcc/soft-fp/muldf3.c:42 (discriminator 33)
   245fc:	ff878793          	addi	a5,a5,-8
   24600:	00f417b3          	sll	a5,s0,a5
/opt/riscv-gnu-toolchain/build-gcc-newlib-stage2/riscv32-vega-elf/libgcc/../../.././gcc/libgcc/soft-fp/muldf3.c:42
   24604:	fcdff06f          	j	245d0 <__muldf3+0x148>
/opt/riscv-gnu-toolchain/build-gcc-newlib-stage2/riscv32-vega-elf/libgcc/../../.././gcc/libgcc/soft-fp/muldf3.c:42 (discriminator 3)
   24608:	00a4ea33          	or	s4,s1,a0
   2460c:	020a1063          	bnez	s4,2462c <__muldf3+0x1a4>
/opt/riscv-gnu-toolchain/build-gcc-newlib-stage2/riscv32-vega-elf/libgcc/../../.././gcc/libgcc/soft-fp/muldf3.c:42
   24610:	00000493          	li	s1,0
/opt/riscv-gnu-toolchain/build-gcc-newlib-stage2/riscv32-vega-elf/libgcc/../../.././gcc/libgcc/soft-fp/muldf3.c:42 (discriminator 43)
   24614:	00200c93          	li	s9,2
   24618:	eedff06f          	j	24504 <__muldf3+0x7c>
/opt/riscv-gnu-toolchain/build-gcc-newlib-stage2/riscv32-vega-elf/libgcc/../../.././gcc/libgcc/soft-fp/muldf3.c:42
   2461c:	00000493          	li	s1,0
   24620:	00000b93          	li	s7,0
/opt/riscv-gnu-toolchain/build-gcc-newlib-stage2/riscv32-vega-elf/libgcc/../../.././gcc/libgcc/soft-fp/muldf3.c:42 (discriminator 9)
   24624:	00100c93          	li	s9,1
   24628:	eddff06f          	j	24504 <__muldf3+0x7c>
/opt/riscv-gnu-toolchain/build-gcc-newlib-stage2/riscv32-vega-elf/libgcc/../../.././gcc/libgcc/soft-fp/muldf3.c:42
   2462c:	00050a13          	mv	s4,a0
/opt/riscv-gnu-toolchain/build-gcc-newlib-stage2/riscv32-vega-elf/libgcc/../../.././gcc/libgcc/soft-fp/muldf3.c:42 (discriminator 44)
   24630:	00300c93          	li	s9,3
   24634:	ed1ff06f          	j	24504 <__muldf3+0x7c>
/opt/riscv-gnu-toolchain/build-gcc-newlib-stage2/riscv32-vega-elf/libgcc/../../.././gcc/libgcc/soft-fp/muldf3.c:43 (discriminator 2)
   24638:	018467b3          	or	a5,s0,s8
   2463c:	08078063          	beqz	a5,246bc <__muldf3+0x234>
/opt/riscv-gnu-toolchain/build-gcc-newlib-stage2/riscv32-vega-elf/libgcc/../../.././gcc/libgcc/soft-fp/muldf3.c:43 (discriminator 13)
   24640:	04040063          	beqz	s0,24680 <__muldf3+0x1f8>
/opt/riscv-gnu-toolchain/build-gcc-newlib-stage2/riscv32-vega-elf/libgcc/../../.././gcc/libgcc/soft-fp/muldf3.c:43 (discriminator 17)
   24644:	00040513          	mv	a0,s0
   24648:	7bc010ef          	jal	25e04 <__clzsi2>
/opt/riscv-gnu-toolchain/build-gcc-newlib-stage2/riscv32-vega-elf/libgcc/../../.././gcc/libgcc/soft-fp/muldf3.c:43 (discriminator 31)
   2464c:	ff550693          	addi	a3,a0,-11
/opt/riscv-gnu-toolchain/build-gcc-newlib-stage2/riscv32-vega-elf/libgcc/../../.././gcc/libgcc/soft-fp/muldf3.c:43 (discriminator 37)
   24650:	01d00713          	li	a4,29
/opt/riscv-gnu-toolchain/build-gcc-newlib-stage2/riscv32-vega-elf/libgcc/../../.././gcc/libgcc/soft-fp/muldf3.c:43 (discriminator 32)
   24654:	ff850793          	addi	a5,a0,-8
/opt/riscv-gnu-toolchain/build-gcc-newlib-stage2/riscv32-vega-elf/libgcc/../../.././gcc/libgcc/soft-fp/muldf3.c:43 (discriminator 37)
   24658:	40d70733          	sub	a4,a4,a3
   2465c:	00f41433          	sll	s0,s0,a5
   24660:	00ec5733          	srl	a4,s8,a4
   24664:	00876733          	or	a4,a4,s0
   24668:	00fc1433          	sll	s0,s8,a5
/opt/riscv-gnu-toolchain/build-gcc-newlib-stage2/riscv32-vega-elf/libgcc/../../.././gcc/libgcc/soft-fp/muldf3.c:43 (discriminator 41)
   2466c:	c0d00693          	li	a3,-1011
   24670:	00040793          	mv	a5,s0
   24674:	40a686b3          	sub	a3,a3,a0
   24678:	00070413          	mv	s0,a4
   2467c:	ec5ff06f          	j	24540 <__muldf3+0xb8>
/opt/riscv-gnu-toolchain/build-gcc-newlib-stage2/riscv32-vega-elf/libgcc/../../.././gcc/libgcc/soft-fp/muldf3.c:43 (discriminator 24)
   24680:	000c0513          	mv	a0,s8
   24684:	780010ef          	jal	25e04 <__clzsi2>
   24688:	00050793          	mv	a5,a0
/opt/riscv-gnu-toolchain/build-gcc-newlib-stage2/riscv32-vega-elf/libgcc/../../.././gcc/libgcc/soft-fp/muldf3.c:43 (discriminator 31)
   2468c:	01578693          	addi	a3,a5,21
   24690:	01c00713          	li	a4,28
/opt/riscv-gnu-toolchain/build-gcc-newlib-stage2/riscv32-vega-elf/libgcc/../../.././gcc/libgcc/soft-fp/muldf3.c:43 (discriminator 30)
   24694:	02050513          	addi	a0,a0,32
/opt/riscv-gnu-toolchain/build-gcc-newlib-stage2/riscv32-vega-elf/libgcc/../../.././gcc/libgcc/soft-fp/muldf3.c:43 (discriminator 31)
   24698:	fad75ce3          	bge	a4,a3,24650 <__muldf3+0x1c8>
/opt/riscv-gnu-toolchain/build-gcc-newlib-stage2/riscv32-vega-elf/libgcc/../../.././gcc/libgcc/soft-fp/muldf3.c:43 (discriminator 33)
   2469c:	ff878793          	addi	a5,a5,-8
   246a0:	00fc1733          	sll	a4,s8,a5
/opt/riscv-gnu-toolchain/build-gcc-newlib-stage2/riscv32-vega-elf/libgcc/../../.././gcc/libgcc/soft-fp/muldf3.c:43
   246a4:	fc9ff06f          	j	2466c <__muldf3+0x1e4>
/opt/riscv-gnu-toolchain/build-gcc-newlib-stage2/riscv32-vega-elf/libgcc/../../.././gcc/libgcc/soft-fp/muldf3.c:43 (discriminator 3)
   246a8:	018467b3          	or	a5,s0,s8
   246ac:	02079063          	bnez	a5,246cc <__muldf3+0x244>
/opt/riscv-gnu-toolchain/build-gcc-newlib-stage2/riscv32-vega-elf/libgcc/../../.././gcc/libgcc/soft-fp/muldf3.c:43
   246b0:	00000413          	li	s0,0
/opt/riscv-gnu-toolchain/build-gcc-newlib-stage2/riscv32-vega-elf/libgcc/../../.././gcc/libgcc/soft-fp/muldf3.c:43 (discriminator 43)
   246b4:	00200513          	li	a0,2
   246b8:	e8dff06f          	j	24544 <__muldf3+0xbc>
/opt/riscv-gnu-toolchain/build-gcc-newlib-stage2/riscv32-vega-elf/libgcc/../../.././gcc/libgcc/soft-fp/muldf3.c:43
   246bc:	00000413          	li	s0,0
   246c0:	00000693          	li	a3,0
/opt/riscv-gnu-toolchain/build-gcc-newlib-stage2/riscv32-vega-elf/libgcc/../../.././gcc/libgcc/soft-fp/muldf3.c:43 (discriminator 9)
   246c4:	00100513          	li	a0,1
   246c8:	e7dff06f          	j	24544 <__muldf3+0xbc>
/opt/riscv-gnu-toolchain/build-gcc-newlib-stage2/riscv32-vega-elf/libgcc/../../.././gcc/libgcc/soft-fp/muldf3.c:43
   246cc:	000c0793          	mv	a5,s8
/opt/riscv-gnu-toolchain/build-gcc-newlib-stage2/riscv32-vega-elf/libgcc/../../.././gcc/libgcc/soft-fp/muldf3.c:43 (discriminator 44)
   246d0:	00300513          	li	a0,3
   246d4:	e71ff06f          	j	24544 <__muldf3+0xbc>
   246d8:	00e69733          	sll	a4,a3,a4
/opt/riscv-gnu-toolchain/build-gcc-newlib-stage2/riscv32-vega-elf/libgcc/../../.././gcc/libgcc/soft-fp/muldf3.c:44
   246dc:	53077693          	andi	a3,a4,1328
   246e0:	02069863          	bnez	a3,24710 <__muldf3+0x288>
   246e4:	24077813          	andi	a6,a4,576
   246e8:	34081c63          	bnez	a6,24a40 <__muldf3+0x5b8>
   246ec:	08877713          	andi	a4,a4,136
   246f0:	02070663          	beqz	a4,2471c <__muldf3+0x294>
/opt/riscv-gnu-toolchain/build-gcc-newlib-stage2/riscv32-vega-elf/libgcc/../../.././gcc/libgcc/soft-fp/muldf3.c:43
   246f4:	000a8613          	mv	a2,s5
   246f8:	e7dff06f          	j	24574 <__muldf3+0xec>
/opt/riscv-gnu-toolchain/build-gcc-newlib-stage2/riscv32-vega-elf/libgcc/../../.././gcc/libgcc/soft-fp/muldf3.c:44
   246fc:	00f00693          	li	a3,15
   24700:	34d70863          	beq	a4,a3,24a50 <__muldf3+0x5c8>
   24704:	00b00693          	li	a3,11
/opt/riscv-gnu-toolchain/build-gcc-newlib-stage2/riscv32-vega-elf/libgcc/../../.././gcc/libgcc/soft-fp/muldf3.c:42
   24708:	000b0613          	mv	a2,s6
/opt/riscv-gnu-toolchain/build-gcc-newlib-stage2/riscv32-vega-elf/libgcc/../../.././gcc/libgcc/soft-fp/muldf3.c:44
   2470c:	fed704e3          	beq	a4,a3,246f4 <__muldf3+0x26c>
   24710:	00048413          	mv	s0,s1
   24714:	000a0793          	mv	a5,s4
   24718:	e61ff06f          	j	24578 <__muldf3+0xf0>
/opt/riscv-gnu-toolchain/build-gcc-newlib-stage2/riscv32-vega-elf/libgcc/../../.././gcc/libgcc/soft-fp/muldf3.c:44 (discriminator 2)
   2471c:	010a5693          	srli	a3,s4,0x10
   24720:	0107d893          	srli	a7,a5,0x10
/opt/riscv-gnu-toolchain/build-gcc-newlib-stage2/riscv32-vega-elf/libgcc/../../.././gcc/libgcc/soft-fp/muldf3.c:44
   24724:	010a1a13          	slli	s4,s4,0x10
   24728:	01079793          	slli	a5,a5,0x10
   2472c:	010a5a13          	srli	s4,s4,0x10
   24730:	0107d793          	srli	a5,a5,0x10
/opt/riscv-gnu-toolchain/build-gcc-newlib-stage2/riscv32-vega-elf/libgcc/../../.././gcc/libgcc/soft-fp/muldf3.c:44 (discriminator 2)
   24734:	02fa0533          	mul	a0,s4,a5
   24738:	02f68e33          	mul	t3,a3,a5
   2473c:	01055813          	srli	a6,a0,0x10
   24740:	03488333          	mul	t1,a7,s4
   24744:	01c30333          	add	t1,t1,t3
   24748:	00680833          	add	a6,a6,t1
   2474c:	03168733          	mul	a4,a3,a7
   24750:	01c87663          	bgeu	a6,t3,2475c <__muldf3+0x2d4>
/opt/riscv-gnu-toolchain/build-gcc-newlib-stage2/riscv32-vega-elf/libgcc/../../.././gcc/libgcc/soft-fp/muldf3.c:44 (discriminator 9)
   24754:	00010337          	lui	t1,0x10
   24758:	00670733          	add	a4,a4,t1
/opt/riscv-gnu-toolchain/build-gcc-newlib-stage2/riscv32-vega-elf/libgcc/../../.././gcc/libgcc/soft-fp/muldf3.c:44 (discriminator 11)
   2475c:	01051513          	slli	a0,a0,0x10
   24760:	01055513          	srli	a0,a0,0x10
   24764:	01085f93          	srli	t6,a6,0x10
   24768:	01081813          	slli	a6,a6,0x10
   2476c:	00a80833          	add	a6,a6,a0
   24770:	01045513          	srli	a0,s0,0x10
/opt/riscv-gnu-toolchain/build-gcc-newlib-stage2/riscv32-vega-elf/libgcc/../../.././gcc/libgcc/soft-fp/muldf3.c:44
   24774:	01041413          	slli	s0,s0,0x10
   24778:	01045413          	srli	s0,s0,0x10
/opt/riscv-gnu-toolchain/build-gcc-newlib-stage2/riscv32-vega-elf/libgcc/../../.././gcc/libgcc/soft-fp/muldf3.c:44 (discriminator 11)
   2477c:	028a0e33          	mul	t3,s4,s0
   24780:	02868eb3          	mul	t4,a3,s0
   24784:	010e5313          	srli	t1,t3,0x10
   24788:	03450a33          	mul	s4,a0,s4
   2478c:	01da0a33          	add	s4,s4,t4
   24790:	01430333          	add	t1,t1,s4
   24794:	02a686b3          	mul	a3,a3,a0
   24798:	01d37663          	bgeu	t1,t4,247a4 <__muldf3+0x31c>
/opt/riscv-gnu-toolchain/build-gcc-newlib-stage2/riscv32-vega-elf/libgcc/../../.././gcc/libgcc/soft-fp/muldf3.c:44 (discriminator 12)
   2479c:	00010eb7          	lui	t4,0x10
   247a0:	01d686b3          	add	a3,a3,t4
/opt/riscv-gnu-toolchain/build-gcc-newlib-stage2/riscv32-vega-elf/libgcc/../../.././gcc/libgcc/soft-fp/muldf3.c:44 (discriminator 14)
   247a4:	01035f13          	srli	t5,t1,0x10
   247a8:	00df0f33          	add	t5,t5,a3
   247ac:	01031693          	slli	a3,t1,0x10
   247b0:	0104d313          	srli	t1,s1,0x10
   247b4:	01049493          	slli	s1,s1,0x10
   247b8:	0104d493          	srli	s1,s1,0x10
   247bc:	02f48eb3          	mul	t4,s1,a5
   247c0:	010e1e13          	slli	t3,t3,0x10
   247c4:	010e5e13          	srli	t3,t3,0x10
   247c8:	01c686b3          	add	a3,a3,t3
   247cc:	00df8fb3          	add	t6,t6,a3
   247d0:	02f307b3          	mul	a5,t1,a5
   247d4:	010ede13          	srli	t3,t4,0x10
   247d8:	026882b3          	mul	t0,a7,t1
   247dc:	029888b3          	mul	a7,a7,s1
   247e0:	00f888b3          	add	a7,a7,a5
   247e4:	011e08b3          	add	a7,t3,a7
   247e8:	00f8f663          	bgeu	a7,a5,247f4 <__muldf3+0x36c>
/opt/riscv-gnu-toolchain/build-gcc-newlib-stage2/riscv32-vega-elf/libgcc/../../.././gcc/libgcc/soft-fp/muldf3.c:44 (discriminator 15)
   247ec:	000107b7          	lui	a5,0x10
   247f0:	00f282b3          	add	t0,t0,a5
/opt/riscv-gnu-toolchain/build-gcc-newlib-stage2/riscv32-vega-elf/libgcc/../../.././gcc/libgcc/soft-fp/muldf3.c:44 (discriminator 17)
   247f4:	028487b3          	mul	a5,s1,s0
   247f8:	010e9e93          	slli	t4,t4,0x10
   247fc:	0108de13          	srli	t3,a7,0x10
   24800:	010ede93          	srli	t4,t4,0x10
   24804:	01089893          	slli	a7,a7,0x10
   24808:	01d888b3          	add	a7,a7,t4
   2480c:	005e0e33          	add	t3,t3,t0
   24810:	02830433          	mul	s0,t1,s0
   24814:	0107de93          	srli	t4,a5,0x10
   24818:	02650333          	mul	t1,a0,t1
   2481c:	02950533          	mul	a0,a0,s1
   24820:	00850533          	add	a0,a0,s0
   24824:	00ae8eb3          	add	t4,t4,a0
   24828:	008ef663          	bgeu	t4,s0,24834 <__muldf3+0x3ac>
/opt/riscv-gnu-toolchain/build-gcc-newlib-stage2/riscv32-vega-elf/libgcc/../../.././gcc/libgcc/soft-fp/muldf3.c:44 (discriminator 18)
   2482c:	00010537          	lui	a0,0x10
   24830:	00a30333          	add	t1,t1,a0
/opt/riscv-gnu-toolchain/build-gcc-newlib-stage2/riscv32-vega-elf/libgcc/../../.././gcc/libgcc/soft-fp/muldf3.c:44 (discriminator 20)
   24834:	01079793          	slli	a5,a5,0x10
   24838:	010e9513          	slli	a0,t4,0x10
   2483c:	0107d793          	srli	a5,a5,0x10
   24840:	01f70733          	add	a4,a4,t6
   24844:	00f50533          	add	a0,a0,a5
   24848:	01e50f33          	add	t5,a0,t5
   2484c:	00d737b3          	sltu	a5,a4,a3
   24850:	00ff07b3          	add	a5,t5,a5
/opt/riscv-gnu-toolchain/build-gcc-newlib-stage2/riscv32-vega-elf/libgcc/../../.././gcc/libgcc/soft-fp/muldf3.c:44
   24854:	011708b3          	add	a7,a4,a7
   24858:	01c78e33          	add	t3,a5,t3
/opt/riscv-gnu-toolchain/build-gcc-newlib-stage2/riscv32-vega-elf/libgcc/../../.././gcc/libgcc/soft-fp/muldf3.c:44 (discriminator 20)
   2485c:	00e8b6b3          	sltu	a3,a7,a4
   24860:	00de06b3          	add	a3,t3,a3
   24864:	00af3533          	sltu	a0,t5,a0
   24868:	01e7bf33          	sltu	t5,a5,t5
   2486c:	00fe3733          	sltu	a4,t3,a5
   24870:	01e56533          	or	a0,a0,t5
   24874:	01c6be33          	sltu	t3,a3,t3
   24878:	010ede93          	srli	t4,t4,0x10
/opt/riscv-gnu-toolchain/build-gcc-newlib-stage2/riscv32-vega-elf/libgcc/../../.././gcc/libgcc/soft-fp/muldf3.c:44 (discriminator 26)
   2487c:	00989793          	slli	a5,a7,0x9
   24880:	01d50533          	add	a0,a0,t4
/opt/riscv-gnu-toolchain/build-gcc-newlib-stage2/riscv32-vega-elf/libgcc/../../.././gcc/libgcc/soft-fp/muldf3.c:44 (discriminator 20)
   24884:	01c76733          	or	a4,a4,t3
   24888:	00a70733          	add	a4,a4,a0
/opt/riscv-gnu-toolchain/build-gcc-newlib-stage2/riscv32-vega-elf/libgcc/../../.././gcc/libgcc/soft-fp/muldf3.c:44 (discriminator 26)
   2488c:	0107e7b3          	or	a5,a5,a6
/opt/riscv-gnu-toolchain/build-gcc-newlib-stage2/riscv32-vega-elf/libgcc/../../.././gcc/libgcc/soft-fp/muldf3.c:44 (discriminator 20)
   24890:	00670733          	add	a4,a4,t1
/opt/riscv-gnu-toolchain/build-gcc-newlib-stage2/riscv32-vega-elf/libgcc/../../.././gcc/libgcc/soft-fp/muldf3.c:44 (discriminator 37)
   24894:	00f037b3          	snez	a5,a5
/opt/riscv-gnu-toolchain/build-gcc-newlib-stage2/riscv32-vega-elf/libgcc/../../.././gcc/libgcc/soft-fp/muldf3.c:44 (discriminator 32)
   24898:	0178d893          	srli	a7,a7,0x17
   2489c:	00971713          	slli	a4,a4,0x9
   248a0:	0176d413          	srli	s0,a3,0x17
/opt/riscv-gnu-toolchain/build-gcc-newlib-stage2/riscv32-vega-elf/libgcc/../../.././gcc/libgcc/soft-fp/muldf3.c:44 (discriminator 37)
   248a4:	0117e7b3          	or	a5,a5,a7
/opt/riscv-gnu-toolchain/build-gcc-newlib-stage2/riscv32-vega-elf/libgcc/../../.././gcc/libgcc/soft-fp/muldf3.c:44 (discriminator 32)
   248a8:	00969693          	slli	a3,a3,0x9
/opt/riscv-gnu-toolchain/build-gcc-newlib-stage2/riscv32-vega-elf/libgcc/../../.././gcc/libgcc/soft-fp/muldf3.c:44 (discriminator 37)
   248ac:	00d7e7b3          	or	a5,a5,a3
   248b0:	00771693          	slli	a3,a4,0x7
/opt/riscv-gnu-toolchain/build-gcc-newlib-stage2/riscv32-vega-elf/libgcc/../../.././gcc/libgcc/soft-fp/muldf3.c:44 (discriminator 32)
   248b4:	00876433          	or	s0,a4,s0
/opt/riscv-gnu-toolchain/build-gcc-newlib-stage2/riscv32-vega-elf/libgcc/../../.././gcc/libgcc/soft-fp/muldf3.c:44 (discriminator 37)
   248b8:	0c06d663          	bgez	a3,24984 <__muldf3+0x4fc>
/opt/riscv-gnu-toolchain/build-gcc-newlib-stage2/riscv32-vega-elf/libgcc/../../.././gcc/libgcc/soft-fp/muldf3.c:44 (discriminator 38)
   248bc:	0017d713          	srli	a4,a5,0x1
   248c0:	0017f793          	andi	a5,a5,1
   248c4:	00f76733          	or	a4,a4,a5
   248c8:	01f41793          	slli	a5,s0,0x1f
   248cc:	00f767b3          	or	a5,a4,a5
   248d0:	00145413          	srli	s0,s0,0x1
/opt/riscv-gnu-toolchain/build-gcc-newlib-stage2/riscv32-vega-elf/libgcc/../../.././gcc/libgcc/soft-fp/muldf3.c:45 (discriminator 2)
   248d4:	3ff58713          	addi	a4,a1,1023
   248d8:	0ae05a63          	blez	a4,2498c <__muldf3+0x504>
/opt/riscv-gnu-toolchain/build-gcc-newlib-stage2/riscv32-vega-elf/libgcc/../../.././gcc/libgcc/soft-fp/muldf3.c:45 (discriminator 6)
   248dc:	0077f693          	andi	a3,a5,7
   248e0:	02068063          	beqz	a3,24900 <__muldf3+0x478>
/opt/riscv-gnu-toolchain/build-gcc-newlib-stage2/riscv32-vega-elf/libgcc/../../.././gcc/libgcc/soft-fp/muldf3.c:45 (discriminator 11)
   248e4:	00f7f693          	andi	a3,a5,15
   248e8:	00400513          	li	a0,4
   248ec:	00a68a63          	beq	a3,a0,24900 <__muldf3+0x478>
/opt/riscv-gnu-toolchain/build-gcc-newlib-stage2/riscv32-vega-elf/libgcc/../../.././gcc/libgcc/soft-fp/muldf3.c:45 (discriminator 15)
   248f0:	00a786b3          	add	a3,a5,a0
   248f4:	00f6b533          	sltu	a0,a3,a5
   248f8:	00a40433          	add	s0,s0,a0
   248fc:	00068793          	mv	a5,a3
/opt/riscv-gnu-toolchain/build-gcc-newlib-stage2/riscv32-vega-elf/libgcc/../../.././gcc/libgcc/soft-fp/muldf3.c:45 (discriminator 18)
   24900:	00741693          	slli	a3,s0,0x7
   24904:	0006da63          	bgez	a3,24918 <__muldf3+0x490>
/opt/riscv-gnu-toolchain/build-gcc-newlib-stage2/riscv32-vega-elf/libgcc/../../.././gcc/libgcc/soft-fp/muldf3.c:45 (discriminator 29)
   24908:	ff000737          	lui	a4,0xff000
   2490c:	fff70713          	addi	a4,a4,-1 # feffffff <_heap_end+0xfefd703f>
   24910:	00e47433          	and	s0,s0,a4
   24914:	40058713          	addi	a4,a1,1024
/opt/riscv-gnu-toolchain/build-gcc-newlib-stage2/riscv32-vega-elf/libgcc/../../.././gcc/libgcc/soft-fp/muldf3.c:45 (discriminator 31)
   24918:	7fe00693          	li	a3,2046
   2491c:	14e6c063          	blt	a3,a4,24a5c <__muldf3+0x5d4>
   24920:	01d41693          	slli	a3,s0,0x1d
   24924:	0037d793          	srli	a5,a5,0x3
   24928:	00f6e6b3          	or	a3,a3,a5
   2492c:	00345413          	srli	s0,s0,0x3
/opt/riscv-gnu-toolchain/build-gcc-newlib-stage2/riscv32-vega-elf/libgcc/../../.././gcc/libgcc/soft-fp/muldf3.c:45 (discriminator 143)
   24930:	00c41413          	slli	s0,s0,0xc
   24934:	00c45413          	srli	s0,s0,0xc
   24938:	01471713          	slli	a4,a4,0x14
/opt/riscv-gnu-toolchain/build-gcc-newlib-stage2/riscv32-vega-elf/libgcc/../../.././gcc/libgcc/soft-fp/muldf3.c:49
   2493c:	02c12083          	lw	ra,44(sp)
/opt/riscv-gnu-toolchain/build-gcc-newlib-stage2/riscv32-vega-elf/libgcc/../../.././gcc/libgcc/soft-fp/muldf3.c:45 (discriminator 143)
   24940:	00876733          	or	a4,a4,s0
/opt/riscv-gnu-toolchain/build-gcc-newlib-stage2/riscv32-vega-elf/libgcc/../../.././gcc/libgcc/soft-fp/muldf3.c:49
   24944:	02812403          	lw	s0,40(sp)
/opt/riscv-gnu-toolchain/build-gcc-newlib-stage2/riscv32-vega-elf/libgcc/../../.././gcc/libgcc/soft-fp/muldf3.c:45 (discriminator 143)
   24948:	01f61613          	slli	a2,a2,0x1f
   2494c:	00c767b3          	or	a5,a4,a2
/opt/riscv-gnu-toolchain/build-gcc-newlib-stage2/riscv32-vega-elf/libgcc/../../.././gcc/libgcc/soft-fp/muldf3.c:49
   24950:	02412483          	lw	s1,36(sp)
   24954:	02012903          	lw	s2,32(sp)
   24958:	01c12983          	lw	s3,28(sp)
   2495c:	01812a03          	lw	s4,24(sp)
   24960:	01412a83          	lw	s5,20(sp)
   24964:	01012b03          	lw	s6,16(sp)
   24968:	00c12b83          	lw	s7,12(sp)
   2496c:	00812c03          	lw	s8,8(sp)
   24970:	00412c83          	lw	s9,4(sp)
   24974:	00068513          	mv	a0,a3
   24978:	00078593          	mv	a1,a5
   2497c:	03010113          	addi	sp,sp,48
   24980:	00008067          	ret
/opt/riscv-gnu-toolchain/build-gcc-newlib-stage2/riscv32-vega-elf/libgcc/../../.././gcc/libgcc/soft-fp/muldf3.c:44 (discriminator 39)
   24984:	000b8593          	mv	a1,s7
   24988:	f4dff06f          	j	248d4 <__muldf3+0x44c>
/opt/riscv-gnu-toolchain/build-gcc-newlib-stage2/riscv32-vega-elf/libgcc/../../.././gcc/libgcc/soft-fp/muldf3.c:45
   2498c:	00100513          	li	a0,1
/opt/riscv-gnu-toolchain/build-gcc-newlib-stage2/riscv32-vega-elf/libgcc/../../.././gcc/libgcc/soft-fp/muldf3.c:45 (discriminator 7)
   24990:	00070c63          	beqz	a4,249a8 <__muldf3+0x520>
/opt/riscv-gnu-toolchain/build-gcc-newlib-stage2/riscv32-vega-elf/libgcc/../../.././gcc/libgcc/soft-fp/muldf3.c:45 (discriminator 73)
   24994:	40e50533          	sub	a0,a0,a4
   24998:	03800693          	li	a3,56
   2499c:	bea6cae3          	blt	a3,a0,24590 <__muldf3+0x108>
/opt/riscv-gnu-toolchain/build-gcc-newlib-stage2/riscv32-vega-elf/libgcc/../../.././gcc/libgcc/soft-fp/muldf3.c:45 (discriminator 74)
   249a0:	01f00693          	li	a3,31
   249a4:	06a6c463          	blt	a3,a0,24a0c <__muldf3+0x584>
/opt/riscv-gnu-toolchain/build-gcc-newlib-stage2/riscv32-vega-elf/libgcc/../../.././gcc/libgcc/soft-fp/muldf3.c:45 (discriminator 76)
   249a8:	41e58593          	addi	a1,a1,1054
   249ac:	00a7d733          	srl	a4,a5,a0
/opt/riscv-gnu-toolchain/build-gcc-newlib-stage2/riscv32-vega-elf/libgcc/../../.././gcc/libgcc/soft-fp/muldf3.c:45 (discriminator 81)
   249b0:	00b797b3          	sll	a5,a5,a1
   249b4:	00f037b3          	snez	a5,a5
/opt/riscv-gnu-toolchain/build-gcc-newlib-stage2/riscv32-vega-elf/libgcc/../../.././gcc/libgcc/soft-fp/muldf3.c:45 (discriminator 76)
   249b8:	00b415b3          	sll	a1,s0,a1
   249bc:	00b7e7b3          	or	a5,a5,a1
/opt/riscv-gnu-toolchain/build-gcc-newlib-stage2/riscv32-vega-elf/libgcc/../../.././gcc/libgcc/soft-fp/muldf3.c:45 (discriminator 83)
   249c0:	00f767b3          	or	a5,a4,a5
   249c4:	00a45433          	srl	s0,s0,a0
/opt/riscv-gnu-toolchain/build-gcc-newlib-stage2/riscv32-vega-elf/libgcc/../../.././gcc/libgcc/soft-fp/muldf3.c:45 (discriminator 89)
   249c8:	0077f713          	andi	a4,a5,7
   249cc:	02070063          	beqz	a4,249ec <__muldf3+0x564>
/opt/riscv-gnu-toolchain/build-gcc-newlib-stage2/riscv32-vega-elf/libgcc/../../.././gcc/libgcc/soft-fp/muldf3.c:45 (discriminator 93)
   249d0:	00f7f713          	andi	a4,a5,15
   249d4:	00400693          	li	a3,4
   249d8:	00d70a63          	beq	a4,a3,249ec <__muldf3+0x564>
/opt/riscv-gnu-toolchain/build-gcc-newlib-stage2/riscv32-vega-elf/libgcc/../../.././gcc/libgcc/soft-fp/muldf3.c:45 (discriminator 97)
   249dc:	00d78733          	add	a4,a5,a3
   249e0:	00f736b3          	sltu	a3,a4,a5
   249e4:	00d40433          	add	s0,s0,a3
   249e8:	00070793          	mv	a5,a4
/opt/riscv-gnu-toolchain/build-gcc-newlib-stage2/riscv32-vega-elf/libgcc/../../.././gcc/libgcc/soft-fp/muldf3.c:45 (discriminator 100)
   249ec:	00841713          	slli	a4,s0,0x8
   249f0:	06074e63          	bltz	a4,24a6c <__muldf3+0x5e4>
/opt/riscv-gnu-toolchain/build-gcc-newlib-stage2/riscv32-vega-elf/libgcc/../../.././gcc/libgcc/soft-fp/muldf3.c:45 (discriminator 112)
   249f4:	01d41693          	slli	a3,s0,0x1d
   249f8:	0037d793          	srli	a5,a5,0x3
   249fc:	00f6e6b3          	or	a3,a3,a5
   24a00:	00345413          	srli	s0,s0,0x3
/opt/riscv-gnu-toolchain/build-gcc-newlib-stage2/riscv32-vega-elf/libgcc/../../.././gcc/libgcc/soft-fp/muldf3.c:45 (discriminator 75)
   24a04:	00000713          	li	a4,0
   24a08:	f29ff06f          	j	24930 <__muldf3+0x4a8>
/opt/riscv-gnu-toolchain/build-gcc-newlib-stage2/riscv32-vega-elf/libgcc/../../.././gcc/libgcc/soft-fp/muldf3.c:45 (discriminator 77)
   24a0c:	fe100693          	li	a3,-31
   24a10:	40e68733          	sub	a4,a3,a4
   24a14:	02000813          	li	a6,32
   24a18:	00e45733          	srl	a4,s0,a4
/opt/riscv-gnu-toolchain/build-gcc-newlib-stage2/riscv32-vega-elf/libgcc/../../.././gcc/libgcc/soft-fp/muldf3.c:45 (discriminator 86)
   24a1c:	00000693          	li	a3,0
/opt/riscv-gnu-toolchain/build-gcc-newlib-stage2/riscv32-vega-elf/libgcc/../../.././gcc/libgcc/soft-fp/muldf3.c:45 (discriminator 77)
   24a20:	01050663          	beq	a0,a6,24a2c <__muldf3+0x5a4>
/opt/riscv-gnu-toolchain/build-gcc-newlib-stage2/riscv32-vega-elf/libgcc/../../.././gcc/libgcc/soft-fp/muldf3.c:45 (discriminator 85)
   24a24:	43e58593          	addi	a1,a1,1086
   24a28:	00b416b3          	sll	a3,s0,a1
/opt/riscv-gnu-toolchain/build-gcc-newlib-stage2/riscv32-vega-elf/libgcc/../../.././gcc/libgcc/soft-fp/muldf3.c:45 (discriminator 88)
   24a2c:	00f6e6b3          	or	a3,a3,a5
   24a30:	00d036b3          	snez	a3,a3
   24a34:	00d767b3          	or	a5,a4,a3
   24a38:	00000413          	li	s0,0
   24a3c:	f8dff06f          	j	249c8 <__muldf3+0x540>
/opt/riscv-gnu-toolchain/build-gcc-newlib-stage2/riscv32-vega-elf/libgcc/../../.././gcc/libgcc/soft-fp/muldf3.c:45 (discriminator 144)
   24a40:	00080437          	lui	s0,0x80
/opt/riscv-gnu-toolchain/build-gcc-newlib-stage2/riscv32-vega-elf/libgcc/../../.././gcc/libgcc/soft-fp/muldf3.c:45 (discriminator 5)
   24a44:	7ff00713          	li	a4,2047
/opt/riscv-gnu-toolchain/build-gcc-newlib-stage2/riscv32-vega-elf/libgcc/../../.././gcc/libgcc/soft-fp/muldf3.c:45 (discriminator 144)
   24a48:	00000613          	li	a2,0
   24a4c:	ee5ff06f          	j	24930 <__muldf3+0x4a8>
   24a50:	00080437          	lui	s0,0x80
   24a54:	00000693          	li	a3,0
   24a58:	fedff06f          	j	24a44 <__muldf3+0x5bc>
   24a5c:	00000413          	li	s0,0
   24a60:	00000693          	li	a3,0
   24a64:	7ff00713          	li	a4,2047
   24a68:	ec9ff06f          	j	24930 <__muldf3+0x4a8>
/opt/riscv-gnu-toolchain/build-gcc-newlib-stage2/riscv32-vega-elf/libgcc/../../.././gcc/libgcc/soft-fp/muldf3.c:45 (discriminator 111)
   24a6c:	00000413          	li	s0,0
   24a70:	00000693          	li	a3,0
   24a74:	00100713          	li	a4,1
   24a78:	eb9ff06f          	j	24930 <__muldf3+0x4a8>

00024a7c <__subdf3>:
__subdf3():
/opt/riscv-gnu-toolchain/build-gcc-newlib-stage2/riscv32-vega-elf/libgcc/../../.././gcc/libgcc/soft-fp/subdf3.c:42
   24a7c:	00100837          	lui	a6,0x100
   24a80:	fff80813          	addi	a6,a6,-1 # fffff <_heap_end+0xd703f>
/opt/riscv-gnu-toolchain/build-gcc-newlib-stage2/riscv32-vega-elf/libgcc/../../.././gcc/libgcc/soft-fp/subdf3.c:34
   24a84:	fe010113          	addi	sp,sp,-32
/opt/riscv-gnu-toolchain/build-gcc-newlib-stage2/riscv32-vega-elf/libgcc/../../.././gcc/libgcc/soft-fp/subdf3.c:42
   24a88:	00b878b3          	and	a7,a6,a1
   24a8c:	0145d713          	srli	a4,a1,0x14
/opt/riscv-gnu-toolchain/build-gcc-newlib-stage2/riscv32-vega-elf/libgcc/../../.././gcc/libgcc/soft-fp/subdf3.c:42 (discriminator 2)
   24a90:	01d55793          	srli	a5,a0,0x1d
/opt/riscv-gnu-toolchain/build-gcc-newlib-stage2/riscv32-vega-elf/libgcc/../../.././gcc/libgcc/soft-fp/subdf3.c:43
   24a94:	00d87833          	and	a6,a6,a3
/opt/riscv-gnu-toolchain/build-gcc-newlib-stage2/riscv32-vega-elf/libgcc/../../.././gcc/libgcc/soft-fp/subdf3.c:34
   24a98:	01412423          	sw	s4,8(sp)
/opt/riscv-gnu-toolchain/build-gcc-newlib-stage2/riscv32-vega-elf/libgcc/../../.././gcc/libgcc/soft-fp/subdf3.c:42
   24a9c:	7ff77a13          	andi	s4,a4,2047
/opt/riscv-gnu-toolchain/build-gcc-newlib-stage2/riscv32-vega-elf/libgcc/../../.././gcc/libgcc/soft-fp/subdf3.c:42 (discriminator 2)
   24aa0:	00389713          	slli	a4,a7,0x3
/opt/riscv-gnu-toolchain/build-gcc-newlib-stage2/riscv32-vega-elf/libgcc/../../.././gcc/libgcc/soft-fp/subdf3.c:43
   24aa4:	0146d893          	srli	a7,a3,0x14
/opt/riscv-gnu-toolchain/build-gcc-newlib-stage2/riscv32-vega-elf/libgcc/../../.././gcc/libgcc/soft-fp/subdf3.c:34
   24aa8:	01312623          	sw	s3,12(sp)
/opt/riscv-gnu-toolchain/build-gcc-newlib-stage2/riscv32-vega-elf/libgcc/../../.././gcc/libgcc/soft-fp/subdf3.c:42 (discriminator 2)
   24aac:	00e7e7b3          	or	a5,a5,a4
/opt/riscv-gnu-toolchain/build-gcc-newlib-stage2/riscv32-vega-elf/libgcc/../../.././gcc/libgcc/soft-fp/subdf3.c:42
   24ab0:	01f5d993          	srli	s3,a1,0x1f
/opt/riscv-gnu-toolchain/build-gcc-newlib-stage2/riscv32-vega-elf/libgcc/../../.././gcc/libgcc/soft-fp/subdf3.c:43 (discriminator 2)
   24ab4:	00381813          	slli	a6,a6,0x3
   24ab8:	01d65593          	srli	a1,a2,0x1d
/opt/riscv-gnu-toolchain/build-gcc-newlib-stage2/riscv32-vega-elf/libgcc/../../.././gcc/libgcc/soft-fp/subdf3.c:34
   24abc:	00112e23          	sw	ra,28(sp)
   24ac0:	00812c23          	sw	s0,24(sp)
   24ac4:	00912a23          	sw	s1,20(sp)
   24ac8:	01212823          	sw	s2,16(sp)
   24acc:	01512223          	sw	s5,4(sp)
/opt/riscv-gnu-toolchain/build-gcc-newlib-stage2/riscv32-vega-elf/libgcc/../../.././gcc/libgcc/soft-fp/subdf3.c:43
   24ad0:	7ff8f893          	andi	a7,a7,2047
/opt/riscv-gnu-toolchain/build-gcc-newlib-stage2/riscv32-vega-elf/libgcc/../../.././gcc/libgcc/soft-fp/subdf3.c:44
   24ad4:	7ff00713          	li	a4,2047
/opt/riscv-gnu-toolchain/build-gcc-newlib-stage2/riscv32-vega-elf/libgcc/../../.././gcc/libgcc/soft-fp/subdf3.c:42 (discriminator 2)
   24ad8:	00351513          	slli	a0,a0,0x3
/opt/riscv-gnu-toolchain/build-gcc-newlib-stage2/riscv32-vega-elf/libgcc/../../.././gcc/libgcc/soft-fp/subdf3.c:43
   24adc:	01f6d693          	srli	a3,a3,0x1f
/opt/riscv-gnu-toolchain/build-gcc-newlib-stage2/riscv32-vega-elf/libgcc/../../.././gcc/libgcc/soft-fp/subdf3.c:43 (discriminator 2)
   24ae0:	0105e5b3          	or	a1,a1,a6
   24ae4:	00361613          	slli	a2,a2,0x3
/opt/riscv-gnu-toolchain/build-gcc-newlib-stage2/riscv32-vega-elf/libgcc/../../.././gcc/libgcc/soft-fp/subdf3.c:44
   24ae8:	00e89663          	bne	a7,a4,24af4 <__subdf3+0x78>
/opt/riscv-gnu-toolchain/build-gcc-newlib-stage2/riscv32-vega-elf/libgcc/../../.././gcc/libgcc/soft-fp/subdf3.c:44 (discriminator 2)
   24aec:	00c5e733          	or	a4,a1,a2
   24af0:	00071463          	bnez	a4,24af8 <__subdf3+0x7c>
/opt/riscv-gnu-toolchain/build-gcc-newlib-stage2/riscv32-vega-elf/libgcc/../../.././gcc/libgcc/soft-fp/subdf3.c:44 (discriminator 3)
   24af4:	0016c693          	xori	a3,a3,1
/opt/riscv-gnu-toolchain/build-gcc-newlib-stage2/riscv32-vega-elf/libgcc/../../.././gcc/libgcc/soft-fp/subdf3.c:44 (discriminator 12)
   24af8:	411a0833          	sub	a6,s4,a7
   24afc:	7ff00313          	li	t1,2047
/opt/riscv-gnu-toolchain/build-gcc-newlib-stage2/riscv32-vega-elf/libgcc/../../.././gcc/libgcc/soft-fp/subdf3.c:44 (discriminator 11)
   24b00:	33369663          	bne	a3,s3,24e2c <__subdf3+0x3b0>
/opt/riscv-gnu-toolchain/build-gcc-newlib-stage2/riscv32-vega-elf/libgcc/../../.././gcc/libgcc/soft-fp/subdf3.c:44 (discriminator 12)
   24b04:	17005e63          	blez	a6,24c80 <__subdf3+0x204>
/opt/riscv-gnu-toolchain/build-gcc-newlib-stage2/riscv32-vega-elf/libgcc/../../.././gcc/libgcc/soft-fp/subdf3.c:44 (discriminator 14)
   24b08:	0a089863          	bnez	a7,24bb8 <__subdf3+0x13c>
/opt/riscv-gnu-toolchain/build-gcc-newlib-stage2/riscv32-vega-elf/libgcc/../../.././gcc/libgcc/soft-fp/subdf3.c:44 (discriminator 16)
   24b0c:	00c5e733          	or	a4,a1,a2
   24b10:	02070663          	beqz	a4,24b3c <__subdf3+0xc0>
/opt/riscv-gnu-toolchain/build-gcc-newlib-stage2/riscv32-vega-elf/libgcc/../../.././gcc/libgcc/soft-fp/subdf3.c:44 (discriminator 19)
   24b14:	fffa0813          	addi	a6,s4,-1
   24b18:	02081063          	bnez	a6,24b38 <__subdf3+0xbc>
/opt/riscv-gnu-toolchain/build-gcc-newlib-stage2/riscv32-vega-elf/libgcc/../../.././gcc/libgcc/soft-fp/subdf3.c:44 (discriminator 85)
   24b1c:	00c50633          	add	a2,a0,a2
   24b20:	00a63733          	sltu	a4,a2,a0
   24b24:	00b786b3          	add	a3,a5,a1
   24b28:	00060513          	mv	a0,a2
   24b2c:	00e687b3          	add	a5,a3,a4
/opt/riscv-gnu-toolchain/build-gcc-newlib-stage2/riscv32-vega-elf/libgcc/../../.././gcc/libgcc/soft-fp/subdf3.c:44 (discriminator 71)
   24b30:	00100a13          	li	s4,1
/opt/riscv-gnu-toolchain/build-gcc-newlib-stage2/riscv32-vega-elf/libgcc/../../.././gcc/libgcc/soft-fp/subdf3.c:44
   24b34:	0d40006f          	j	24c08 <__subdf3+0x18c>
/opt/riscv-gnu-toolchain/build-gcc-newlib-stage2/riscv32-vega-elf/libgcc/../../.././gcc/libgcc/soft-fp/subdf3.c:44 (discriminator 29)
   24b38:	086a1663          	bne	s4,t1,24bc4 <__subdf3+0x148>
/opt/riscv-gnu-toolchain/build-gcc-newlib-stage2/riscv32-vega-elf/libgcc/../../.././gcc/libgcc/soft-fp/subdf3.c:45 (discriminator 79)
   24b3c:	01d79693          	slli	a3,a5,0x1d
   24b40:	00355513          	srli	a0,a0,0x3
   24b44:	7ff00713          	li	a4,2047
   24b48:	00a6e6b3          	or	a3,a3,a0
   24b4c:	0037d793          	srli	a5,a5,0x3
   24b50:	00ea1e63          	bne	s4,a4,24b6c <__subdf3+0xf0>
/opt/riscv-gnu-toolchain/build-gcc-newlib-stage2/riscv32-vega-elf/libgcc/../../.././gcc/libgcc/soft-fp/subdf3.c:45 (discriminator 80)
   24b54:	00f6e6b3          	or	a3,a3,a5
/opt/riscv-gnu-toolchain/build-gcc-newlib-stage2/riscv32-vega-elf/libgcc/../../.././gcc/libgcc/soft-fp/subdf3.c:45 (discriminator 79)
   24b58:	00000793          	li	a5,0
/opt/riscv-gnu-toolchain/build-gcc-newlib-stage2/riscv32-vega-elf/libgcc/../../.././gcc/libgcc/soft-fp/subdf3.c:45 (discriminator 80)
   24b5c:	00068863          	beqz	a3,24b6c <__subdf3+0xf0>
/opt/riscv-gnu-toolchain/build-gcc-newlib-stage2/riscv32-vega-elf/libgcc/../../.././gcc/libgcc/soft-fp/subdf3.c:45 (discriminator 84)
   24b60:	000807b7          	lui	a5,0x80
   24b64:	00000693          	li	a3,0
   24b68:	00000993          	li	s3,0
/opt/riscv-gnu-toolchain/build-gcc-newlib-stage2/riscv32-vega-elf/libgcc/../../.././gcc/libgcc/soft-fp/subdf3.c:45 (discriminator 90)
   24b6c:	014a1713          	slli	a4,s4,0x14
   24b70:	7ff00637          	lui	a2,0x7ff00
   24b74:	00c79793          	slli	a5,a5,0xc
   24b78:	00c77733          	and	a4,a4,a2
/opt/riscv-gnu-toolchain/build-gcc-newlib-stage2/riscv32-vega-elf/libgcc/../../.././gcc/libgcc/soft-fp/subdf3.c:49
   24b7c:	01c12083          	lw	ra,28(sp)
   24b80:	01812403          	lw	s0,24(sp)
/opt/riscv-gnu-toolchain/build-gcc-newlib-stage2/riscv32-vega-elf/libgcc/../../.././gcc/libgcc/soft-fp/subdf3.c:45 (discriminator 90)
   24b84:	00c7d793          	srli	a5,a5,0xc
   24b88:	00f767b3          	or	a5,a4,a5
   24b8c:	01f99713          	slli	a4,s3,0x1f
   24b90:	00e7e633          	or	a2,a5,a4
/opt/riscv-gnu-toolchain/build-gcc-newlib-stage2/riscv32-vega-elf/libgcc/../../.././gcc/libgcc/soft-fp/subdf3.c:49
   24b94:	01412483          	lw	s1,20(sp)
   24b98:	01012903          	lw	s2,16(sp)
   24b9c:	00c12983          	lw	s3,12(sp)
   24ba0:	00812a03          	lw	s4,8(sp)
   24ba4:	00412a83          	lw	s5,4(sp)
   24ba8:	00068513          	mv	a0,a3
   24bac:	00060593          	mv	a1,a2
   24bb0:	02010113          	addi	sp,sp,32
   24bb4:	00008067          	ret
/opt/riscv-gnu-toolchain/build-gcc-newlib-stage2/riscv32-vega-elf/libgcc/../../.././gcc/libgcc/soft-fp/subdf3.c:44 (discriminator 17)
   24bb8:	f86a02e3          	beq	s4,t1,24b3c <__subdf3+0xc0>
/opt/riscv-gnu-toolchain/build-gcc-newlib-stage2/riscv32-vega-elf/libgcc/../../.././gcc/libgcc/soft-fp/subdf3.c:44 (discriminator 43)
   24bbc:	00800737          	lui	a4,0x800
   24bc0:	00e5e5b3          	or	a1,a1,a4
/opt/riscv-gnu-toolchain/build-gcc-newlib-stage2/riscv32-vega-elf/libgcc/../../.././gcc/libgcc/soft-fp/subdf3.c:44 (discriminator 52)
   24bc4:	03800713          	li	a4,56
   24bc8:	0b074663          	blt	a4,a6,24c74 <__subdf3+0x1f8>
/opt/riscv-gnu-toolchain/build-gcc-newlib-stage2/riscv32-vega-elf/libgcc/../../.././gcc/libgcc/soft-fp/subdf3.c:44 (discriminator 53)
   24bcc:	01f00713          	li	a4,31
   24bd0:	02000893          	li	a7,32
   24bd4:	07074863          	blt	a4,a6,24c44 <__subdf3+0x1c8>
/opt/riscv-gnu-toolchain/build-gcc-newlib-stage2/riscv32-vega-elf/libgcc/../../.././gcc/libgcc/soft-fp/subdf3.c:44 (discriminator 55)
   24bd8:	410888b3          	sub	a7,a7,a6
   24bdc:	01159733          	sll	a4,a1,a7
   24be0:	010656b3          	srl	a3,a2,a6
/opt/riscv-gnu-toolchain/build-gcc-newlib-stage2/riscv32-vega-elf/libgcc/../../.././gcc/libgcc/soft-fp/subdf3.c:44 (discriminator 60)
   24be4:	011618b3          	sll	a7,a2,a7
/opt/riscv-gnu-toolchain/build-gcc-newlib-stage2/riscv32-vega-elf/libgcc/../../.././gcc/libgcc/soft-fp/subdf3.c:44 (discriminator 55)
   24be8:	00d76733          	or	a4,a4,a3
/opt/riscv-gnu-toolchain/build-gcc-newlib-stage2/riscv32-vega-elf/libgcc/../../.././gcc/libgcc/soft-fp/subdf3.c:44 (discriminator 60)
   24bec:	011038b3          	snez	a7,a7
/opt/riscv-gnu-toolchain/build-gcc-newlib-stage2/riscv32-vega-elf/libgcc/../../.././gcc/libgcc/soft-fp/subdf3.c:44 (discriminator 62)
   24bf0:	01176733          	or	a4,a4,a7
   24bf4:	0105d833          	srl	a6,a1,a6
/opt/riscv-gnu-toolchain/build-gcc-newlib-stage2/riscv32-vega-elf/libgcc/../../.././gcc/libgcc/soft-fp/subdf3.c:44
   24bf8:	00a70533          	add	a0,a4,a0
/opt/riscv-gnu-toolchain/build-gcc-newlib-stage2/riscv32-vega-elf/libgcc/../../.././gcc/libgcc/soft-fp/subdf3.c:44 (discriminator 69)
   24bfc:	00f80833          	add	a6,a6,a5
   24c00:	00e53733          	sltu	a4,a0,a4
   24c04:	00e807b3          	add	a5,a6,a4
/opt/riscv-gnu-toolchain/build-gcc-newlib-stage2/riscv32-vega-elf/libgcc/../../.././gcc/libgcc/soft-fp/subdf3.c:44 (discriminator 127)
   24c08:	00879713          	slli	a4,a5,0x8
   24c0c:	1c075c63          	bgez	a4,24de4 <__subdf3+0x368>
/opt/riscv-gnu-toolchain/build-gcc-newlib-stage2/riscv32-vega-elf/libgcc/../../.././gcc/libgcc/soft-fp/subdf3.c:44 (discriminator 187)
   24c10:	001a0a13          	addi	s4,s4,1
   24c14:	7ff00713          	li	a4,2047
   24c18:	5cea0263          	beq	s4,a4,251dc <__subdf3+0x760>
   24c1c:	ff800737          	lui	a4,0xff800
   24c20:	fff70713          	addi	a4,a4,-1 # ff7fffff <_heap_end+0xff7d703f>
   24c24:	00e7f7b3          	and	a5,a5,a4
   24c28:	00155713          	srli	a4,a0,0x1
   24c2c:	00157513          	andi	a0,a0,1
   24c30:	00a76733          	or	a4,a4,a0
   24c34:	01f79513          	slli	a0,a5,0x1f
   24c38:	00e56533          	or	a0,a0,a4
   24c3c:	0017d793          	srli	a5,a5,0x1
   24c40:	1a40006f          	j	24de4 <__subdf3+0x368>
/opt/riscv-gnu-toolchain/build-gcc-newlib-stage2/riscv32-vega-elf/libgcc/../../.././gcc/libgcc/soft-fp/subdf3.c:44 (discriminator 56)
   24c44:	fe080713          	addi	a4,a6,-32
   24c48:	00e5d733          	srl	a4,a1,a4
/opt/riscv-gnu-toolchain/build-gcc-newlib-stage2/riscv32-vega-elf/libgcc/../../.././gcc/libgcc/soft-fp/subdf3.c:44 (discriminator 64)
   24c4c:	00000693          	li	a3,0
/opt/riscv-gnu-toolchain/build-gcc-newlib-stage2/riscv32-vega-elf/libgcc/../../.././gcc/libgcc/soft-fp/subdf3.c:44 (discriminator 56)
   24c50:	01180863          	beq	a6,a7,24c60 <__subdf3+0x1e4>
/opt/riscv-gnu-toolchain/build-gcc-newlib-stage2/riscv32-vega-elf/libgcc/../../.././gcc/libgcc/soft-fp/subdf3.c:44 (discriminator 63)
   24c54:	04000693          	li	a3,64
   24c58:	410686b3          	sub	a3,a3,a6
   24c5c:	00d596b3          	sll	a3,a1,a3
/opt/riscv-gnu-toolchain/build-gcc-newlib-stage2/riscv32-vega-elf/libgcc/../../.././gcc/libgcc/soft-fp/subdf3.c:44 (discriminator 66)
   24c60:	00c6e6b3          	or	a3,a3,a2
   24c64:	00d036b3          	snez	a3,a3
   24c68:	00d76733          	or	a4,a4,a3
/opt/riscv-gnu-toolchain/build-gcc-newlib-stage2/riscv32-vega-elf/libgcc/../../.././gcc/libgcc/soft-fp/subdf3.c:44
   24c6c:	00000813          	li	a6,0
   24c70:	f89ff06f          	j	24bf8 <__subdf3+0x17c>
/opt/riscv-gnu-toolchain/build-gcc-newlib-stage2/riscv32-vega-elf/libgcc/../../.././gcc/libgcc/soft-fp/subdf3.c:44 (discriminator 54)
   24c74:	00c5e733          	or	a4,a1,a2
   24c78:	00e03733          	snez	a4,a4
   24c7c:	ff1ff06f          	j	24c6c <__subdf3+0x1f0>
/opt/riscv-gnu-toolchain/build-gcc-newlib-stage2/riscv32-vega-elf/libgcc/../../.././gcc/libgcc/soft-fp/subdf3.c:44 (discriminator 15)
   24c80:	0c080663          	beqz	a6,24d4c <__subdf3+0x2d0>
/opt/riscv-gnu-toolchain/build-gcc-newlib-stage2/riscv32-vega-elf/libgcc/../../.././gcc/libgcc/soft-fp/subdf3.c:44 (discriminator 71)
   24c84:	41488733          	sub	a4,a7,s4
   24c88:	020a1463          	bnez	s4,24cb0 <__subdf3+0x234>
/opt/riscv-gnu-toolchain/build-gcc-newlib-stage2/riscv32-vega-elf/libgcc/../../.././gcc/libgcc/soft-fp/subdf3.c:44 (discriminator 73)
   24c8c:	00a7e6b3          	or	a3,a5,a0
   24c90:	00068863          	beqz	a3,24ca0 <__subdf3+0x224>
/opt/riscv-gnu-toolchain/build-gcc-newlib-stage2/riscv32-vega-elf/libgcc/../../.././gcc/libgcc/soft-fp/subdf3.c:44 (discriminator 76)
   24c94:	fff70693          	addi	a3,a4,-1
   24c98:	e80682e3          	beqz	a3,24b1c <__subdf3+0xa0>
/opt/riscv-gnu-toolchain/build-gcc-newlib-stage2/riscv32-vega-elf/libgcc/../../.././gcc/libgcc/soft-fp/subdf3.c:44 (discriminator 86)
   24c9c:	02671263          	bne	a4,t1,24cc0 <__subdf3+0x244>
/opt/riscv-gnu-toolchain/build-gcc-newlib-stage2/riscv32-vega-elf/libgcc/../../.././gcc/libgcc/soft-fp/subdf3.c:44 (discriminator 96)
   24ca0:	00058793          	mv	a5,a1
   24ca4:	00060513          	mv	a0,a2
/opt/riscv-gnu-toolchain/build-gcc-newlib-stage2/riscv32-vega-elf/libgcc/../../.././gcc/libgcc/soft-fp/subdf3.c:44 (discriminator 71)
   24ca8:	00070a13          	mv	s4,a4
   24cac:	e91ff06f          	j	24b3c <__subdf3+0xc0>
/opt/riscv-gnu-toolchain/build-gcc-newlib-stage2/riscv32-vega-elf/libgcc/../../.././gcc/libgcc/soft-fp/subdf3.c:44 (discriminator 74)
   24cb0:	52688c63          	beq	a7,t1,251e8 <__subdf3+0x76c>
/opt/riscv-gnu-toolchain/build-gcc-newlib-stage2/riscv32-vega-elf/libgcc/../../.././gcc/libgcc/soft-fp/subdf3.c:44 (discriminator 100)
   24cb4:	008006b7          	lui	a3,0x800
   24cb8:	00d7e7b3          	or	a5,a5,a3
/opt/riscv-gnu-toolchain/build-gcc-newlib-stage2/riscv32-vega-elf/libgcc/../../.././gcc/libgcc/soft-fp/subdf3.c:44 (discriminator 71)
   24cbc:	00070693          	mv	a3,a4
/opt/riscv-gnu-toolchain/build-gcc-newlib-stage2/riscv32-vega-elf/libgcc/../../.././gcc/libgcc/soft-fp/subdf3.c:44 (discriminator 109)
   24cc0:	03800713          	li	a4,56
   24cc4:	06d74e63          	blt	a4,a3,24d40 <__subdf3+0x2c4>
/opt/riscv-gnu-toolchain/build-gcc-newlib-stage2/riscv32-vega-elf/libgcc/../../.././gcc/libgcc/soft-fp/subdf3.c:44 (discriminator 110)
   24cc8:	01f00713          	li	a4,31
   24ccc:	02000313          	li	t1,32
   24cd0:	04d74063          	blt	a4,a3,24d10 <__subdf3+0x294>
/opt/riscv-gnu-toolchain/build-gcc-newlib-stage2/riscv32-vega-elf/libgcc/../../.././gcc/libgcc/soft-fp/subdf3.c:44 (discriminator 112)
   24cd4:	40d30333          	sub	t1,t1,a3
   24cd8:	00679733          	sll	a4,a5,t1
   24cdc:	00d55833          	srl	a6,a0,a3
/opt/riscv-gnu-toolchain/build-gcc-newlib-stage2/riscv32-vega-elf/libgcc/../../.././gcc/libgcc/soft-fp/subdf3.c:44 (discriminator 117)
   24ce0:	00651333          	sll	t1,a0,t1
/opt/riscv-gnu-toolchain/build-gcc-newlib-stage2/riscv32-vega-elf/libgcc/../../.././gcc/libgcc/soft-fp/subdf3.c:44 (discriminator 112)
   24ce4:	01076733          	or	a4,a4,a6
/opt/riscv-gnu-toolchain/build-gcc-newlib-stage2/riscv32-vega-elf/libgcc/../../.././gcc/libgcc/soft-fp/subdf3.c:44 (discriminator 117)
   24ce8:	00603333          	snez	t1,t1
/opt/riscv-gnu-toolchain/build-gcc-newlib-stage2/riscv32-vega-elf/libgcc/../../.././gcc/libgcc/soft-fp/subdf3.c:44 (discriminator 119)
   24cec:	00676733          	or	a4,a4,t1
   24cf0:	00d7d6b3          	srl	a3,a5,a3
/opt/riscv-gnu-toolchain/build-gcc-newlib-stage2/riscv32-vega-elf/libgcc/../../.././gcc/libgcc/soft-fp/subdf3.c:44 (discriminator 126)
   24cf4:	00c70633          	add	a2,a4,a2
   24cf8:	00b686b3          	add	a3,a3,a1
   24cfc:	00e63733          	sltu	a4,a2,a4
   24d00:	00060513          	mv	a0,a2
   24d04:	00e687b3          	add	a5,a3,a4
/opt/riscv-gnu-toolchain/build-gcc-newlib-stage2/riscv32-vega-elf/libgcc/../../.././gcc/libgcc/soft-fp/subdf3.c:44 (discriminator 71)
   24d08:	00088a13          	mv	s4,a7
   24d0c:	efdff06f          	j	24c08 <__subdf3+0x18c>
/opt/riscv-gnu-toolchain/build-gcc-newlib-stage2/riscv32-vega-elf/libgcc/../../.././gcc/libgcc/soft-fp/subdf3.c:44 (discriminator 113)
   24d10:	fe068713          	addi	a4,a3,-32 # 7fffe0 <_heap_end+0x7d7020>
   24d14:	00e7d733          	srl	a4,a5,a4
/opt/riscv-gnu-toolchain/build-gcc-newlib-stage2/riscv32-vega-elf/libgcc/../../.././gcc/libgcc/soft-fp/subdf3.c:44 (discriminator 121)
   24d18:	00000813          	li	a6,0
/opt/riscv-gnu-toolchain/build-gcc-newlib-stage2/riscv32-vega-elf/libgcc/../../.././gcc/libgcc/soft-fp/subdf3.c:44 (discriminator 113)
   24d1c:	00668863          	beq	a3,t1,24d2c <__subdf3+0x2b0>
/opt/riscv-gnu-toolchain/build-gcc-newlib-stage2/riscv32-vega-elf/libgcc/../../.././gcc/libgcc/soft-fp/subdf3.c:44 (discriminator 120)
   24d20:	04000813          	li	a6,64
   24d24:	40d80833          	sub	a6,a6,a3
   24d28:	01079833          	sll	a6,a5,a6
/opt/riscv-gnu-toolchain/build-gcc-newlib-stage2/riscv32-vega-elf/libgcc/../../.././gcc/libgcc/soft-fp/subdf3.c:44 (discriminator 123)
   24d2c:	00a86833          	or	a6,a6,a0
   24d30:	01003833          	snez	a6,a6
   24d34:	01076733          	or	a4,a4,a6
/opt/riscv-gnu-toolchain/build-gcc-newlib-stage2/riscv32-vega-elf/libgcc/../../.././gcc/libgcc/soft-fp/subdf3.c:44
   24d38:	00000693          	li	a3,0
   24d3c:	fb9ff06f          	j	24cf4 <__subdf3+0x278>
/opt/riscv-gnu-toolchain/build-gcc-newlib-stage2/riscv32-vega-elf/libgcc/../../.././gcc/libgcc/soft-fp/subdf3.c:44 (discriminator 111)
   24d40:	00a7e733          	or	a4,a5,a0
   24d44:	00e03733          	snez	a4,a4
   24d48:	ff1ff06f          	j	24d38 <__subdf3+0x2bc>
/opt/riscv-gnu-toolchain/build-gcc-newlib-stage2/riscv32-vega-elf/libgcc/../../.././gcc/libgcc/soft-fp/subdf3.c:44 (discriminator 72)
   24d4c:	001a0713          	addi	a4,s4,1
   24d50:	7fe77693          	andi	a3,a4,2046
   24d54:	06069463          	bnez	a3,24dbc <__subdf3+0x340>
/opt/riscv-gnu-toolchain/build-gcc-newlib-stage2/riscv32-vega-elf/libgcc/../../.././gcc/libgcc/soft-fp/subdf3.c:44 (discriminator 73)
   24d58:	00a7e733          	or	a4,a5,a0
/opt/riscv-gnu-toolchain/build-gcc-newlib-stage2/riscv32-vega-elf/libgcc/../../.././gcc/libgcc/soft-fp/subdf3.c:44 (discriminator 128)
   24d5c:	040a1063          	bnez	s4,24d9c <__subdf3+0x320>
/opt/riscv-gnu-toolchain/build-gcc-newlib-stage2/riscv32-vega-elf/libgcc/../../.././gcc/libgcc/soft-fp/subdf3.c:44 (discriminator 130)
   24d60:	2c070063          	beqz	a4,25020 <__subdf3+0x5a4>
/opt/riscv-gnu-toolchain/build-gcc-newlib-stage2/riscv32-vega-elf/libgcc/../../.././gcc/libgcc/soft-fp/subdf3.c:44 (discriminator 2)
   24d64:	00c5e733          	or	a4,a1,a2
/opt/riscv-gnu-toolchain/build-gcc-newlib-stage2/riscv32-vega-elf/libgcc/../../.././gcc/libgcc/soft-fp/subdf3.c:44 (discriminator 133)
   24d68:	44070a63          	beqz	a4,251bc <__subdf3+0x740>
/opt/riscv-gnu-toolchain/build-gcc-newlib-stage2/riscv32-vega-elf/libgcc/../../.././gcc/libgcc/soft-fp/subdf3.c:44
   24d6c:	00c50633          	add	a2,a0,a2
/opt/riscv-gnu-toolchain/build-gcc-newlib-stage2/riscv32-vega-elf/libgcc/../../.././gcc/libgcc/soft-fp/subdf3.c:44 (discriminator 139)
   24d70:	00b786b3          	add	a3,a5,a1
   24d74:	00a63533          	sltu	a0,a2,a0
   24d78:	00a685b3          	add	a1,a3,a0
   24d7c:	00859793          	slli	a5,a1,0x8
   24d80:	2a07d063          	bgez	a5,25020 <__subdf3+0x5a4>
/opt/riscv-gnu-toolchain/build-gcc-newlib-stage2/riscv32-vega-elf/libgcc/../../.././gcc/libgcc/soft-fp/subdf3.c:44 (discriminator 141)
   24d84:	ff8007b7          	lui	a5,0xff800
   24d88:	fff78793          	addi	a5,a5,-1 # ff7fffff <_heap_end+0xff7d703f>
   24d8c:	00f5f7b3          	and	a5,a1,a5
/opt/riscv-gnu-toolchain/build-gcc-newlib-stage2/riscv32-vega-elf/libgcc/../../.././gcc/libgcc/soft-fp/subdf3.c:44 (discriminator 139)
   24d90:	00060513          	mv	a0,a2
/opt/riscv-gnu-toolchain/build-gcc-newlib-stage2/riscv32-vega-elf/libgcc/../../.././gcc/libgcc/soft-fp/subdf3.c:44 (discriminator 141)
   24d94:	00100a13          	li	s4,1
   24d98:	da5ff06f          	j	24b3c <__subdf3+0xc0>
/opt/riscv-gnu-toolchain/build-gcc-newlib-stage2/riscv32-vega-elf/libgcc/../../.././gcc/libgcc/soft-fp/subdf3.c:44 (discriminator 158)
   24d9c:	42070663          	beqz	a4,251c8 <__subdf3+0x74c>
/opt/riscv-gnu-toolchain/build-gcc-newlib-stage2/riscv32-vega-elf/libgcc/../../.././gcc/libgcc/soft-fp/subdf3.c:44 (discriminator 160)
   24da0:	00c5e633          	or	a2,a1,a2
/opt/riscv-gnu-toolchain/build-gcc-newlib-stage2/riscv32-vega-elf/libgcc/../../.././gcc/libgcc/soft-fp/subdf3.c:44 (discriminator 158)
   24da4:	00030a13          	mv	s4,t1
/opt/riscv-gnu-toolchain/build-gcc-newlib-stage2/riscv32-vega-elf/libgcc/../../.././gcc/libgcc/soft-fp/subdf3.c:44 (discriminator 160)
   24da8:	d8060ae3          	beqz	a2,24b3c <__subdf3+0xc0>
/opt/riscv-gnu-toolchain/build-gcc-newlib-stage2/riscv32-vega-elf/libgcc/../../.././gcc/libgcc/soft-fp/subdf3.c:44 (discriminator 356)
   24dac:	00000993          	li	s3,0
/opt/riscv-gnu-toolchain/build-gcc-newlib-stage2/riscv32-vega-elf/libgcc/../../.././gcc/libgcc/soft-fp/subdf3.c:44 (discriminator 359)
   24db0:	004007b7          	lui	a5,0x400
   24db4:	00000513          	li	a0,0
   24db8:	d85ff06f          	j	24b3c <__subdf3+0xc0>
/opt/riscv-gnu-toolchain/build-gcc-newlib-stage2/riscv32-vega-elf/libgcc/../../.././gcc/libgcc/soft-fp/subdf3.c:44 (discriminator 129)
   24dbc:	40670e63          	beq	a4,t1,251d8 <__subdf3+0x75c>
   24dc0:	00c50633          	add	a2,a0,a2
   24dc4:	00a63533          	sltu	a0,a2,a0
   24dc8:	00b786b3          	add	a3,a5,a1
   24dcc:	00a686b3          	add	a3,a3,a0
   24dd0:	01f69513          	slli	a0,a3,0x1f
   24dd4:	00165613          	srli	a2,a2,0x1
   24dd8:	00c56533          	or	a0,a0,a2
   24ddc:	0016d793          	srli	a5,a3,0x1
   24de0:	00070a13          	mv	s4,a4
/opt/riscv-gnu-toolchain/build-gcc-newlib-stage2/riscv32-vega-elf/libgcc/../../.././gcc/libgcc/soft-fp/subdf3.c:45 (discriminator 36)
   24de4:	00757713          	andi	a4,a0,7
   24de8:	02070063          	beqz	a4,24e08 <__subdf3+0x38c>
/opt/riscv-gnu-toolchain/build-gcc-newlib-stage2/riscv32-vega-elf/libgcc/../../.././gcc/libgcc/soft-fp/subdf3.c:45 (discriminator 40)
   24dec:	00f57713          	andi	a4,a0,15
   24df0:	00400693          	li	a3,4
   24df4:	00d70a63          	beq	a4,a3,24e08 <__subdf3+0x38c>
/opt/riscv-gnu-toolchain/build-gcc-newlib-stage2/riscv32-vega-elf/libgcc/../../.././gcc/libgcc/soft-fp/subdf3.c:45 (discriminator 44)
   24df8:	00d50733          	add	a4,a0,a3
   24dfc:	00a736b3          	sltu	a3,a4,a0
   24e00:	00d787b3          	add	a5,a5,a3
   24e04:	00070513          	mv	a0,a4
/opt/riscv-gnu-toolchain/build-gcc-newlib-stage2/riscv32-vega-elf/libgcc/../../.././gcc/libgcc/soft-fp/subdf3.c:45 (discriminator 62)
   24e08:	00879713          	slli	a4,a5,0x8
   24e0c:	d20758e3          	bgez	a4,24b3c <__subdf3+0xc0>
/opt/riscv-gnu-toolchain/build-gcc-newlib-stage2/riscv32-vega-elf/libgcc/../../.././gcc/libgcc/soft-fp/subdf3.c:45 (discriminator 63)
   24e10:	001a0a13          	addi	s4,s4,1
   24e14:	7ff00713          	li	a4,2047
   24e18:	3cea0263          	beq	s4,a4,251dc <__subdf3+0x760>
   24e1c:	ff800737          	lui	a4,0xff800
   24e20:	fff70713          	addi	a4,a4,-1 # ff7fffff <_heap_end+0xff7d703f>
   24e24:	00e7f7b3          	and	a5,a5,a4
   24e28:	d15ff06f          	j	24b3c <__subdf3+0xc0>
/opt/riscv-gnu-toolchain/build-gcc-newlib-stage2/riscv32-vega-elf/libgcc/../../.././gcc/libgcc/soft-fp/subdf3.c:44 (discriminator 13)
   24e2c:	0f005463          	blez	a6,24f14 <__subdf3+0x498>
/opt/riscv-gnu-toolchain/build-gcc-newlib-stage2/riscv32-vega-elf/libgcc/../../.././gcc/libgcc/soft-fp/subdf3.c:44 (discriminator 205)
   24e30:	08089c63          	bnez	a7,24ec8 <__subdf3+0x44c>
/opt/riscv-gnu-toolchain/build-gcc-newlib-stage2/riscv32-vega-elf/libgcc/../../.././gcc/libgcc/soft-fp/subdf3.c:44 (discriminator 207)
   24e34:	00c5e733          	or	a4,a1,a2
   24e38:	d00702e3          	beqz	a4,24b3c <__subdf3+0xc0>
/opt/riscv-gnu-toolchain/build-gcc-newlib-stage2/riscv32-vega-elf/libgcc/../../.././gcc/libgcc/soft-fp/subdf3.c:44 (discriminator 210)
   24e3c:	fffa0813          	addi	a6,s4,-1
   24e40:	02081063          	bnez	a6,24e60 <__subdf3+0x3e4>
/opt/riscv-gnu-toolchain/build-gcc-newlib-stage2/riscv32-vega-elf/libgcc/../../.././gcc/libgcc/soft-fp/subdf3.c:44 (discriminator 219)
   24e44:	40c50633          	sub	a2,a0,a2
   24e48:	00c53733          	sltu	a4,a0,a2
   24e4c:	40b786b3          	sub	a3,a5,a1
   24e50:	00060513          	mv	a0,a2
   24e54:	40e687b3          	sub	a5,a3,a4
/opt/riscv-gnu-toolchain/build-gcc-newlib-stage2/riscv32-vega-elf/libgcc/../../.././gcc/libgcc/soft-fp/subdf3.c:44 (discriminator 262)
   24e58:	00100a13          	li	s4,1
/opt/riscv-gnu-toolchain/build-gcc-newlib-stage2/riscv32-vega-elf/libgcc/../../.././gcc/libgcc/soft-fp/subdf3.c:44
   24e5c:	0500006f          	j	24eac <__subdf3+0x430>
/opt/riscv-gnu-toolchain/build-gcc-newlib-stage2/riscv32-vega-elf/libgcc/../../.././gcc/libgcc/soft-fp/subdf3.c:44 (discriminator 220)
   24e60:	cc6a0ee3          	beq	s4,t1,24b3c <__subdf3+0xc0>
/opt/riscv-gnu-toolchain/build-gcc-newlib-stage2/riscv32-vega-elf/libgcc/../../.././gcc/libgcc/soft-fp/subdf3.c:44 (discriminator 243)
   24e64:	03800713          	li	a4,56
   24e68:	0b074063          	blt	a4,a6,24f08 <__subdf3+0x48c>
/opt/riscv-gnu-toolchain/build-gcc-newlib-stage2/riscv32-vega-elf/libgcc/../../.././gcc/libgcc/soft-fp/subdf3.c:44 (discriminator 244)
   24e6c:	01f00713          	li	a4,31
   24e70:	02000893          	li	a7,32
   24e74:	07074263          	blt	a4,a6,24ed8 <__subdf3+0x45c>
/opt/riscv-gnu-toolchain/build-gcc-newlib-stage2/riscv32-vega-elf/libgcc/../../.././gcc/libgcc/soft-fp/subdf3.c:44 (discriminator 246)
   24e78:	410888b3          	sub	a7,a7,a6
   24e7c:	01159733          	sll	a4,a1,a7
   24e80:	010656b3          	srl	a3,a2,a6
/opt/riscv-gnu-toolchain/build-gcc-newlib-stage2/riscv32-vega-elf/libgcc/../../.././gcc/libgcc/soft-fp/subdf3.c:44 (discriminator 251)
   24e84:	011618b3          	sll	a7,a2,a7
/opt/riscv-gnu-toolchain/build-gcc-newlib-stage2/riscv32-vega-elf/libgcc/../../.././gcc/libgcc/soft-fp/subdf3.c:44 (discriminator 246)
   24e88:	00d76733          	or	a4,a4,a3
/opt/riscv-gnu-toolchain/build-gcc-newlib-stage2/riscv32-vega-elf/libgcc/../../.././gcc/libgcc/soft-fp/subdf3.c:44 (discriminator 251)
   24e8c:	011038b3          	snez	a7,a7
/opt/riscv-gnu-toolchain/build-gcc-newlib-stage2/riscv32-vega-elf/libgcc/../../.././gcc/libgcc/soft-fp/subdf3.c:44 (discriminator 253)
   24e90:	01176733          	or	a4,a4,a7
   24e94:	0105d833          	srl	a6,a1,a6
/opt/riscv-gnu-toolchain/build-gcc-newlib-stage2/riscv32-vega-elf/libgcc/../../.././gcc/libgcc/soft-fp/subdf3.c:44 (discriminator 260)
   24e98:	40e50733          	sub	a4,a0,a4
   24e9c:	00e536b3          	sltu	a3,a0,a4
   24ea0:	41078833          	sub	a6,a5,a6
   24ea4:	00070513          	mv	a0,a4
   24ea8:	40d807b3          	sub	a5,a6,a3
/opt/riscv-gnu-toolchain/build-gcc-newlib-stage2/riscv32-vega-elf/libgcc/../../.././gcc/libgcc/soft-fp/subdf3.c:44 (discriminator 318)
   24eac:	00879713          	slli	a4,a5,0x8
   24eb0:	f2075ae3          	bgez	a4,24de4 <__subdf3+0x368>
/opt/riscv-gnu-toolchain/build-gcc-newlib-stage2/riscv32-vega-elf/libgcc/../../.././gcc/libgcc/soft-fp/subdf3.c:44 (discriminator 378)
   24eb4:	00800937          	lui	s2,0x800
   24eb8:	fff90913          	addi	s2,s2,-1 # 7fffff <_heap_end+0x7d703f>
   24ebc:	0127f933          	and	s2,a5,s2
   24ec0:	00050a93          	mv	s5,a0
   24ec4:	2140006f          	j	250d8 <__subdf3+0x65c>
/opt/riscv-gnu-toolchain/build-gcc-newlib-stage2/riscv32-vega-elf/libgcc/../../.././gcc/libgcc/soft-fp/subdf3.c:44 (discriminator 208)
   24ec8:	c66a0ae3          	beq	s4,t1,24b3c <__subdf3+0xc0>
/opt/riscv-gnu-toolchain/build-gcc-newlib-stage2/riscv32-vega-elf/libgcc/../../.././gcc/libgcc/soft-fp/subdf3.c:44 (discriminator 234)
   24ecc:	00800737          	lui	a4,0x800
   24ed0:	00e5e5b3          	or	a1,a1,a4
   24ed4:	f91ff06f          	j	24e64 <__subdf3+0x3e8>
/opt/riscv-gnu-toolchain/build-gcc-newlib-stage2/riscv32-vega-elf/libgcc/../../.././gcc/libgcc/soft-fp/subdf3.c:44 (discriminator 247)
   24ed8:	fe080713          	addi	a4,a6,-32
   24edc:	00e5d733          	srl	a4,a1,a4
/opt/riscv-gnu-toolchain/build-gcc-newlib-stage2/riscv32-vega-elf/libgcc/../../.././gcc/libgcc/soft-fp/subdf3.c:44 (discriminator 255)
   24ee0:	00000693          	li	a3,0
/opt/riscv-gnu-toolchain/build-gcc-newlib-stage2/riscv32-vega-elf/libgcc/../../.././gcc/libgcc/soft-fp/subdf3.c:44 (discriminator 247)
   24ee4:	01180863          	beq	a6,a7,24ef4 <__subdf3+0x478>
/opt/riscv-gnu-toolchain/build-gcc-newlib-stage2/riscv32-vega-elf/libgcc/../../.././gcc/libgcc/soft-fp/subdf3.c:44 (discriminator 254)
   24ee8:	04000693          	li	a3,64
   24eec:	410686b3          	sub	a3,a3,a6
   24ef0:	00d596b3          	sll	a3,a1,a3
/opt/riscv-gnu-toolchain/build-gcc-newlib-stage2/riscv32-vega-elf/libgcc/../../.././gcc/libgcc/soft-fp/subdf3.c:44 (discriminator 257)
   24ef4:	00c6e6b3          	or	a3,a3,a2
   24ef8:	00d036b3          	snez	a3,a3
   24efc:	00d76733          	or	a4,a4,a3
/opt/riscv-gnu-toolchain/build-gcc-newlib-stage2/riscv32-vega-elf/libgcc/../../.././gcc/libgcc/soft-fp/subdf3.c:44
   24f00:	00000813          	li	a6,0
   24f04:	f95ff06f          	j	24e98 <__subdf3+0x41c>
/opt/riscv-gnu-toolchain/build-gcc-newlib-stage2/riscv32-vega-elf/libgcc/../../.././gcc/libgcc/soft-fp/subdf3.c:44 (discriminator 245)
   24f08:	00c5e733          	or	a4,a1,a2
   24f0c:	00e03733          	snez	a4,a4
   24f10:	ff1ff06f          	j	24f00 <__subdf3+0x484>
/opt/riscv-gnu-toolchain/build-gcc-newlib-stage2/riscv32-vega-elf/libgcc/../../.././gcc/libgcc/soft-fp/subdf3.c:44 (discriminator 206)
   24f14:	0e080463          	beqz	a6,24ffc <__subdf3+0x580>
/opt/riscv-gnu-toolchain/build-gcc-newlib-stage2/riscv32-vega-elf/libgcc/../../.././gcc/libgcc/soft-fp/subdf3.c:44 (discriminator 262)
   24f18:	41488833          	sub	a6,a7,s4
   24f1c:	040a1263          	bnez	s4,24f60 <__subdf3+0x4e4>
/opt/riscv-gnu-toolchain/build-gcc-newlib-stage2/riscv32-vega-elf/libgcc/../../.././gcc/libgcc/soft-fp/subdf3.c:44 (discriminator 264)
   24f20:	00a7e733          	or	a4,a5,a0
   24f24:	02070463          	beqz	a4,24f4c <__subdf3+0x4d0>
/opt/riscv-gnu-toolchain/build-gcc-newlib-stage2/riscv32-vega-elf/libgcc/../../.././gcc/libgcc/soft-fp/subdf3.c:44 (discriminator 267)
   24f28:	fff80713          	addi	a4,a6,-1
   24f2c:	00071e63          	bnez	a4,24f48 <__subdf3+0x4cc>
/opt/riscv-gnu-toolchain/build-gcc-newlib-stage2/riscv32-vega-elf/libgcc/../../.././gcc/libgcc/soft-fp/subdf3.c:44
   24f30:	40a60533          	sub	a0,a2,a0
/opt/riscv-gnu-toolchain/build-gcc-newlib-stage2/riscv32-vega-elf/libgcc/../../.././gcc/libgcc/soft-fp/subdf3.c:44 (discriminator 276)
   24f34:	40f585b3          	sub	a1,a1,a5
   24f38:	00a63633          	sltu	a2,a2,a0
   24f3c:	40c587b3          	sub	a5,a1,a2
/opt/riscv-gnu-toolchain/build-gcc-newlib-stage2/riscv32-vega-elf/libgcc/../../.././gcc/libgcc/soft-fp/subdf3.c:44 (discriminator 262)
   24f40:	00068993          	mv	s3,a3
   24f44:	f15ff06f          	j	24e58 <__subdf3+0x3dc>
/opt/riscv-gnu-toolchain/build-gcc-newlib-stage2/riscv32-vega-elf/libgcc/../../.././gcc/libgcc/soft-fp/subdf3.c:44 (discriminator 277)
   24f48:	02681463          	bne	a6,t1,24f70 <__subdf3+0x4f4>
/opt/riscv-gnu-toolchain/build-gcc-newlib-stage2/riscv32-vega-elf/libgcc/../../.././gcc/libgcc/soft-fp/subdf3.c:44 (discriminator 262)
   24f4c:	00068993          	mv	s3,a3
/opt/riscv-gnu-toolchain/build-gcc-newlib-stage2/riscv32-vega-elf/libgcc/../../.././gcc/libgcc/soft-fp/subdf3.c:44 (discriminator 287)
   24f50:	00058793          	mv	a5,a1
   24f54:	00060513          	mv	a0,a2
/opt/riscv-gnu-toolchain/build-gcc-newlib-stage2/riscv32-vega-elf/libgcc/../../.././gcc/libgcc/soft-fp/subdf3.c:44 (discriminator 262)
   24f58:	00080a13          	mv	s4,a6
   24f5c:	be1ff06f          	j	24b3c <__subdf3+0xc0>
/opt/riscv-gnu-toolchain/build-gcc-newlib-stage2/riscv32-vega-elf/libgcc/../../.././gcc/libgcc/soft-fp/subdf3.c:44 (discriminator 265)
   24f60:	28688263          	beq	a7,t1,251e4 <__subdf3+0x768>
/opt/riscv-gnu-toolchain/build-gcc-newlib-stage2/riscv32-vega-elf/libgcc/../../.././gcc/libgcc/soft-fp/subdf3.c:44 (discriminator 291)
   24f64:	00800737          	lui	a4,0x800
   24f68:	00e7e7b3          	or	a5,a5,a4
/opt/riscv-gnu-toolchain/build-gcc-newlib-stage2/riscv32-vega-elf/libgcc/../../.././gcc/libgcc/soft-fp/subdf3.c:44 (discriminator 262)
   24f6c:	00080713          	mv	a4,a6
/opt/riscv-gnu-toolchain/build-gcc-newlib-stage2/riscv32-vega-elf/libgcc/../../.././gcc/libgcc/soft-fp/subdf3.c:44 (discriminator 300)
   24f70:	03800813          	li	a6,56
   24f74:	06e84e63          	blt	a6,a4,24ff0 <__subdf3+0x574>
/opt/riscv-gnu-toolchain/build-gcc-newlib-stage2/riscv32-vega-elf/libgcc/../../.././gcc/libgcc/soft-fp/subdf3.c:44 (discriminator 301)
   24f78:	01f00813          	li	a6,31
   24f7c:	02000e13          	li	t3,32
   24f80:	04e84063          	blt	a6,a4,24fc0 <__subdf3+0x544>
/opt/riscv-gnu-toolchain/build-gcc-newlib-stage2/riscv32-vega-elf/libgcc/../../.././gcc/libgcc/soft-fp/subdf3.c:44 (discriminator 303)
   24f84:	40ee0e33          	sub	t3,t3,a4
   24f88:	00e55333          	srl	t1,a0,a4
   24f8c:	01c79833          	sll	a6,a5,t3
/opt/riscv-gnu-toolchain/build-gcc-newlib-stage2/riscv32-vega-elf/libgcc/../../.././gcc/libgcc/soft-fp/subdf3.c:44 (discriminator 308)
   24f90:	01c51e33          	sll	t3,a0,t3
/opt/riscv-gnu-toolchain/build-gcc-newlib-stage2/riscv32-vega-elf/libgcc/../../.././gcc/libgcc/soft-fp/subdf3.c:44 (discriminator 303)
   24f94:	00686833          	or	a6,a6,t1
/opt/riscv-gnu-toolchain/build-gcc-newlib-stage2/riscv32-vega-elf/libgcc/../../.././gcc/libgcc/soft-fp/subdf3.c:44 (discriminator 308)
   24f98:	01c03e33          	snez	t3,t3
/opt/riscv-gnu-toolchain/build-gcc-newlib-stage2/riscv32-vega-elf/libgcc/../../.././gcc/libgcc/soft-fp/subdf3.c:44 (discriminator 310)
   24f9c:	01c86533          	or	a0,a6,t3
   24fa0:	00e7d733          	srl	a4,a5,a4
/opt/riscv-gnu-toolchain/build-gcc-newlib-stage2/riscv32-vega-elf/libgcc/../../.././gcc/libgcc/soft-fp/subdf3.c:44
   24fa4:	40a60533          	sub	a0,a2,a0
/opt/riscv-gnu-toolchain/build-gcc-newlib-stage2/riscv32-vega-elf/libgcc/../../.././gcc/libgcc/soft-fp/subdf3.c:44 (discriminator 317)
   24fa8:	40e58733          	sub	a4,a1,a4
   24fac:	00a63633          	sltu	a2,a2,a0
   24fb0:	40c707b3          	sub	a5,a4,a2
/opt/riscv-gnu-toolchain/build-gcc-newlib-stage2/riscv32-vega-elf/libgcc/../../.././gcc/libgcc/soft-fp/subdf3.c:44 (discriminator 262)
   24fb4:	00088a13          	mv	s4,a7
   24fb8:	00068993          	mv	s3,a3
   24fbc:	ef1ff06f          	j	24eac <__subdf3+0x430>
/opt/riscv-gnu-toolchain/build-gcc-newlib-stage2/riscv32-vega-elf/libgcc/../../.././gcc/libgcc/soft-fp/subdf3.c:44 (discriminator 304)
   24fc0:	fe070813          	addi	a6,a4,-32 # 7fffe0 <_heap_end+0x7d7020>
   24fc4:	0107d833          	srl	a6,a5,a6
/opt/riscv-gnu-toolchain/build-gcc-newlib-stage2/riscv32-vega-elf/libgcc/../../.././gcc/libgcc/soft-fp/subdf3.c:44 (discriminator 312)
   24fc8:	00000313          	li	t1,0
/opt/riscv-gnu-toolchain/build-gcc-newlib-stage2/riscv32-vega-elf/libgcc/../../.././gcc/libgcc/soft-fp/subdf3.c:44 (discriminator 304)
   24fcc:	01c70863          	beq	a4,t3,24fdc <__subdf3+0x560>
/opt/riscv-gnu-toolchain/build-gcc-newlib-stage2/riscv32-vega-elf/libgcc/../../.././gcc/libgcc/soft-fp/subdf3.c:44 (discriminator 311)
   24fd0:	04000313          	li	t1,64
   24fd4:	40e30333          	sub	t1,t1,a4
   24fd8:	00679333          	sll	t1,a5,t1
/opt/riscv-gnu-toolchain/build-gcc-newlib-stage2/riscv32-vega-elf/libgcc/../../.././gcc/libgcc/soft-fp/subdf3.c:44 (discriminator 314)
   24fdc:	00a36333          	or	t1,t1,a0
   24fe0:	00603333          	snez	t1,t1
   24fe4:	00686533          	or	a0,a6,t1
/opt/riscv-gnu-toolchain/build-gcc-newlib-stage2/riscv32-vega-elf/libgcc/../../.././gcc/libgcc/soft-fp/subdf3.c:44
   24fe8:	00000713          	li	a4,0
   24fec:	fb9ff06f          	j	24fa4 <__subdf3+0x528>
/opt/riscv-gnu-toolchain/build-gcc-newlib-stage2/riscv32-vega-elf/libgcc/../../.././gcc/libgcc/soft-fp/subdf3.c:44 (discriminator 302)
   24ff0:	00a7e533          	or	a0,a5,a0
   24ff4:	00a03533          	snez	a0,a0
   24ff8:	ff1ff06f          	j	24fe8 <__subdf3+0x56c>
/opt/riscv-gnu-toolchain/build-gcc-newlib-stage2/riscv32-vega-elf/libgcc/../../.././gcc/libgcc/soft-fp/subdf3.c:44 (discriminator 263)
   24ffc:	001a0713          	addi	a4,s4,1
   25000:	7fe77713          	andi	a4,a4,2046
   25004:	0a071263          	bnez	a4,250a8 <__subdf3+0x62c>
/opt/riscv-gnu-toolchain/build-gcc-newlib-stage2/riscv32-vega-elf/libgcc/../../.././gcc/libgcc/soft-fp/subdf3.c:44 (discriminator 2)
   25008:	00c5e733          	or	a4,a1,a2
/opt/riscv-gnu-toolchain/build-gcc-newlib-stage2/riscv32-vega-elf/libgcc/../../.././gcc/libgcc/soft-fp/subdf3.c:44 (discriminator 73)
   2500c:	00a7e833          	or	a6,a5,a0
/opt/riscv-gnu-toolchain/build-gcc-newlib-stage2/riscv32-vega-elf/libgcc/../../.././gcc/libgcc/soft-fp/subdf3.c:44 (discriminator 319)
   25010:	060a1863          	bnez	s4,25080 <__subdf3+0x604>
/opt/riscv-gnu-toolchain/build-gcc-newlib-stage2/riscv32-vega-elf/libgcc/../../.././gcc/libgcc/soft-fp/subdf3.c:44 (discriminator 321)
   25014:	02081263          	bnez	a6,25038 <__subdf3+0x5bc>
/opt/riscv-gnu-toolchain/build-gcc-newlib-stage2/riscv32-vega-elf/libgcc/../../.././gcc/libgcc/soft-fp/subdf3.c:44 (discriminator 323)
   25018:	1e070063          	beqz	a4,251f8 <__subdf3+0x77c>
/opt/riscv-gnu-toolchain/build-gcc-newlib-stage2/riscv32-vega-elf/libgcc/../../.././gcc/libgcc/soft-fp/subdf3.c:44 (discriminator 333)
   2501c:	00068993          	mv	s3,a3
/opt/riscv-gnu-toolchain/build-gcc-newlib-stage2/riscv32-vega-elf/libgcc/../../.././gcc/libgcc/soft-fp/subdf3.c:45 (discriminator 1)
   25020:	00b66533          	or	a0,a2,a1
   25024:	12050263          	beqz	a0,25148 <__subdf3+0x6cc>
   25028:	00058793          	mv	a5,a1
   2502c:	00060513          	mv	a0,a2
   25030:	00000a13          	li	s4,0
   25034:	db1ff06f          	j	24de4 <__subdf3+0x368>
/opt/riscv-gnu-toolchain/build-gcc-newlib-stage2/riscv32-vega-elf/libgcc/../../.././gcc/libgcc/soft-fp/subdf3.c:44 (discriminator 324)
   25038:	18070263          	beqz	a4,251bc <__subdf3+0x740>
/opt/riscv-gnu-toolchain/build-gcc-newlib-stage2/riscv32-vega-elf/libgcc/../../.././gcc/libgcc/soft-fp/subdf3.c:44
   2503c:	40c50833          	sub	a6,a0,a2
/opt/riscv-gnu-toolchain/build-gcc-newlib-stage2/riscv32-vega-elf/libgcc/../../.././gcc/libgcc/soft-fp/subdf3.c:44 (discriminator 331)
   25040:	010538b3          	sltu	a7,a0,a6
   25044:	40b78733          	sub	a4,a5,a1
   25048:	41170733          	sub	a4,a4,a7
   2504c:	00871893          	slli	a7,a4,0x8
   25050:	0008de63          	bgez	a7,2506c <__subdf3+0x5f0>
/opt/riscv-gnu-toolchain/build-gcc-newlib-stage2/riscv32-vega-elf/libgcc/../../.././gcc/libgcc/soft-fp/subdf3.c:44 (discriminator 333)
   25054:	40a60533          	sub	a0,a2,a0
   25058:	00a63733          	sltu	a4,a2,a0
   2505c:	40f585b3          	sub	a1,a1,a5
   25060:	00050613          	mv	a2,a0
   25064:	40e585b3          	sub	a1,a1,a4
   25068:	fb5ff06f          	j	2501c <__subdf3+0x5a0>
/opt/riscv-gnu-toolchain/build-gcc-newlib-stage2/riscv32-vega-elf/libgcc/../../.././gcc/libgcc/soft-fp/subdf3.c:44 (discriminator 334)
   2506c:	00e86533          	or	a0,a6,a4
   25070:	18050863          	beqz	a0,25200 <__subdf3+0x784>
/opt/riscv-gnu-toolchain/build-gcc-newlib-stage2/riscv32-vega-elf/libgcc/../../.././gcc/libgcc/soft-fp/subdf3.c:44 (discriminator 331)
   25074:	00070593          	mv	a1,a4
   25078:	00080613          	mv	a2,a6
   2507c:	fa5ff06f          	j	25020 <__subdf3+0x5a4>
/opt/riscv-gnu-toolchain/build-gcc-newlib-stage2/riscv32-vega-elf/libgcc/../../.././gcc/libgcc/soft-fp/subdf3.c:44 (discriminator 353)
   25080:	00081e63          	bnez	a6,2509c <__subdf3+0x620>
/opt/riscv-gnu-toolchain/build-gcc-newlib-stage2/riscv32-vega-elf/libgcc/../../.././gcc/libgcc/soft-fp/subdf3.c:44 (discriminator 357)
   25084:	00068993          	mv	s3,a3
/opt/riscv-gnu-toolchain/build-gcc-newlib-stage2/riscv32-vega-elf/libgcc/../../.././gcc/libgcc/soft-fp/subdf3.c:44 (discriminator 354)
   25088:	14071063          	bnez	a4,251c8 <__subdf3+0x74c>
/opt/riscv-gnu-toolchain/build-gcc-newlib-stage2/riscv32-vega-elf/libgcc/../../.././gcc/libgcc/soft-fp/subdf3.c:44 (discriminator 356)
   2508c:	00000993          	li	s3,0
/opt/riscv-gnu-toolchain/build-gcc-newlib-stage2/riscv32-vega-elf/libgcc/../../.././gcc/libgcc/soft-fp/subdf3.c:44 (discriminator 359)
   25090:	004007b7          	lui	a5,0x400
   25094:	00000513          	li	a0,0
   25098:	1380006f          	j	251d0 <__subdf3+0x754>
/opt/riscv-gnu-toolchain/build-gcc-newlib-stage2/riscv32-vega-elf/libgcc/../../.././gcc/libgcc/soft-fp/subdf3.c:44 (discriminator 205)
   2509c:	00030a13          	mv	s4,t1
/opt/riscv-gnu-toolchain/build-gcc-newlib-stage2/riscv32-vega-elf/libgcc/../../.././gcc/libgcc/soft-fp/subdf3.c:44 (discriminator 355)
   250a0:	a8070ee3          	beqz	a4,24b3c <__subdf3+0xc0>
   250a4:	d09ff06f          	j	24dac <__subdf3+0x330>
/opt/riscv-gnu-toolchain/build-gcc-newlib-stage2/riscv32-vega-elf/libgcc/../../.././gcc/libgcc/soft-fp/subdf3.c:44
   250a8:	40c50733          	sub	a4,a0,a2
/opt/riscv-gnu-toolchain/build-gcc-newlib-stage2/riscv32-vega-elf/libgcc/../../.././gcc/libgcc/soft-fp/subdf3.c:44 (discriminator 320)
   250ac:	00e53833          	sltu	a6,a0,a4
   250b0:	40b78933          	sub	s2,a5,a1
   250b4:	41090933          	sub	s2,s2,a6
   250b8:	00891813          	slli	a6,s2,0x8
   250bc:	00070a93          	mv	s5,a4
   250c0:	06085e63          	bgez	a6,2513c <__subdf3+0x6c0>
/opt/riscv-gnu-toolchain/build-gcc-newlib-stage2/riscv32-vega-elf/libgcc/../../.././gcc/libgcc/soft-fp/subdf3.c:44
   250c4:	40a60ab3          	sub	s5,a2,a0
/opt/riscv-gnu-toolchain/build-gcc-newlib-stage2/riscv32-vega-elf/libgcc/../../.././gcc/libgcc/soft-fp/subdf3.c:44 (discriminator 371)
   250c8:	40f58933          	sub	s2,a1,a5
   250cc:	01563633          	sltu	a2,a2,s5
   250d0:	40c90933          	sub	s2,s2,a2
   250d4:	00068993          	mv	s3,a3
/opt/riscv-gnu-toolchain/build-gcc-newlib-stage2/riscv32-vega-elf/libgcc/../../.././gcc/libgcc/soft-fp/subdf3.c:44 (discriminator 380)
   250d8:	06090e63          	beqz	s2,25154 <__subdf3+0x6d8>
/opt/riscv-gnu-toolchain/build-gcc-newlib-stage2/riscv32-vega-elf/libgcc/../../.././gcc/libgcc/soft-fp/subdf3.c:44 (discriminator 383)
   250dc:	00090513          	mv	a0,s2
   250e0:	525000ef          	jal	25e04 <__clzsi2>
/opt/riscv-gnu-toolchain/build-gcc-newlib-stage2/riscv32-vega-elf/libgcc/../../.././gcc/libgcc/soft-fp/subdf3.c:44 (discriminator 397)
   250e4:	ff850613          	addi	a2,a0,-8 # fff8 <__heap_size+0xdff8>
/opt/riscv-gnu-toolchain/build-gcc-newlib-stage2/riscv32-vega-elf/libgcc/../../.././gcc/libgcc/soft-fp/subdf3.c:44 (discriminator 403)
   250e8:	02000693          	li	a3,32
   250ec:	40c686b3          	sub	a3,a3,a2
   250f0:	00c91933          	sll	s2,s2,a2
   250f4:	00dad6b3          	srl	a3,s5,a3
   250f8:	0126e6b3          	or	a3,a3,s2
   250fc:	00ca9933          	sll	s2,s5,a2
/opt/riscv-gnu-toolchain/build-gcc-newlib-stage2/riscv32-vega-elf/libgcc/../../.././gcc/libgcc/soft-fp/subdf3.c:44 (discriminator 407)
   25100:	0b464263          	blt	a2,s4,251a4 <__subdf3+0x728>
/opt/riscv-gnu-toolchain/build-gcc-newlib-stage2/riscv32-vega-elf/libgcc/../../.././gcc/libgcc/soft-fp/subdf3.c:44 (discriminator 408)
   25104:	41460633          	sub	a2,a2,s4
   25108:	00160593          	addi	a1,a2,1 # 7ff00001 <_heap_end+0x7fed7041>
   2510c:	01f00793          	li	a5,31
   25110:	02000713          	li	a4,32
   25114:	06b7c063          	blt	a5,a1,25174 <__subdf3+0x6f8>
/opt/riscv-gnu-toolchain/build-gcc-newlib-stage2/riscv32-vega-elf/libgcc/../../.././gcc/libgcc/soft-fp/subdf3.c:44 (discriminator 410)
   25118:	40b70733          	sub	a4,a4,a1
   2511c:	00e69633          	sll	a2,a3,a4
   25120:	00b957b3          	srl	a5,s2,a1
/opt/riscv-gnu-toolchain/build-gcc-newlib-stage2/riscv32-vega-elf/libgcc/../../.././gcc/libgcc/soft-fp/subdf3.c:44 (discriminator 415)
   25124:	00e91733          	sll	a4,s2,a4
/opt/riscv-gnu-toolchain/build-gcc-newlib-stage2/riscv32-vega-elf/libgcc/../../.././gcc/libgcc/soft-fp/subdf3.c:44 (discriminator 410)
   25128:	00f66633          	or	a2,a2,a5
/opt/riscv-gnu-toolchain/build-gcc-newlib-stage2/riscv32-vega-elf/libgcc/../../.././gcc/libgcc/soft-fp/subdf3.c:44 (discriminator 415)
   2512c:	00e03733          	snez	a4,a4
/opt/riscv-gnu-toolchain/build-gcc-newlib-stage2/riscv32-vega-elf/libgcc/../../.././gcc/libgcc/soft-fp/subdf3.c:44 (discriminator 417)
   25130:	00e66633          	or	a2,a2,a4
   25134:	00b6d5b3          	srl	a1,a3,a1
   25138:	ee9ff06f          	j	25020 <__subdf3+0x5a4>
/opt/riscv-gnu-toolchain/build-gcc-newlib-stage2/riscv32-vega-elf/libgcc/../../.././gcc/libgcc/soft-fp/subdf3.c:44 (discriminator 372)
   2513c:	01276533          	or	a0,a4,s2
   25140:	f8051ce3          	bnez	a0,250d8 <__subdf3+0x65c>
/opt/riscv-gnu-toolchain/build-gcc-newlib-stage2/riscv32-vega-elf/libgcc/../../.././gcc/libgcc/soft-fp/subdf3.c:44 (discriminator 325)
   25144:	00000993          	li	s3,0
   25148:	00000793          	li	a5,0
   2514c:	00000a13          	li	s4,0
   25150:	9edff06f          	j	24b3c <__subdf3+0xc0>
/opt/riscv-gnu-toolchain/build-gcc-newlib-stage2/riscv32-vega-elf/libgcc/../../.././gcc/libgcc/soft-fp/subdf3.c:44 (discriminator 390)
   25154:	000a8513          	mv	a0,s5
   25158:	4ad000ef          	jal	25e04 <__clzsi2>
/opt/riscv-gnu-toolchain/build-gcc-newlib-stage2/riscv32-vega-elf/libgcc/../../.././gcc/libgcc/soft-fp/subdf3.c:44 (discriminator 397)
   2515c:	01850613          	addi	a2,a0,24
   25160:	01f00793          	li	a5,31
   25164:	f8c7d2e3          	bge	a5,a2,250e8 <__subdf3+0x66c>
/opt/riscv-gnu-toolchain/build-gcc-newlib-stage2/riscv32-vega-elf/libgcc/../../.././gcc/libgcc/soft-fp/subdf3.c:44 (discriminator 399)
   25168:	ff850693          	addi	a3,a0,-8
   2516c:	00da96b3          	sll	a3,s5,a3
/opt/riscv-gnu-toolchain/build-gcc-newlib-stage2/riscv32-vega-elf/libgcc/../../.././gcc/libgcc/soft-fp/subdf3.c:44
   25170:	f91ff06f          	j	25100 <__subdf3+0x684>
/opt/riscv-gnu-toolchain/build-gcc-newlib-stage2/riscv32-vega-elf/libgcc/../../.././gcc/libgcc/soft-fp/subdf3.c:44 (discriminator 411)
   25174:	fe160613          	addi	a2,a2,-31
   25178:	00c6d633          	srl	a2,a3,a2
/opt/riscv-gnu-toolchain/build-gcc-newlib-stage2/riscv32-vega-elf/libgcc/../../.././gcc/libgcc/soft-fp/subdf3.c:44 (discriminator 420)
   2517c:	00000793          	li	a5,0
/opt/riscv-gnu-toolchain/build-gcc-newlib-stage2/riscv32-vega-elf/libgcc/../../.././gcc/libgcc/soft-fp/subdf3.c:44 (discriminator 411)
   25180:	00e58863          	beq	a1,a4,25190 <__subdf3+0x714>
/opt/riscv-gnu-toolchain/build-gcc-newlib-stage2/riscv32-vega-elf/libgcc/../../.././gcc/libgcc/soft-fp/subdf3.c:44 (discriminator 419)
   25184:	04000793          	li	a5,64
   25188:	40b787b3          	sub	a5,a5,a1
   2518c:	00f697b3          	sll	a5,a3,a5
/opt/riscv-gnu-toolchain/build-gcc-newlib-stage2/riscv32-vega-elf/libgcc/../../.././gcc/libgcc/soft-fp/subdf3.c:44 (discriminator 422)
   25190:	00f967b3          	or	a5,s2,a5
   25194:	00f037b3          	snez	a5,a5
   25198:	00f66633          	or	a2,a2,a5
   2519c:	00000593          	li	a1,0
   251a0:	e81ff06f          	j	25020 <__subdf3+0x5a4>
/opt/riscv-gnu-toolchain/build-gcc-newlib-stage2/riscv32-vega-elf/libgcc/../../.././gcc/libgcc/soft-fp/subdf3.c:44 (discriminator 409)
   251a4:	ff8007b7          	lui	a5,0xff800
   251a8:	fff78793          	addi	a5,a5,-1 # ff7fffff <_heap_end+0xff7d703f>
   251ac:	40ca0a33          	sub	s4,s4,a2
   251b0:	00f6f7b3          	and	a5,a3,a5
   251b4:	00090513          	mv	a0,s2
   251b8:	c2dff06f          	j	24de4 <__subdf3+0x368>
/opt/riscv-gnu-toolchain/build-gcc-newlib-stage2/riscv32-vega-elf/libgcc/../../.././gcc/libgcc/soft-fp/subdf3.c:44 (discriminator 330)
   251bc:	00078593          	mv	a1,a5
   251c0:	00050613          	mv	a2,a0
   251c4:	e5dff06f          	j	25020 <__subdf3+0x5a4>
/opt/riscv-gnu-toolchain/build-gcc-newlib-stage2/riscv32-vega-elf/libgcc/../../.././gcc/libgcc/soft-fp/subdf3.c:44 (discriminator 159)
   251c8:	00058793          	mv	a5,a1
   251cc:	00060513          	mv	a0,a2
/opt/riscv-gnu-toolchain/build-gcc-newlib-stage2/riscv32-vega-elf/libgcc/../../.././gcc/libgcc/soft-fp/subdf3.c:44 (discriminator 353)
   251d0:	00030a13          	mv	s4,t1
   251d4:	969ff06f          	j	24b3c <__subdf3+0xc0>
   251d8:	00070a13          	mv	s4,a4
   251dc:	00000793          	li	a5,0
   251e0:	bd5ff06f          	j	24db4 <__subdf3+0x338>
/opt/riscv-gnu-toolchain/build-gcc-newlib-stage2/riscv32-vega-elf/libgcc/../../.././gcc/libgcc/soft-fp/subdf3.c:44 (discriminator 262)
   251e4:	00068993          	mv	s3,a3
/opt/riscv-gnu-toolchain/build-gcc-newlib-stage2/riscv32-vega-elf/libgcc/../../.././gcc/libgcc/soft-fp/subdf3.c:44 (discriminator 287)
   251e8:	00058793          	mv	a5,a1
   251ec:	00060513          	mv	a0,a2
/opt/riscv-gnu-toolchain/build-gcc-newlib-stage2/riscv32-vega-elf/libgcc/../../.././gcc/libgcc/soft-fp/subdf3.c:44 (discriminator 262)
   251f0:	00088a13          	mv	s4,a7
   251f4:	949ff06f          	j	24b3c <__subdf3+0xc0>
/opt/riscv-gnu-toolchain/build-gcc-newlib-stage2/riscv32-vega-elf/libgcc/../../.././gcc/libgcc/soft-fp/subdf3.c:44 (discriminator 325)
   251f8:	00000993          	li	s3,0
   251fc:	fe1ff06f          	j	251dc <__subdf3+0x760>
   25200:	00000993          	li	s3,0
   25204:	00000793          	li	a5,0
   25208:	935ff06f          	j	24b3c <__subdf3+0xc0>

0002520c <__fixdfsi>:
__fixdfsi():
/opt/riscv-gnu-toolchain/build-gcc-newlib-stage2/riscv32-vega-elf/libgcc/../../.././gcc/libgcc/soft-fp/fixdfsi.c:40
   2520c:	0145d713          	srli	a4,a1,0x14
   25210:	001006b7          	lui	a3,0x100
   25214:	fff68793          	addi	a5,a3,-1 # fffff <_heap_end+0xd703f>
   25218:	7ff77713          	andi	a4,a4,2047
/opt/riscv-gnu-toolchain/build-gcc-newlib-stage2/riscv32-vega-elf/libgcc/../../.././gcc/libgcc/soft-fp/fixdfsi.c:41
   2521c:	3fe00613          	li	a2,1022
/opt/riscv-gnu-toolchain/build-gcc-newlib-stage2/riscv32-vega-elf/libgcc/../../.././gcc/libgcc/soft-fp/fixdfsi.c:40
   25220:	00b7f7b3          	and	a5,a5,a1
   25224:	01f5d593          	srli	a1,a1,0x1f
/opt/riscv-gnu-toolchain/build-gcc-newlib-stage2/riscv32-vega-elf/libgcc/../../.././gcc/libgcc/soft-fp/fixdfsi.c:41
   25228:	04e65e63          	bge	a2,a4,25284 <__fixdfsi+0x78>
/opt/riscv-gnu-toolchain/build-gcc-newlib-stage2/riscv32-vega-elf/libgcc/../../.././gcc/libgcc/soft-fp/fixdfsi.c:41 (discriminator 10)
   2522c:	41d00613          	li	a2,1053
   25230:	00e65a63          	bge	a2,a4,25244 <__fixdfsi+0x38>
/opt/riscv-gnu-toolchain/build-gcc-newlib-stage2/riscv32-vega-elf/libgcc/../../.././gcc/libgcc/soft-fp/fixdfsi.c:41 (discriminator 19)
   25234:	80000537          	lui	a0,0x80000
   25238:	fff50513          	addi	a0,a0,-1 # 7fffffff <_heap_end+0x7ffd703f>
   2523c:	00a58533          	add	a0,a1,a0
   25240:	00008067          	ret
/opt/riscv-gnu-toolchain/build-gcc-newlib-stage2/riscv32-vega-elf/libgcc/../../.././gcc/libgcc/soft-fp/fixdfsi.c:41 (discriminator 13)
   25244:	00d7e7b3          	or	a5,a5,a3
/opt/riscv-gnu-toolchain/build-gcc-newlib-stage2/riscv32-vega-elf/libgcc/../../.././gcc/libgcc/soft-fp/fixdfsi.c:41 (discriminator 28)
   25248:	43300693          	li	a3,1075
   2524c:	40e686b3          	sub	a3,a3,a4
   25250:	01f00613          	li	a2,31
   25254:	02d64063          	blt	a2,a3,25274 <__fixdfsi+0x68>
/opt/riscv-gnu-toolchain/build-gcc-newlib-stage2/riscv32-vega-elf/libgcc/../../.././gcc/libgcc/soft-fp/fixdfsi.c:41 (discriminator 37)
   25258:	bed70713          	addi	a4,a4,-1043
   2525c:	00e797b3          	sll	a5,a5,a4
   25260:	00d55533          	srl	a0,a0,a3
   25264:	00a7e533          	or	a0,a5,a0
/opt/riscv-gnu-toolchain/build-gcc-newlib-stage2/riscv32-vega-elf/libgcc/../../.././gcc/libgcc/soft-fp/fixdfsi.c:41 (discriminator 44)
   25268:	02058063          	beqz	a1,25288 <__fixdfsi+0x7c>
/opt/riscv-gnu-toolchain/build-gcc-newlib-stage2/riscv32-vega-elf/libgcc/../../.././gcc/libgcc/soft-fp/fixdfsi.c:41 (discriminator 45)
   2526c:	40a00533          	neg	a0,a0
   25270:	00008067          	ret
/opt/riscv-gnu-toolchain/build-gcc-newlib-stage2/riscv32-vega-elf/libgcc/../../.././gcc/libgcc/soft-fp/fixdfsi.c:41 (discriminator 42)
   25274:	41300693          	li	a3,1043
   25278:	40e68733          	sub	a4,a3,a4
   2527c:	00e7d533          	srl	a0,a5,a4
/opt/riscv-gnu-toolchain/build-gcc-newlib-stage2/riscv32-vega-elf/libgcc/../../.././gcc/libgcc/soft-fp/fixdfsi.c:41
   25280:	fe9ff06f          	j	25268 <__fixdfsi+0x5c>
/opt/riscv-gnu-toolchain/build-gcc-newlib-stage2/riscv32-vega-elf/libgcc/../../.././gcc/libgcc/soft-fp/fixdfsi.c:41 (discriminator 1)
   25284:	00000513          	li	a0,0
/opt/riscv-gnu-toolchain/build-gcc-newlib-stage2/riscv32-vega-elf/libgcc/../../.././gcc/libgcc/soft-fp/fixdfsi.c:45
   25288:	00008067          	ret

0002528c <__addsf3>:
__addsf3():
/opt/riscv-gnu-toolchain/build-gcc-newlib-stage2/riscv32-vega-elf/libgcc/../../.././gcc/libgcc/soft-fp/addsf3.c:34
   2528c:	ff010113          	addi	sp,sp,-16
/opt/riscv-gnu-toolchain/build-gcc-newlib-stage2/riscv32-vega-elf/libgcc/../../.././gcc/libgcc/soft-fp/addsf3.c:42
   25290:	00800737          	lui	a4,0x800
   25294:	fff70713          	addi	a4,a4,-1 # 7fffff <_heap_end+0x7d703f>
/opt/riscv-gnu-toolchain/build-gcc-newlib-stage2/riscv32-vega-elf/libgcc/../../.././gcc/libgcc/soft-fp/addsf3.c:43
   25298:	0175d613          	srli	a2,a1,0x17
/opt/riscv-gnu-toolchain/build-gcc-newlib-stage2/riscv32-vega-elf/libgcc/../../.././gcc/libgcc/soft-fp/addsf3.c:34
   2529c:	00812423          	sw	s0,8(sp)
/opt/riscv-gnu-toolchain/build-gcc-newlib-stage2/riscv32-vega-elf/libgcc/../../.././gcc/libgcc/soft-fp/addsf3.c:42
   252a0:	01755413          	srli	s0,a0,0x17
   252a4:	00a777b3          	and	a5,a4,a0
/opt/riscv-gnu-toolchain/build-gcc-newlib-stage2/riscv32-vega-elf/libgcc/../../.././gcc/libgcc/soft-fp/addsf3.c:34
   252a8:	00912223          	sw	s1,4(sp)
/opt/riscv-gnu-toolchain/build-gcc-newlib-stage2/riscv32-vega-elf/libgcc/../../.././gcc/libgcc/soft-fp/addsf3.c:43
   252ac:	00b77733          	and	a4,a4,a1
/opt/riscv-gnu-toolchain/build-gcc-newlib-stage2/riscv32-vega-elf/libgcc/../../.././gcc/libgcc/soft-fp/addsf3.c:42
   252b0:	0ff47413          	zext.b	s0,s0
/opt/riscv-gnu-toolchain/build-gcc-newlib-stage2/riscv32-vega-elf/libgcc/../../.././gcc/libgcc/soft-fp/addsf3.c:43
   252b4:	0ff67613          	zext.b	a2,a2
/opt/riscv-gnu-toolchain/build-gcc-newlib-stage2/riscv32-vega-elf/libgcc/../../.././gcc/libgcc/soft-fp/addsf3.c:34
   252b8:	00112623          	sw	ra,12(sp)
   252bc:	01212023          	sw	s2,0(sp)
/opt/riscv-gnu-toolchain/build-gcc-newlib-stage2/riscv32-vega-elf/libgcc/../../.././gcc/libgcc/soft-fp/addsf3.c:42
   252c0:	01f55493          	srli	s1,a0,0x1f
/opt/riscv-gnu-toolchain/build-gcc-newlib-stage2/riscv32-vega-elf/libgcc/../../.././gcc/libgcc/soft-fp/addsf3.c:43
   252c4:	01f5d593          	srli	a1,a1,0x1f
/opt/riscv-gnu-toolchain/build-gcc-newlib-stage2/riscv32-vega-elf/libgcc/../../.././gcc/libgcc/soft-fp/addsf3.c:42 (discriminator 2)
   252c8:	00379793          	slli	a5,a5,0x3
/opt/riscv-gnu-toolchain/build-gcc-newlib-stage2/riscv32-vega-elf/libgcc/../../.././gcc/libgcc/soft-fp/addsf3.c:43 (discriminator 2)
   252cc:	00371713          	slli	a4,a4,0x3
/opt/riscv-gnu-toolchain/build-gcc-newlib-stage2/riscv32-vega-elf/libgcc/../../.././gcc/libgcc/soft-fp/addsf3.c:44 (discriminator 7)
   252d0:	40c406b3          	sub	a3,s0,a2
/opt/riscv-gnu-toolchain/build-gcc-newlib-stage2/riscv32-vega-elf/libgcc/../../.././gcc/libgcc/soft-fp/addsf3.c:44 (discriminator 6)
   252d4:	1cb49e63          	bne	s1,a1,254b0 <__addsf3+0x224>
/opt/riscv-gnu-toolchain/build-gcc-newlib-stage2/riscv32-vega-elf/libgcc/../../.././gcc/libgcc/soft-fp/addsf3.c:44 (discriminator 7)
   252d8:	08d05e63          	blez	a3,25374 <__addsf3+0xe8>
/opt/riscv-gnu-toolchain/build-gcc-newlib-stage2/riscv32-vega-elf/libgcc/../../.././gcc/libgcc/soft-fp/addsf3.c:44
   252dc:	0ff00593          	li	a1,255
/opt/riscv-gnu-toolchain/build-gcc-newlib-stage2/riscv32-vega-elf/libgcc/../../.././gcc/libgcc/soft-fp/addsf3.c:44 (discriminator 9)
   252e0:	02061663          	bnez	a2,2530c <__addsf3+0x80>
/opt/riscv-gnu-toolchain/build-gcc-newlib-stage2/riscv32-vega-elf/libgcc/../../.././gcc/libgcc/soft-fp/addsf3.c:44 (discriminator 11)
   252e4:	00070e63          	beqz	a4,25300 <__addsf3+0x74>
/opt/riscv-gnu-toolchain/build-gcc-newlib-stage2/riscv32-vega-elf/libgcc/../../.././gcc/libgcc/soft-fp/addsf3.c:44 (discriminator 14)
   252e8:	fff68613          	addi	a2,a3,-1
   252ec:	00061863          	bnez	a2,252fc <__addsf3+0x70>
/opt/riscv-gnu-toolchain/build-gcc-newlib-stage2/riscv32-vega-elf/libgcc/../../.././gcc/libgcc/soft-fp/addsf3.c:44 (discriminator 75)
   252f0:	00e787b3          	add	a5,a5,a4
/opt/riscv-gnu-toolchain/build-gcc-newlib-stage2/riscv32-vega-elf/libgcc/../../.././gcc/libgcc/soft-fp/addsf3.c:44 (discriminator 61)
   252f4:	00100413          	li	s0,1
/opt/riscv-gnu-toolchain/build-gcc-newlib-stage2/riscv32-vega-elf/libgcc/../../.././gcc/libgcc/soft-fp/addsf3.c:44
   252f8:	04c0006f          	j	25344 <__addsf3+0xb8>
/opt/riscv-gnu-toolchain/build-gcc-newlib-stage2/riscv32-vega-elf/libgcc/../../.././gcc/libgcc/soft-fp/addsf3.c:44 (discriminator 24)
   252fc:	02b69063          	bne	a3,a1,2531c <__addsf3+0x90>
/opt/riscv-gnu-toolchain/build-gcc-newlib-stage2/riscv32-vega-elf/libgcc/../../.././gcc/libgcc/soft-fp/addsf3.c:44 (discriminator 189)
   25300:	00068413          	mv	s0,a3
   25304:	00078713          	mv	a4,a5
   25308:	2c40006f          	j	255cc <__addsf3+0x340>
/opt/riscv-gnu-toolchain/build-gcc-newlib-stage2/riscv32-vega-elf/libgcc/../../.././gcc/libgcc/soft-fp/addsf3.c:44 (discriminator 12)
   2530c:	feb40ce3          	beq	s0,a1,25304 <__addsf3+0x78>
/opt/riscv-gnu-toolchain/build-gcc-newlib-stage2/riscv32-vega-elf/libgcc/../../.././gcc/libgcc/soft-fp/addsf3.c:44 (discriminator 38)
   25310:	04000637          	lui	a2,0x4000
   25314:	00c76733          	or	a4,a4,a2
/opt/riscv-gnu-toolchain/build-gcc-newlib-stage2/riscv32-vega-elf/libgcc/../../.././gcc/libgcc/soft-fp/addsf3.c:44 (discriminator 7)
   25318:	00068613          	mv	a2,a3
/opt/riscv-gnu-toolchain/build-gcc-newlib-stage2/riscv32-vega-elf/libgcc/../../.././gcc/libgcc/soft-fp/addsf3.c:44 (discriminator 47)
   2531c:	01b00593          	li	a1,27
/opt/riscv-gnu-toolchain/build-gcc-newlib-stage2/riscv32-vega-elf/libgcc/../../.././gcc/libgcc/soft-fp/addsf3.c:44 (discriminator 57)
   25320:	00100693          	li	a3,1
/opt/riscv-gnu-toolchain/build-gcc-newlib-stage2/riscv32-vega-elf/libgcc/../../.././gcc/libgcc/soft-fp/addsf3.c:44 (discriminator 47)
   25324:	00c5ce63          	blt	a1,a2,25340 <__addsf3+0xb4>
/opt/riscv-gnu-toolchain/build-gcc-newlib-stage2/riscv32-vega-elf/libgcc/../../.././gcc/libgcc/soft-fp/addsf3.c:44 (discriminator 53)
   25328:	02000693          	li	a3,32
   2532c:	40c686b3          	sub	a3,a3,a2
/opt/riscv-gnu-toolchain/build-gcc-newlib-stage2/riscv32-vega-elf/libgcc/../../.././gcc/libgcc/soft-fp/addsf3.c:44 (discriminator 48)
   25330:	00c755b3          	srl	a1,a4,a2
/opt/riscv-gnu-toolchain/build-gcc-newlib-stage2/riscv32-vega-elf/libgcc/../../.././gcc/libgcc/soft-fp/addsf3.c:44 (discriminator 53)
   25334:	00d71733          	sll	a4,a4,a3
   25338:	00e03733          	snez	a4,a4
/opt/riscv-gnu-toolchain/build-gcc-newlib-stage2/riscv32-vega-elf/libgcc/../../.././gcc/libgcc/soft-fp/addsf3.c:44 (discriminator 55)
   2533c:	00e5e6b3          	or	a3,a1,a4
/opt/riscv-gnu-toolchain/build-gcc-newlib-stage2/riscv32-vega-elf/libgcc/../../.././gcc/libgcc/soft-fp/addsf3.c:44 (discriminator 59)
   25340:	00d787b3          	add	a5,a5,a3
/opt/riscv-gnu-toolchain/build-gcc-newlib-stage2/riscv32-vega-elf/libgcc/../../.././gcc/libgcc/soft-fp/addsf3.c:44 (discriminator 112)
   25344:	00579713          	slli	a4,a5,0x5
   25348:	12075463          	bgez	a4,25470 <__addsf3+0x1e4>
/opt/riscv-gnu-toolchain/build-gcc-newlib-stage2/riscv32-vega-elf/libgcc/../../.././gcc/libgcc/soft-fp/addsf3.c:44 (discriminator 171)
   2534c:	00140413          	addi	s0,s0,1 # 80001 <_heap_end+0x57041>
   25350:	0ff00713          	li	a4,255
   25354:	36e40063          	beq	s0,a4,256b4 <__addsf3+0x428>
   25358:	7e000737          	lui	a4,0x7e000
   2535c:	0017f693          	andi	a3,a5,1
   25360:	fff70713          	addi	a4,a4,-1 # 7dffffff <_heap_end+0x7dfd703f>
   25364:	0017d793          	srli	a5,a5,0x1
   25368:	00e7f7b3          	and	a5,a5,a4
   2536c:	00d7e7b3          	or	a5,a5,a3
   25370:	1000006f          	j	25470 <__addsf3+0x1e4>
/opt/riscv-gnu-toolchain/build-gcc-newlib-stage2/riscv32-vega-elf/libgcc/../../.././gcc/libgcc/soft-fp/addsf3.c:44 (discriminator 10)
   25374:	06068463          	beqz	a3,253dc <__addsf3+0x150>
/opt/riscv-gnu-toolchain/build-gcc-newlib-stage2/riscv32-vega-elf/libgcc/../../.././gcc/libgcc/soft-fp/addsf3.c:44 (discriminator 61)
   25378:	408606b3          	sub	a3,a2,s0
/opt/riscv-gnu-toolchain/build-gcc-newlib-stage2/riscv32-vega-elf/libgcc/../../.././gcc/libgcc/soft-fp/addsf3.c:44
   2537c:	0ff00513          	li	a0,255
/opt/riscv-gnu-toolchain/build-gcc-newlib-stage2/riscv32-vega-elf/libgcc/../../.././gcc/libgcc/soft-fp/addsf3.c:44 (discriminator 61)
   25380:	00041e63          	bnez	s0,2539c <__addsf3+0x110>
/opt/riscv-gnu-toolchain/build-gcc-newlib-stage2/riscv32-vega-elf/libgcc/../../.././gcc/libgcc/soft-fp/addsf3.c:44 (discriminator 63)
   25384:	32078263          	beqz	a5,256a8 <__addsf3+0x41c>
/opt/riscv-gnu-toolchain/build-gcc-newlib-stage2/riscv32-vega-elf/libgcc/../../.././gcc/libgcc/soft-fp/addsf3.c:44 (discriminator 66)
   25388:	fff68593          	addi	a1,a3,-1
   2538c:	f60582e3          	beqz	a1,252f0 <__addsf3+0x64>
/opt/riscv-gnu-toolchain/build-gcc-newlib-stage2/riscv32-vega-elf/libgcc/../../.././gcc/libgcc/soft-fp/addsf3.c:44 (discriminator 76)
   25390:	00a69e63          	bne	a3,a0,253ac <__addsf3+0x120>
/opt/riscv-gnu-toolchain/build-gcc-newlib-stage2/riscv32-vega-elf/libgcc/../../.././gcc/libgcc/soft-fp/addsf3.c:44 (discriminator 9)
   25394:	0ff00413          	li	s0,255
   25398:	2340006f          	j	255cc <__addsf3+0x340>
/opt/riscv-gnu-toolchain/build-gcc-newlib-stage2/riscv32-vega-elf/libgcc/../../.././gcc/libgcc/soft-fp/addsf3.c:44 (discriminator 64)
   2539c:	fea60ce3          	beq	a2,a0,25394 <__addsf3+0x108>
/opt/riscv-gnu-toolchain/build-gcc-newlib-stage2/riscv32-vega-elf/libgcc/../../.././gcc/libgcc/soft-fp/addsf3.c:44 (discriminator 90)
   253a0:	040005b7          	lui	a1,0x4000
   253a4:	00b7e7b3          	or	a5,a5,a1
/opt/riscv-gnu-toolchain/build-gcc-newlib-stage2/riscv32-vega-elf/libgcc/../../.././gcc/libgcc/soft-fp/addsf3.c:44 (discriminator 61)
   253a8:	00068593          	mv	a1,a3
/opt/riscv-gnu-toolchain/build-gcc-newlib-stage2/riscv32-vega-elf/libgcc/../../.././gcc/libgcc/soft-fp/addsf3.c:44 (discriminator 99)
   253ac:	01b00513          	li	a0,27
/opt/riscv-gnu-toolchain/build-gcc-newlib-stage2/riscv32-vega-elf/libgcc/../../.././gcc/libgcc/soft-fp/addsf3.c:44 (discriminator 109)
   253b0:	00100693          	li	a3,1
/opt/riscv-gnu-toolchain/build-gcc-newlib-stage2/riscv32-vega-elf/libgcc/../../.././gcc/libgcc/soft-fp/addsf3.c:44 (discriminator 99)
   253b4:	00b54e63          	blt	a0,a1,253d0 <__addsf3+0x144>
/opt/riscv-gnu-toolchain/build-gcc-newlib-stage2/riscv32-vega-elf/libgcc/../../.././gcc/libgcc/soft-fp/addsf3.c:44 (discriminator 105)
   253b8:	02000693          	li	a3,32
   253bc:	40b686b3          	sub	a3,a3,a1
/opt/riscv-gnu-toolchain/build-gcc-newlib-stage2/riscv32-vega-elf/libgcc/../../.././gcc/libgcc/soft-fp/addsf3.c:44 (discriminator 100)
   253c0:	00b7d533          	srl	a0,a5,a1
/opt/riscv-gnu-toolchain/build-gcc-newlib-stage2/riscv32-vega-elf/libgcc/../../.././gcc/libgcc/soft-fp/addsf3.c:44 (discriminator 105)
   253c4:	00d797b3          	sll	a5,a5,a3
   253c8:	00f037b3          	snez	a5,a5
/opt/riscv-gnu-toolchain/build-gcc-newlib-stage2/riscv32-vega-elf/libgcc/../../.././gcc/libgcc/soft-fp/addsf3.c:44 (discriminator 107)
   253cc:	00f566b3          	or	a3,a0,a5
/opt/riscv-gnu-toolchain/build-gcc-newlib-stage2/riscv32-vega-elf/libgcc/../../.././gcc/libgcc/soft-fp/addsf3.c:44 (discriminator 111)
   253d0:	00e687b3          	add	a5,a3,a4
/opt/riscv-gnu-toolchain/build-gcc-newlib-stage2/riscv32-vega-elf/libgcc/../../.././gcc/libgcc/soft-fp/addsf3.c:44 (discriminator 61)
   253d4:	00060413          	mv	s0,a2
   253d8:	f6dff06f          	j	25344 <__addsf3+0xb8>
/opt/riscv-gnu-toolchain/build-gcc-newlib-stage2/riscv32-vega-elf/libgcc/../../.././gcc/libgcc/soft-fp/addsf3.c:44 (discriminator 62)
   253dc:	00140693          	addi	a3,s0,1
   253e0:	0fe6f613          	andi	a2,a3,254
   253e4:	06061c63          	bnez	a2,2545c <__addsf3+0x1d0>
/opt/riscv-gnu-toolchain/build-gcc-newlib-stage2/riscv32-vega-elf/libgcc/../../.././gcc/libgcc/soft-fp/addsf3.c:44 (discriminator 113)
   253e8:	06041263          	bnez	s0,2544c <__addsf3+0x1c0>
/opt/riscv-gnu-toolchain/build-gcc-newlib-stage2/riscv32-vega-elf/libgcc/../../.././gcc/libgcc/soft-fp/addsf3.c:44 (discriminator 115)
   253ec:	2a078863          	beqz	a5,2569c <__addsf3+0x410>
/opt/riscv-gnu-toolchain/build-gcc-newlib-stage2/riscv32-vega-elf/libgcc/../../.././gcc/libgcc/soft-fp/addsf3.c:44 (discriminator 118)
   253f0:	08070c63          	beqz	a4,25488 <__addsf3+0x1fc>
/opt/riscv-gnu-toolchain/build-gcc-newlib-stage2/riscv32-vega-elf/libgcc/../../.././gcc/libgcc/soft-fp/addsf3.c:44 (discriminator 124)
   253f4:	00f70733          	add	a4,a4,a5
   253f8:	00571793          	slli	a5,a4,0x5
   253fc:	1c07d863          	bgez	a5,255cc <__addsf3+0x340>
/opt/riscv-gnu-toolchain/build-gcc-newlib-stage2/riscv32-vega-elf/libgcc/../../.././gcc/libgcc/soft-fp/addsf3.c:45 (discriminator 79)
   25400:	1f8007b7          	lui	a5,0x1f800
   25404:	00375713          	srli	a4,a4,0x3
   25408:	fff78793          	addi	a5,a5,-1 # 1f7fffff <_heap_end+0x1f7d703f>
   2540c:	00f777b3          	and	a5,a4,a5
/opt/riscv-gnu-toolchain/build-gcc-newlib-stage2/riscv32-vega-elf/libgcc/../../.././gcc/libgcc/soft-fp/addsf3.c:44 (discriminator 126)
   25410:	00100413          	li	s0,1
/opt/riscv-gnu-toolchain/build-gcc-newlib-stage2/riscv32-vega-elf/libgcc/../../.././gcc/libgcc/soft-fp/addsf3.c:45 (discriminator 90)
   25414:	01741413          	slli	s0,s0,0x17
   25418:	7f800737          	lui	a4,0x7f800
   2541c:	00979793          	slli	a5,a5,0x9
   25420:	00e47433          	and	s0,s0,a4
   25424:	0097d793          	srli	a5,a5,0x9
   25428:	00f46433          	or	s0,s0,a5
   2542c:	01f49513          	slli	a0,s1,0x1f
/opt/riscv-gnu-toolchain/build-gcc-newlib-stage2/riscv32-vega-elf/libgcc/../../.././gcc/libgcc/soft-fp/addsf3.c:49
   25430:	00c12083          	lw	ra,12(sp)
   25434:	00a46533          	or	a0,s0,a0
   25438:	00812403          	lw	s0,8(sp)
   2543c:	00412483          	lw	s1,4(sp)
   25440:	00012903          	lw	s2,0(sp)
   25444:	01010113          	addi	sp,sp,16
   25448:	00008067          	ret
/opt/riscv-gnu-toolchain/build-gcc-newlib-stage2/riscv32-vega-elf/libgcc/../../.././gcc/libgcc/soft-fp/addsf3.c:44 (discriminator 143)
   2544c:	f40784e3          	beqz	a5,25394 <__addsf3+0x108>
/opt/riscv-gnu-toolchain/build-gcc-newlib-stage2/riscv32-vega-elf/libgcc/../../.././gcc/libgcc/soft-fp/addsf3.c:44 (discriminator 329)
   25450:	1c071863          	bnez	a4,25620 <__addsf3+0x394>
/opt/riscv-gnu-toolchain/build-gcc-newlib-stage2/riscv32-vega-elf/libgcc/../../.././gcc/libgcc/soft-fp/addsf3.c:44 (discriminator 45)
   25454:	00078713          	mv	a4,a5
   25458:	f3dff06f          	j	25394 <__addsf3+0x108>
/opt/riscv-gnu-toolchain/build-gcc-newlib-stage2/riscv32-vega-elf/libgcc/../../.././gcc/libgcc/soft-fp/addsf3.c:44 (discriminator 114)
   2545c:	0ff00613          	li	a2,255
   25460:	24c68863          	beq	a3,a2,256b0 <__addsf3+0x424>
   25464:	00e78733          	add	a4,a5,a4
   25468:	00175793          	srli	a5,a4,0x1
   2546c:	00068413          	mv	s0,a3
/opt/riscv-gnu-toolchain/build-gcc-newlib-stage2/riscv32-vega-elf/libgcc/../../.././gcc/libgcc/soft-fp/addsf3.c:45 (discriminator 36)
   25470:	0077f713          	andi	a4,a5,7
   25474:	00070a63          	beqz	a4,25488 <__addsf3+0x1fc>
/opt/riscv-gnu-toolchain/build-gcc-newlib-stage2/riscv32-vega-elf/libgcc/../../.././gcc/libgcc/soft-fp/addsf3.c:45 (discriminator 40)
   25478:	00f7f713          	andi	a4,a5,15
   2547c:	00400693          	li	a3,4
   25480:	00d70463          	beq	a4,a3,25488 <__addsf3+0x1fc>
/opt/riscv-gnu-toolchain/build-gcc-newlib-stage2/riscv32-vega-elf/libgcc/../../.././gcc/libgcc/soft-fp/addsf3.c:45 (discriminator 44)
   25484:	00d787b3          	add	a5,a5,a3
/opt/riscv-gnu-toolchain/build-gcc-newlib-stage2/riscv32-vega-elf/libgcc/../../.././gcc/libgcc/soft-fp/addsf3.c:45 (discriminator 62)
   25488:	00579713          	slli	a4,a5,0x5
   2548c:	e6075ce3          	bgez	a4,25304 <__addsf3+0x78>
/opt/riscv-gnu-toolchain/build-gcc-newlib-stage2/riscv32-vega-elf/libgcc/../../.././gcc/libgcc/soft-fp/addsf3.c:45 (discriminator 63)
   25490:	00140413          	addi	s0,s0,1
   25494:	0ff00713          	li	a4,255
   25498:	20e40e63          	beq	s0,a4,256b4 <__addsf3+0x428>
/opt/riscv-gnu-toolchain/build-gcc-newlib-stage2/riscv32-vega-elf/libgcc/../../.././gcc/libgcc/soft-fp/addsf3.c:45 (discriminator 79)
   2549c:	1f800737          	lui	a4,0x1f800
   254a0:	0037d793          	srli	a5,a5,0x3
   254a4:	fff70713          	addi	a4,a4,-1 # 1f7fffff <_heap_end+0x1f7d703f>
   254a8:	00e7f7b3          	and	a5,a5,a4
/opt/riscv-gnu-toolchain/build-gcc-newlib-stage2/riscv32-vega-elf/libgcc/../../.././gcc/libgcc/soft-fp/addsf3.c:45
   254ac:	f69ff06f          	j	25414 <__addsf3+0x188>
/opt/riscv-gnu-toolchain/build-gcc-newlib-stage2/riscv32-vega-elf/libgcc/../../.././gcc/libgcc/soft-fp/addsf3.c:44 (discriminator 8)
   254b0:	08d05063          	blez	a3,25530 <__addsf3+0x2a4>
/opt/riscv-gnu-toolchain/build-gcc-newlib-stage2/riscv32-vega-elf/libgcc/../../.././gcc/libgcc/soft-fp/addsf3.c:44 (discriminator 189)
   254b4:	06061263          	bnez	a2,25518 <__addsf3+0x28c>
/opt/riscv-gnu-toolchain/build-gcc-newlib-stage2/riscv32-vega-elf/libgcc/../../.././gcc/libgcc/soft-fp/addsf3.c:44 (discriminator 191)
   254b8:	e40704e3          	beqz	a4,25300 <__addsf3+0x74>
/opt/riscv-gnu-toolchain/build-gcc-newlib-stage2/riscv32-vega-elf/libgcc/../../.././gcc/libgcc/soft-fp/addsf3.c:44 (discriminator 194)
   254bc:	fff68613          	addi	a2,a3,-1
   254c0:	00061863          	bnez	a2,254d0 <__addsf3+0x244>
/opt/riscv-gnu-toolchain/build-gcc-newlib-stage2/riscv32-vega-elf/libgcc/../../.././gcc/libgcc/soft-fp/addsf3.c:44 (discriminator 203)
   254c4:	40e787b3          	sub	a5,a5,a4
/opt/riscv-gnu-toolchain/build-gcc-newlib-stage2/riscv32-vega-elf/libgcc/../../.././gcc/libgcc/soft-fp/addsf3.c:44 (discriminator 241)
   254c8:	00100413          	li	s0,1
/opt/riscv-gnu-toolchain/build-gcc-newlib-stage2/riscv32-vega-elf/libgcc/../../.././gcc/libgcc/soft-fp/addsf3.c:44
   254cc:	0340006f          	j	25500 <__addsf3+0x274>
/opt/riscv-gnu-toolchain/build-gcc-newlib-stage2/riscv32-vega-elf/libgcc/../../.././gcc/libgcc/soft-fp/addsf3.c:44 (discriminator 204)
   254d0:	0ff00593          	li	a1,255
   254d4:	e2b686e3          	beq	a3,a1,25300 <__addsf3+0x74>
/opt/riscv-gnu-toolchain/build-gcc-newlib-stage2/riscv32-vega-elf/libgcc/../../.././gcc/libgcc/soft-fp/addsf3.c:44 (discriminator 227)
   254d8:	01b00593          	li	a1,27
/opt/riscv-gnu-toolchain/build-gcc-newlib-stage2/riscv32-vega-elf/libgcc/../../.././gcc/libgcc/soft-fp/addsf3.c:44 (discriminator 237)
   254dc:	00100693          	li	a3,1
/opt/riscv-gnu-toolchain/build-gcc-newlib-stage2/riscv32-vega-elf/libgcc/../../.././gcc/libgcc/soft-fp/addsf3.c:44 (discriminator 227)
   254e0:	00c5ce63          	blt	a1,a2,254fc <__addsf3+0x270>
/opt/riscv-gnu-toolchain/build-gcc-newlib-stage2/riscv32-vega-elf/libgcc/../../.././gcc/libgcc/soft-fp/addsf3.c:44 (discriminator 233)
   254e4:	02000693          	li	a3,32
   254e8:	40c686b3          	sub	a3,a3,a2
/opt/riscv-gnu-toolchain/build-gcc-newlib-stage2/riscv32-vega-elf/libgcc/../../.././gcc/libgcc/soft-fp/addsf3.c:44 (discriminator 228)
   254ec:	00c755b3          	srl	a1,a4,a2
/opt/riscv-gnu-toolchain/build-gcc-newlib-stage2/riscv32-vega-elf/libgcc/../../.././gcc/libgcc/soft-fp/addsf3.c:44 (discriminator 233)
   254f0:	00d71733          	sll	a4,a4,a3
   254f4:	00e03733          	snez	a4,a4
/opt/riscv-gnu-toolchain/build-gcc-newlib-stage2/riscv32-vega-elf/libgcc/../../.././gcc/libgcc/soft-fp/addsf3.c:44 (discriminator 235)
   254f8:	00e5e6b3          	or	a3,a1,a4
/opt/riscv-gnu-toolchain/build-gcc-newlib-stage2/riscv32-vega-elf/libgcc/../../.././gcc/libgcc/soft-fp/addsf3.c:44 (discriminator 239)
   254fc:	40d787b3          	sub	a5,a5,a3
/opt/riscv-gnu-toolchain/build-gcc-newlib-stage2/riscv32-vega-elf/libgcc/../../.././gcc/libgcc/soft-fp/addsf3.c:44 (discriminator 292)
   25500:	00579713          	slli	a4,a5,0x5
   25504:	f60756e3          	bgez	a4,25470 <__addsf3+0x1e4>
/opt/riscv-gnu-toolchain/build-gcc-newlib-stage2/riscv32-vega-elf/libgcc/../../.././gcc/libgcc/soft-fp/addsf3.c:44 (discriminator 351)
   25508:	04000937          	lui	s2,0x4000
   2550c:	fff90913          	addi	s2,s2,-1 # 3ffffff <_heap_end+0x3fd703f>
   25510:	0127f933          	and	s2,a5,s2
   25514:	1300006f          	j	25644 <__addsf3+0x3b8>
/opt/riscv-gnu-toolchain/build-gcc-newlib-stage2/riscv32-vega-elf/libgcc/../../.././gcc/libgcc/soft-fp/addsf3.c:44 (discriminator 192)
   25518:	0ff00613          	li	a2,255
   2551c:	dec404e3          	beq	s0,a2,25304 <__addsf3+0x78>
/opt/riscv-gnu-toolchain/build-gcc-newlib-stage2/riscv32-vega-elf/libgcc/../../.././gcc/libgcc/soft-fp/addsf3.c:44 (discriminator 218)
   25520:	04000637          	lui	a2,0x4000
   25524:	00c76733          	or	a4,a4,a2
/opt/riscv-gnu-toolchain/build-gcc-newlib-stage2/riscv32-vega-elf/libgcc/../../.././gcc/libgcc/soft-fp/addsf3.c:44 (discriminator 8)
   25528:	00068613          	mv	a2,a3
   2552c:	fadff06f          	j	254d8 <__addsf3+0x24c>
/opt/riscv-gnu-toolchain/build-gcc-newlib-stage2/riscv32-vega-elf/libgcc/../../.././gcc/libgcc/soft-fp/addsf3.c:44 (discriminator 190)
   25530:	06068e63          	beqz	a3,255ac <__addsf3+0x320>
/opt/riscv-gnu-toolchain/build-gcc-newlib-stage2/riscv32-vega-elf/libgcc/../../.././gcc/libgcc/soft-fp/addsf3.c:44 (discriminator 241)
   25534:	408606b3          	sub	a3,a2,s0
   25538:	02041663          	bnez	s0,25564 <__addsf3+0x2d8>
/opt/riscv-gnu-toolchain/build-gcc-newlib-stage2/riscv32-vega-elf/libgcc/../../.././gcc/libgcc/soft-fp/addsf3.c:44 (discriminator 243)
   2553c:	16078463          	beqz	a5,256a4 <__addsf3+0x418>
/opt/riscv-gnu-toolchain/build-gcc-newlib-stage2/riscv32-vega-elf/libgcc/../../.././gcc/libgcc/soft-fp/addsf3.c:44 (discriminator 246)
   25540:	fff68513          	addi	a0,a3,-1
   25544:	00051863          	bnez	a0,25554 <__addsf3+0x2c8>
/opt/riscv-gnu-toolchain/build-gcc-newlib-stage2/riscv32-vega-elf/libgcc/../../.././gcc/libgcc/soft-fp/addsf3.c:44 (discriminator 255)
   25548:	40f707b3          	sub	a5,a4,a5
/opt/riscv-gnu-toolchain/build-gcc-newlib-stage2/riscv32-vega-elf/libgcc/../../.././gcc/libgcc/soft-fp/addsf3.c:44 (discriminator 241)
   2554c:	00058493          	mv	s1,a1
   25550:	f79ff06f          	j	254c8 <__addsf3+0x23c>
/opt/riscv-gnu-toolchain/build-gcc-newlib-stage2/riscv32-vega-elf/libgcc/../../.././gcc/libgcc/soft-fp/addsf3.c:44 (discriminator 256)
   25554:	0ff00813          	li	a6,255
   25558:	03069063          	bne	a3,a6,25578 <__addsf3+0x2ec>
/opt/riscv-gnu-toolchain/build-gcc-newlib-stage2/riscv32-vega-elf/libgcc/../../.././gcc/libgcc/soft-fp/addsf3.c:44 (discriminator 241)
   2555c:	00058493          	mv	s1,a1
   25560:	e35ff06f          	j	25394 <__addsf3+0x108>
/opt/riscv-gnu-toolchain/build-gcc-newlib-stage2/riscv32-vega-elf/libgcc/../../.././gcc/libgcc/soft-fp/addsf3.c:44 (discriminator 244)
   25564:	0ff00513          	li	a0,255
   25568:	fea60ae3          	beq	a2,a0,2555c <__addsf3+0x2d0>
/opt/riscv-gnu-toolchain/build-gcc-newlib-stage2/riscv32-vega-elf/libgcc/../../.././gcc/libgcc/soft-fp/addsf3.c:44 (discriminator 270)
   2556c:	04000537          	lui	a0,0x4000
   25570:	00a7e7b3          	or	a5,a5,a0
/opt/riscv-gnu-toolchain/build-gcc-newlib-stage2/riscv32-vega-elf/libgcc/../../.././gcc/libgcc/soft-fp/addsf3.c:44 (discriminator 241)
   25574:	00068513          	mv	a0,a3
/opt/riscv-gnu-toolchain/build-gcc-newlib-stage2/riscv32-vega-elf/libgcc/../../.././gcc/libgcc/soft-fp/addsf3.c:44 (discriminator 279)
   25578:	01b00813          	li	a6,27
/opt/riscv-gnu-toolchain/build-gcc-newlib-stage2/riscv32-vega-elf/libgcc/../../.././gcc/libgcc/soft-fp/addsf3.c:44 (discriminator 289)
   2557c:	00100693          	li	a3,1
/opt/riscv-gnu-toolchain/build-gcc-newlib-stage2/riscv32-vega-elf/libgcc/../../.././gcc/libgcc/soft-fp/addsf3.c:44 (discriminator 279)
   25580:	00a84e63          	blt	a6,a0,2559c <__addsf3+0x310>
/opt/riscv-gnu-toolchain/build-gcc-newlib-stage2/riscv32-vega-elf/libgcc/../../.././gcc/libgcc/soft-fp/addsf3.c:44 (discriminator 285)
   25584:	02000693          	li	a3,32
   25588:	40a686b3          	sub	a3,a3,a0
/opt/riscv-gnu-toolchain/build-gcc-newlib-stage2/riscv32-vega-elf/libgcc/../../.././gcc/libgcc/soft-fp/addsf3.c:44 (discriminator 280)
   2558c:	00a7d833          	srl	a6,a5,a0
/opt/riscv-gnu-toolchain/build-gcc-newlib-stage2/riscv32-vega-elf/libgcc/../../.././gcc/libgcc/soft-fp/addsf3.c:44 (discriminator 285)
   25590:	00d797b3          	sll	a5,a5,a3
   25594:	00f037b3          	snez	a5,a5
/opt/riscv-gnu-toolchain/build-gcc-newlib-stage2/riscv32-vega-elf/libgcc/../../.././gcc/libgcc/soft-fp/addsf3.c:44 (discriminator 287)
   25598:	00f866b3          	or	a3,a6,a5
/opt/riscv-gnu-toolchain/build-gcc-newlib-stage2/riscv32-vega-elf/libgcc/../../.././gcc/libgcc/soft-fp/addsf3.c:44 (discriminator 291)
   2559c:	40d707b3          	sub	a5,a4,a3
/opt/riscv-gnu-toolchain/build-gcc-newlib-stage2/riscv32-vega-elf/libgcc/../../.././gcc/libgcc/soft-fp/addsf3.c:44 (discriminator 241)
   255a0:	00060413          	mv	s0,a2
   255a4:	00058493          	mv	s1,a1
   255a8:	f59ff06f          	j	25500 <__addsf3+0x274>
/opt/riscv-gnu-toolchain/build-gcc-newlib-stage2/riscv32-vega-elf/libgcc/../../.././gcc/libgcc/soft-fp/addsf3.c:44 (discriminator 242)
   255ac:	00140693          	addi	a3,s0,1
   255b0:	0fe6f693          	andi	a3,a3,254
   255b4:	06069e63          	bnez	a3,25630 <__addsf3+0x3a4>
/opt/riscv-gnu-toolchain/build-gcc-newlib-stage2/riscv32-vega-elf/libgcc/../../.././gcc/libgcc/soft-fp/addsf3.c:44 (discriminator 293)
   255b8:	06041263          	bnez	s0,2561c <__addsf3+0x390>
/opt/riscv-gnu-toolchain/build-gcc-newlib-stage2/riscv32-vega-elf/libgcc/../../.././gcc/libgcc/soft-fp/addsf3.c:44 (discriminator 295)
   255bc:	02079463          	bnez	a5,255e4 <__addsf3+0x358>
/opt/riscv-gnu-toolchain/build-gcc-newlib-stage2/riscv32-vega-elf/libgcc/../../.././gcc/libgcc/soft-fp/addsf3.c:44 (discriminator 299)
   255c0:	00000493          	li	s1,0
/opt/riscv-gnu-toolchain/build-gcc-newlib-stage2/riscv32-vega-elf/libgcc/../../.././gcc/libgcc/soft-fp/addsf3.c:44 (discriminator 297)
   255c4:	e40708e3          	beqz	a4,25414 <__addsf3+0x188>
/opt/riscv-gnu-toolchain/build-gcc-newlib-stage2/riscv32-vega-elf/libgcc/../../.././gcc/libgcc/soft-fp/addsf3.c:44 (discriminator 300)
   255c8:	00058493          	mv	s1,a1
/opt/riscv-gnu-toolchain/build-gcc-newlib-stage2/riscv32-vega-elf/libgcc/../../.././gcc/libgcc/soft-fp/addsf3.c:45 (discriminator 79)
   255cc:	00375793          	srli	a5,a4,0x3
   255d0:	0ff00713          	li	a4,255
   255d4:	e4e410e3          	bne	s0,a4,25414 <__addsf3+0x188>
/opt/riscv-gnu-toolchain/build-gcc-newlib-stage2/riscv32-vega-elf/libgcc/../../.././gcc/libgcc/soft-fp/addsf3.c:45 (discriminator 80)
   255d8:	e2078ee3          	beqz	a5,25414 <__addsf3+0x188>
/opt/riscv-gnu-toolchain/build-gcc-newlib-stage2/riscv32-vega-elf/libgcc/../../.././gcc/libgcc/soft-fp/addsf3.c:45 (discriminator 84)
   255dc:	004007b7          	lui	a5,0x400
   255e0:	0340006f          	j	25614 <__addsf3+0x388>
/opt/riscv-gnu-toolchain/build-gcc-newlib-stage2/riscv32-vega-elf/libgcc/../../.././gcc/libgcc/soft-fp/addsf3.c:44 (discriminator 298)
   255e4:	ea0702e3          	beqz	a4,25488 <__addsf3+0x1fc>
/opt/riscv-gnu-toolchain/build-gcc-newlib-stage2/riscv32-vega-elf/libgcc/../../.././gcc/libgcc/soft-fp/addsf3.c:44 (discriminator 305)
   255e8:	40e786b3          	sub	a3,a5,a4
   255ec:	00569613          	slli	a2,a3,0x5
   255f0:	00065c63          	bgez	a2,25608 <__addsf3+0x37c>
/opt/riscv-gnu-toolchain/build-gcc-newlib-stage2/riscv32-vega-elf/libgcc/../../.././gcc/libgcc/soft-fp/addsf3.c:44 (discriminator 307)
   255f4:	40f707b3          	sub	a5,a4,a5
   255f8:	00058493          	mv	s1,a1
   255fc:	00000413          	li	s0,0
/opt/riscv-gnu-toolchain/build-gcc-newlib-stage2/riscv32-vega-elf/libgcc/../../.././gcc/libgcc/soft-fp/addsf3.c:45 (discriminator 1)
   25600:	e0078ae3          	beqz	a5,25414 <__addsf3+0x188>
   25604:	e6dff06f          	j	25470 <__addsf3+0x1e4>
/opt/riscv-gnu-toolchain/build-gcc-newlib-stage2/riscv32-vega-elf/libgcc/../../.././gcc/libgcc/soft-fp/addsf3.c:44 (discriminator 305)
   25608:	00068713          	mv	a4,a3
/opt/riscv-gnu-toolchain/build-gcc-newlib-stage2/riscv32-vega-elf/libgcc/../../.././gcc/libgcc/soft-fp/addsf3.c:44 (discriminator 308)
   2560c:	fc0690e3          	bnez	a3,255cc <__addsf3+0x340>
/opt/riscv-gnu-toolchain/build-gcc-newlib-stage2/riscv32-vega-elf/libgcc/../../.././gcc/libgcc/soft-fp/addsf3.c:45 (discriminator 79)
   25610:	00000793          	li	a5,0
/opt/riscv-gnu-toolchain/build-gcc-newlib-stage2/riscv32-vega-elf/libgcc/../../.././gcc/libgcc/soft-fp/addsf3.c:45 (discriminator 84)
   25614:	00000493          	li	s1,0
   25618:	dfdff06f          	j	25414 <__addsf3+0x188>
/opt/riscv-gnu-toolchain/build-gcc-newlib-stage2/riscv32-vega-elf/libgcc/../../.././gcc/libgcc/soft-fp/addsf3.c:44 (discriminator 327)
   2561c:	e2079ae3          	bnez	a5,25450 <__addsf3+0x1c4>
/opt/riscv-gnu-toolchain/build-gcc-newlib-stage2/riscv32-vega-elf/libgcc/../../.././gcc/libgcc/soft-fp/addsf3.c:45 (discriminator 84)
   25620:	00000493          	li	s1,0
   25624:	0ff00413          	li	s0,255
   25628:	004007b7          	lui	a5,0x400
   2562c:	de9ff06f          	j	25414 <__addsf3+0x188>
/opt/riscv-gnu-toolchain/build-gcc-newlib-stage2/riscv32-vega-elf/libgcc/../../.././gcc/libgcc/soft-fp/addsf3.c:44 (discriminator 294)
   25630:	40e78933          	sub	s2,a5,a4
   25634:	00591693          	slli	a3,s2,0x5
   25638:	0406d263          	bgez	a3,2567c <__addsf3+0x3f0>
/opt/riscv-gnu-toolchain/build-gcc-newlib-stage2/riscv32-vega-elf/libgcc/../../.././gcc/libgcc/soft-fp/addsf3.c:44 (discriminator 344)
   2563c:	40f70933          	sub	s2,a4,a5
   25640:	00058493          	mv	s1,a1
/opt/riscv-gnu-toolchain/build-gcc-newlib-stage2/riscv32-vega-elf/libgcc/../../.././gcc/libgcc/soft-fp/addsf3.c:44 (discriminator 354)
   25644:	00090513          	mv	a0,s2
   25648:	7bc000ef          	jal	25e04 <__clzsi2>
/opt/riscv-gnu-toolchain/build-gcc-newlib-stage2/riscv32-vega-elf/libgcc/../../.././gcc/libgcc/soft-fp/addsf3.c:44 (discriminator 360)
   2564c:	ffb50513          	addi	a0,a0,-5 # 3fffffb <_heap_end+0x3fd703b>
/opt/riscv-gnu-toolchain/build-gcc-newlib-stage2/riscv32-vega-elf/libgcc/../../.././gcc/libgcc/soft-fp/addsf3.c:44 (discriminator 364)
   25650:	00a91933          	sll	s2,s2,a0
/opt/riscv-gnu-toolchain/build-gcc-newlib-stage2/riscv32-vega-elf/libgcc/../../.././gcc/libgcc/soft-fp/addsf3.c:44 (discriminator 366)
   25654:	02854a63          	blt	a0,s0,25688 <__addsf3+0x3fc>
/opt/riscv-gnu-toolchain/build-gcc-newlib-stage2/riscv32-vega-elf/libgcc/../../.././gcc/libgcc/soft-fp/addsf3.c:44 (discriminator 367)
   25658:	40850533          	sub	a0,a0,s0
   2565c:	00150513          	addi	a0,a0,1
/opt/riscv-gnu-toolchain/build-gcc-newlib-stage2/riscv32-vega-elf/libgcc/../../.././gcc/libgcc/soft-fp/addsf3.c:44 (discriminator 372)
   25660:	02000713          	li	a4,32
   25664:	40a70733          	sub	a4,a4,a0
/opt/riscv-gnu-toolchain/build-gcc-newlib-stage2/riscv32-vega-elf/libgcc/../../.././gcc/libgcc/soft-fp/addsf3.c:44 (discriminator 367)
   25668:	00a957b3          	srl	a5,s2,a0
/opt/riscv-gnu-toolchain/build-gcc-newlib-stage2/riscv32-vega-elf/libgcc/../../.././gcc/libgcc/soft-fp/addsf3.c:44 (discriminator 372)
   2566c:	00e91933          	sll	s2,s2,a4
   25670:	01203933          	snez	s2,s2
/opt/riscv-gnu-toolchain/build-gcc-newlib-stage2/riscv32-vega-elf/libgcc/../../.././gcc/libgcc/soft-fp/addsf3.c:44 (discriminator 374)
   25674:	0127e7b3          	or	a5,a5,s2
/opt/riscv-gnu-toolchain/build-gcc-newlib-stage2/riscv32-vega-elf/libgcc/../../.././gcc/libgcc/soft-fp/addsf3.c:45
   25678:	f85ff06f          	j	255fc <__addsf3+0x370>
/opt/riscv-gnu-toolchain/build-gcc-newlib-stage2/riscv32-vega-elf/libgcc/../../.././gcc/libgcc/soft-fp/addsf3.c:44 (discriminator 345)
   2567c:	fc0914e3          	bnez	s2,25644 <__addsf3+0x3b8>
   25680:	00000413          	li	s0,0
   25684:	f8dff06f          	j	25610 <__addsf3+0x384>
/opt/riscv-gnu-toolchain/build-gcc-newlib-stage2/riscv32-vega-elf/libgcc/../../.././gcc/libgcc/soft-fp/addsf3.c:44 (discriminator 368)
   25688:	fc0007b7          	lui	a5,0xfc000
   2568c:	fff78793          	addi	a5,a5,-1 # fbffffff <_heap_end+0xfbfd703f>
   25690:	40a40433          	sub	s0,s0,a0
   25694:	00f977b3          	and	a5,s2,a5
   25698:	dd9ff06f          	j	25470 <__addsf3+0x1e4>
/opt/riscv-gnu-toolchain/build-gcc-newlib-stage2/riscv32-vega-elf/libgcc/../../.././gcc/libgcc/soft-fp/addsf3.c:44 (discriminator 121)
   2569c:	00070793          	mv	a5,a4
   256a0:	f5dff06f          	j	255fc <__addsf3+0x370>
/opt/riscv-gnu-toolchain/build-gcc-newlib-stage2/riscv32-vega-elf/libgcc/../../.././gcc/libgcc/soft-fp/addsf3.c:44 (discriminator 241)
   256a4:	00058493          	mv	s1,a1
   256a8:	00068413          	mv	s0,a3
   256ac:	f21ff06f          	j	255cc <__addsf3+0x340>
   256b0:	00068413          	mv	s0,a3
/opt/riscv-gnu-toolchain/build-gcc-newlib-stage2/riscv32-vega-elf/libgcc/../../.././gcc/libgcc/soft-fp/addsf3.c:45 (discriminator 79)
   256b4:	00000793          	li	a5,0
   256b8:	d5dff06f          	j	25414 <__addsf3+0x188>

000256bc <__divsf3>:
__divsf3():
/opt/riscv-gnu-toolchain/build-gcc-newlib-stage2/riscv32-vega-elf/libgcc/../../.././gcc/libgcc/soft-fp/divsf3.c:34
   256bc:	fe010113          	addi	sp,sp,-32
   256c0:	00912a23          	sw	s1,20(sp)
   256c4:	01755493          	srli	s1,a0,0x17
   256c8:	01212823          	sw	s2,16(sp)
   256cc:	01312623          	sw	s3,12(sp)
   256d0:	01412423          	sw	s4,8(sp)
/opt/riscv-gnu-toolchain/build-gcc-newlib-stage2/riscv32-vega-elf/libgcc/../../.././gcc/libgcc/soft-fp/divsf3.c:42
   256d4:	00951993          	slli	s3,a0,0x9
/opt/riscv-gnu-toolchain/build-gcc-newlib-stage2/riscv32-vega-elf/libgcc/../../.././gcc/libgcc/soft-fp/divsf3.c:34
   256d8:	00112e23          	sw	ra,28(sp)
   256dc:	00812c23          	sw	s0,24(sp)
   256e0:	01512223          	sw	s5,4(sp)
   256e4:	0ff4f493          	zext.b	s1,s1
   256e8:	00058a13          	mv	s4,a1
/opt/riscv-gnu-toolchain/build-gcc-newlib-stage2/riscv32-vega-elf/libgcc/../../.././gcc/libgcc/soft-fp/divsf3.c:42
   256ec:	0099d993          	srli	s3,s3,0x9
   256f0:	01f55913          	srli	s2,a0,0x1f
   256f4:	08048463          	beqz	s1,2577c <__divsf3+0xc0>
   256f8:	0ff00793          	li	a5,255
   256fc:	0af48063          	beq	s1,a5,2579c <__divsf3+0xe0>
/opt/riscv-gnu-toolchain/build-gcc-newlib-stage2/riscv32-vega-elf/libgcc/../../.././gcc/libgcc/soft-fp/divsf3.c:42 (discriminator 5)
   25700:	00399993          	slli	s3,s3,0x3
   25704:	040007b7          	lui	a5,0x4000
   25708:	00f9e9b3          	or	s3,s3,a5
/opt/riscv-gnu-toolchain/build-gcc-newlib-stage2/riscv32-vega-elf/libgcc/../../.././gcc/libgcc/soft-fp/divsf3.c:42 (discriminator 7)
   2570c:	f8148493          	addi	s1,s1,-127 # 7fff81 <_heap_end+0x7d6fc1>
/opt/riscv-gnu-toolchain/build-gcc-newlib-stage2/riscv32-vega-elf/libgcc/../../.././gcc/libgcc/soft-fp/divsf3.c:42 (discriminator 27)
   25710:	00000a93          	li	s5,0
/opt/riscv-gnu-toolchain/build-gcc-newlib-stage2/riscv32-vega-elf/libgcc/../../.././gcc/libgcc/soft-fp/divsf3.c:43
   25714:	017a5793          	srli	a5,s4,0x17
   25718:	009a1413          	slli	s0,s4,0x9
   2571c:	0ff7f793          	zext.b	a5,a5
   25720:	00945413          	srli	s0,s0,0x9
   25724:	01fa5a13          	srli	s4,s4,0x1f
   25728:	08078863          	beqz	a5,257b8 <__divsf3+0xfc>
   2572c:	0ff00713          	li	a4,255
   25730:	0ae78463          	beq	a5,a4,257d8 <__divsf3+0x11c>
/opt/riscv-gnu-toolchain/build-gcc-newlib-stage2/riscv32-vega-elf/libgcc/../../.././gcc/libgcc/soft-fp/divsf3.c:43 (discriminator 5)
   25734:	00341413          	slli	s0,s0,0x3
   25738:	04000737          	lui	a4,0x4000
   2573c:	00e46433          	or	s0,s0,a4
/opt/riscv-gnu-toolchain/build-gcc-newlib-stage2/riscv32-vega-elf/libgcc/../../.././gcc/libgcc/soft-fp/divsf3.c:43 (discriminator 7)
   25740:	f8178793          	addi	a5,a5,-127 # 3ffff81 <_heap_end+0x3fd6fc1>
/opt/riscv-gnu-toolchain/build-gcc-newlib-stage2/riscv32-vega-elf/libgcc/../../.././gcc/libgcc/soft-fp/divsf3.c:43 (discriminator 27)
   25744:	00000713          	li	a4,0
/opt/riscv-gnu-toolchain/build-gcc-newlib-stage2/riscv32-vega-elf/libgcc/../../.././gcc/libgcc/soft-fp/divsf3.c:44
   25748:	40f484b3          	sub	s1,s1,a5
   2574c:	002a9793          	slli	a5,s5,0x2
   25750:	00e7e7b3          	or	a5,a5,a4
   25754:	fff78793          	addi	a5,a5,-1
   25758:	00e00693          	li	a3,14
   2575c:	01494533          	xor	a0,s2,s4
   25760:	08f6ea63          	bltu	a3,a5,257f4 <__divsf3+0x138>
   25764:	000276b7          	lui	a3,0x27
   25768:	00279793          	slli	a5,a5,0x2
   2576c:	c3c68693          	addi	a3,a3,-964 # 26c3c <__fpclassifyd+0x3ac>
   25770:	00d787b3          	add	a5,a5,a3
   25774:	0007a783          	lw	a5,0(a5)
   25778:	00078067          	jr	a5
/opt/riscv-gnu-toolchain/build-gcc-newlib-stage2/riscv32-vega-elf/libgcc/../../.././gcc/libgcc/soft-fp/divsf3.c:42 (discriminator 2)
   2577c:	02098863          	beqz	s3,257ac <__divsf3+0xf0>
/opt/riscv-gnu-toolchain/build-gcc-newlib-stage2/riscv32-vega-elf/libgcc/../../.././gcc/libgcc/soft-fp/divsf3.c:42 (discriminator 15)
   25780:	00098513          	mv	a0,s3
   25784:	680000ef          	jal	25e04 <__clzsi2>
/opt/riscv-gnu-toolchain/build-gcc-newlib-stage2/riscv32-vega-elf/libgcc/../../.././gcc/libgcc/soft-fp/divsf3.c:42 (discriminator 21)
   25788:	ffb50793          	addi	a5,a0,-5
/opt/riscv-gnu-toolchain/build-gcc-newlib-stage2/riscv32-vega-elf/libgcc/../../.././gcc/libgcc/soft-fp/divsf3.c:42 (discriminator 27)
   2578c:	f8a00493          	li	s1,-118
/opt/riscv-gnu-toolchain/build-gcc-newlib-stage2/riscv32-vega-elf/libgcc/../../.././gcc/libgcc/soft-fp/divsf3.c:42 (discriminator 25)
   25790:	00f999b3          	sll	s3,s3,a5
/opt/riscv-gnu-toolchain/build-gcc-newlib-stage2/riscv32-vega-elf/libgcc/../../.././gcc/libgcc/soft-fp/divsf3.c:42 (discriminator 27)
   25794:	40a484b3          	sub	s1,s1,a0
   25798:	f79ff06f          	j	25710 <__divsf3+0x54>
/opt/riscv-gnu-toolchain/build-gcc-newlib-stage2/riscv32-vega-elf/libgcc/../../.././gcc/libgcc/soft-fp/divsf3.c:42 (discriminator 29)
   2579c:	00200a93          	li	s5,2
/opt/riscv-gnu-toolchain/build-gcc-newlib-stage2/riscv32-vega-elf/libgcc/../../.././gcc/libgcc/soft-fp/divsf3.c:42 (discriminator 3)
   257a0:	f6098ae3          	beqz	s3,25714 <__divsf3+0x58>
/opt/riscv-gnu-toolchain/build-gcc-newlib-stage2/riscv32-vega-elf/libgcc/../../.././gcc/libgcc/soft-fp/divsf3.c:42 (discriminator 30)
   257a4:	00300a93          	li	s5,3
   257a8:	f6dff06f          	j	25714 <__divsf3+0x58>
/opt/riscv-gnu-toolchain/build-gcc-newlib-stage2/riscv32-vega-elf/libgcc/../../.././gcc/libgcc/soft-fp/divsf3.c:42
   257ac:	00000493          	li	s1,0
/opt/riscv-gnu-toolchain/build-gcc-newlib-stage2/riscv32-vega-elf/libgcc/../../.././gcc/libgcc/soft-fp/divsf3.c:42 (discriminator 9)
   257b0:	00100a93          	li	s5,1
   257b4:	f61ff06f          	j	25714 <__divsf3+0x58>
/opt/riscv-gnu-toolchain/build-gcc-newlib-stage2/riscv32-vega-elf/libgcc/../../.././gcc/libgcc/soft-fp/divsf3.c:43 (discriminator 2)
   257b8:	02040863          	beqz	s0,257e8 <__divsf3+0x12c>
/opt/riscv-gnu-toolchain/build-gcc-newlib-stage2/riscv32-vega-elf/libgcc/../../.././gcc/libgcc/soft-fp/divsf3.c:43 (discriminator 15)
   257bc:	00040513          	mv	a0,s0
   257c0:	644000ef          	jal	25e04 <__clzsi2>
/opt/riscv-gnu-toolchain/build-gcc-newlib-stage2/riscv32-vega-elf/libgcc/../../.././gcc/libgcc/soft-fp/divsf3.c:43 (discriminator 21)
   257c4:	ffb50793          	addi	a5,a0,-5
/opt/riscv-gnu-toolchain/build-gcc-newlib-stage2/riscv32-vega-elf/libgcc/../../.././gcc/libgcc/soft-fp/divsf3.c:43 (discriminator 25)
   257c8:	00f41433          	sll	s0,s0,a5
/opt/riscv-gnu-toolchain/build-gcc-newlib-stage2/riscv32-vega-elf/libgcc/../../.././gcc/libgcc/soft-fp/divsf3.c:43 (discriminator 27)
   257cc:	f8a00793          	li	a5,-118
   257d0:	40a787b3          	sub	a5,a5,a0
   257d4:	f71ff06f          	j	25744 <__divsf3+0x88>
/opt/riscv-gnu-toolchain/build-gcc-newlib-stage2/riscv32-vega-elf/libgcc/../../.././gcc/libgcc/soft-fp/divsf3.c:43 (discriminator 29)
   257d8:	00200713          	li	a4,2
/opt/riscv-gnu-toolchain/build-gcc-newlib-stage2/riscv32-vega-elf/libgcc/../../.././gcc/libgcc/soft-fp/divsf3.c:43 (discriminator 3)
   257dc:	f60406e3          	beqz	s0,25748 <__divsf3+0x8c>
/opt/riscv-gnu-toolchain/build-gcc-newlib-stage2/riscv32-vega-elf/libgcc/../../.././gcc/libgcc/soft-fp/divsf3.c:43 (discriminator 30)
   257e0:	00300713          	li	a4,3
   257e4:	f65ff06f          	j	25748 <__divsf3+0x8c>
/opt/riscv-gnu-toolchain/build-gcc-newlib-stage2/riscv32-vega-elf/libgcc/../../.././gcc/libgcc/soft-fp/divsf3.c:43
   257e8:	00000793          	li	a5,0
/opt/riscv-gnu-toolchain/build-gcc-newlib-stage2/riscv32-vega-elf/libgcc/../../.././gcc/libgcc/soft-fp/divsf3.c:43 (discriminator 9)
   257ec:	00100713          	li	a4,1
   257f0:	f59ff06f          	j	25748 <__divsf3+0x8c>
/opt/riscv-gnu-toolchain/build-gcc-newlib-stage2/riscv32-vega-elf/libgcc/../../.././gcc/libgcc/soft-fp/divsf3.c:44 (discriminator 2)
   257f4:	00541713          	slli	a4,s0,0x5
   257f8:	1289f063          	bgeu	s3,s0,25918 <__divsf3+0x25c>
/opt/riscv-gnu-toolchain/build-gcc-newlib-stage2/riscv32-vega-elf/libgcc/../../.././gcc/libgcc/soft-fp/divsf3.c:44 (discriminator 10)
   257fc:	fff48493          	addi	s1,s1,-1
   25800:	00000793          	li	a5,0
/opt/riscv-gnu-toolchain/build-gcc-newlib-stage2/riscv32-vega-elf/libgcc/../../.././gcc/libgcc/soft-fp/divsf3.c:44 (discriminator 13)
   25804:	01075613          	srli	a2,a4,0x10
   25808:	02c9d833          	divu	a6,s3,a2
   2580c:	01071693          	slli	a3,a4,0x10
   25810:	0106d693          	srli	a3,a3,0x10
   25814:	0107d793          	srli	a5,a5,0x10
   25818:	02c9f9b3          	remu	s3,s3,a2
   2581c:	00080413          	mv	s0,a6
   25820:	030685b3          	mul	a1,a3,a6
   25824:	01099993          	slli	s3,s3,0x10
   25828:	0137e7b3          	or	a5,a5,s3
   2582c:	00b7fe63          	bgeu	a5,a1,25848 <__divsf3+0x18c>
/opt/riscv-gnu-toolchain/build-gcc-newlib-stage2/riscv32-vega-elf/libgcc/../../.././gcc/libgcc/soft-fp/divsf3.c:44 (discriminator 14)
   25830:	00f707b3          	add	a5,a4,a5
   25834:	fff80413          	addi	s0,a6,-1
   25838:	00e7e863          	bltu	a5,a4,25848 <__divsf3+0x18c>
/opt/riscv-gnu-toolchain/build-gcc-newlib-stage2/riscv32-vega-elf/libgcc/../../.././gcc/libgcc/soft-fp/divsf3.c:44 (discriminator 16)
   2583c:	00b7f663          	bgeu	a5,a1,25848 <__divsf3+0x18c>
/opt/riscv-gnu-toolchain/build-gcc-newlib-stage2/riscv32-vega-elf/libgcc/../../.././gcc/libgcc/soft-fp/divsf3.c:44 (discriminator 18)
   25840:	ffe80413          	addi	s0,a6,-2
   25844:	00e787b3          	add	a5,a5,a4
/opt/riscv-gnu-toolchain/build-gcc-newlib-stage2/riscv32-vega-elf/libgcc/../../.././gcc/libgcc/soft-fp/divsf3.c:44 (discriminator 20)
   25848:	40b787b3          	sub	a5,a5,a1
   2584c:	02c7d5b3          	divu	a1,a5,a2
   25850:	02c7f7b3          	remu	a5,a5,a2
   25854:	00058613          	mv	a2,a1
   25858:	02b686b3          	mul	a3,a3,a1
   2585c:	01079793          	slli	a5,a5,0x10
   25860:	02d7f263          	bgeu	a5,a3,25884 <__divsf3+0x1c8>
/opt/riscv-gnu-toolchain/build-gcc-newlib-stage2/riscv32-vega-elf/libgcc/../../.././gcc/libgcc/soft-fp/divsf3.c:44 (discriminator 21)
   25864:	00e78833          	add	a6,a5,a4
   25868:	00f838b3          	sltu	a7,a6,a5
   2586c:	fff58613          	addi	a2,a1,-1 # 3ffffff <_heap_end+0x3fd703f>
   25870:	00080793          	mv	a5,a6
   25874:	00089863          	bnez	a7,25884 <__divsf3+0x1c8>
/opt/riscv-gnu-toolchain/build-gcc-newlib-stage2/riscv32-vega-elf/libgcc/../../.././gcc/libgcc/soft-fp/divsf3.c:44 (discriminator 23)
   25878:	00d87663          	bgeu	a6,a3,25884 <__divsf3+0x1c8>
/opt/riscv-gnu-toolchain/build-gcc-newlib-stage2/riscv32-vega-elf/libgcc/../../.././gcc/libgcc/soft-fp/divsf3.c:44 (discriminator 25)
   2587c:	ffe58613          	addi	a2,a1,-2
   25880:	00e807b3          	add	a5,a6,a4
/opt/riscv-gnu-toolchain/build-gcc-newlib-stage2/riscv32-vega-elf/libgcc/../../.././gcc/libgcc/soft-fp/divsf3.c:44 (discriminator 27)
   25884:	01041413          	slli	s0,s0,0x10
   25888:	40d787b3          	sub	a5,a5,a3
   2588c:	00c46433          	or	s0,s0,a2
   25890:	00f037b3          	snez	a5,a5
   25894:	00f46433          	or	s0,s0,a5
/opt/riscv-gnu-toolchain/build-gcc-newlib-stage2/riscv32-vega-elf/libgcc/../../.././gcc/libgcc/soft-fp/divsf3.c:45 (discriminator 2)
   25898:	07f48713          	addi	a4,s1,127
   2589c:	0ce05063          	blez	a4,2595c <__divsf3+0x2a0>
/opt/riscv-gnu-toolchain/build-gcc-newlib-stage2/riscv32-vega-elf/libgcc/../../.././gcc/libgcc/soft-fp/divsf3.c:45 (discriminator 6)
   258a0:	00747793          	andi	a5,s0,7
   258a4:	00078a63          	beqz	a5,258b8 <__divsf3+0x1fc>
/opt/riscv-gnu-toolchain/build-gcc-newlib-stage2/riscv32-vega-elf/libgcc/../../.././gcc/libgcc/soft-fp/divsf3.c:45 (discriminator 11)
   258a8:	00f47793          	andi	a5,s0,15
   258ac:	00400693          	li	a3,4
   258b0:	00d78463          	beq	a5,a3,258b8 <__divsf3+0x1fc>
/opt/riscv-gnu-toolchain/build-gcc-newlib-stage2/riscv32-vega-elf/libgcc/../../.././gcc/libgcc/soft-fp/divsf3.c:45 (discriminator 15)
   258b4:	00d40433          	add	s0,s0,a3
/opt/riscv-gnu-toolchain/build-gcc-newlib-stage2/riscv32-vega-elf/libgcc/../../.././gcc/libgcc/soft-fp/divsf3.c:45 (discriminator 18)
   258b8:	00441793          	slli	a5,s0,0x4
   258bc:	0007da63          	bgez	a5,258d0 <__divsf3+0x214>
/opt/riscv-gnu-toolchain/build-gcc-newlib-stage2/riscv32-vega-elf/libgcc/../../.././gcc/libgcc/soft-fp/divsf3.c:45 (discriminator 29)
   258c0:	f80007b7          	lui	a5,0xf8000
   258c4:	fff78793          	addi	a5,a5,-1 # f7ffffff <_heap_end+0xf7fd703f>
   258c8:	00f47433          	and	s0,s0,a5
   258cc:	08048713          	addi	a4,s1,128
/opt/riscv-gnu-toolchain/build-gcc-newlib-stage2/riscv32-vega-elf/libgcc/../../.././gcc/libgcc/soft-fp/divsf3.c:45 (discriminator 31)
   258d0:	0fe00793          	li	a5,254
   258d4:	0ee7cc63          	blt	a5,a4,259cc <__divsf3+0x310>
   258d8:	00345793          	srli	a5,s0,0x3
/opt/riscv-gnu-toolchain/build-gcc-newlib-stage2/riscv32-vega-elf/libgcc/../../.././gcc/libgcc/soft-fp/divsf3.c:49
   258dc:	01c12083          	lw	ra,28(sp)
   258e0:	01812403          	lw	s0,24(sp)
/opt/riscv-gnu-toolchain/build-gcc-newlib-stage2/riscv32-vega-elf/libgcc/../../.././gcc/libgcc/soft-fp/divsf3.c:45 (discriminator 135)
   258e4:	00979793          	slli	a5,a5,0x9
   258e8:	01771713          	slli	a4,a4,0x17
   258ec:	0097d793          	srli	a5,a5,0x9
   258f0:	00f76733          	or	a4,a4,a5
   258f4:	01f51513          	slli	a0,a0,0x1f
/opt/riscv-gnu-toolchain/build-gcc-newlib-stage2/riscv32-vega-elf/libgcc/../../.././gcc/libgcc/soft-fp/divsf3.c:49
   258f8:	01412483          	lw	s1,20(sp)
   258fc:	01012903          	lw	s2,16(sp)
   25900:	00c12983          	lw	s3,12(sp)
   25904:	00812a03          	lw	s4,8(sp)
   25908:	00412a83          	lw	s5,4(sp)
   2590c:	00a76533          	or	a0,a4,a0
   25910:	02010113          	addi	sp,sp,32
   25914:	00008067          	ret
/opt/riscv-gnu-toolchain/build-gcc-newlib-stage2/riscv32-vega-elf/libgcc/../../.././gcc/libgcc/soft-fp/divsf3.c:44 (discriminator 11)
   25918:	01f99793          	slli	a5,s3,0x1f
   2591c:	0019d993          	srli	s3,s3,0x1
   25920:	ee5ff06f          	j	25804 <__divsf3+0x148>
/opt/riscv-gnu-toolchain/build-gcc-newlib-stage2/riscv32-vega-elf/libgcc/../../.././gcc/libgcc/soft-fp/divsf3.c:43
   25924:	000a0513          	mv	a0,s4
/opt/riscv-gnu-toolchain/build-gcc-newlib-stage2/riscv32-vega-elf/libgcc/../../.././gcc/libgcc/soft-fp/divsf3.c:45
   25928:	00200793          	li	a5,2
   2592c:	0af70063          	beq	a4,a5,259cc <__divsf3+0x310>
   25930:	00300793          	li	a5,3
   25934:	08f70463          	beq	a4,a5,259bc <__divsf3+0x300>
   25938:	00100793          	li	a5,1
   2593c:	f4f71ee3          	bne	a4,a5,25898 <__divsf3+0x1dc>
/opt/riscv-gnu-toolchain/build-gcc-newlib-stage2/riscv32-vega-elf/libgcc/../../.././gcc/libgcc/soft-fp/divsf3.c:45 (discriminator 3)
   25940:	00000793          	li	a5,0
   25944:	00000713          	li	a4,0
   25948:	f95ff06f          	j	258dc <__divsf3+0x220>
/opt/riscv-gnu-toolchain/build-gcc-newlib-stage2/riscv32-vega-elf/libgcc/../../.././gcc/libgcc/soft-fp/divsf3.c:42
   2594c:	00090513          	mv	a0,s2
/opt/riscv-gnu-toolchain/build-gcc-newlib-stage2/riscv32-vega-elf/libgcc/../../.././gcc/libgcc/soft-fp/divsf3.c:44 (discriminator 8)
   25950:	00098413          	mv	s0,s3
   25954:	000a8713          	mv	a4,s5
   25958:	fd1ff06f          	j	25928 <__divsf3+0x26c>
/opt/riscv-gnu-toolchain/build-gcc-newlib-stage2/riscv32-vega-elf/libgcc/../../.././gcc/libgcc/soft-fp/divsf3.c:45
   2595c:	00100693          	li	a3,1
/opt/riscv-gnu-toolchain/build-gcc-newlib-stage2/riscv32-vega-elf/libgcc/../../.././gcc/libgcc/soft-fp/divsf3.c:45 (discriminator 7)
   25960:	00070c63          	beqz	a4,25978 <__divsf3+0x2bc>
/opt/riscv-gnu-toolchain/build-gcc-newlib-stage2/riscv32-vega-elf/libgcc/../../.././gcc/libgcc/soft-fp/divsf3.c:45 (discriminator 73)
   25964:	40e686b3          	sub	a3,a3,a4
   25968:	01b00613          	li	a2,27
   2596c:	00000793          	li	a5,0
/opt/riscv-gnu-toolchain/build-gcc-newlib-stage2/riscv32-vega-elf/libgcc/../../.././gcc/libgcc/soft-fp/divsf3.c:45 (discriminator 75)
   25970:	00000713          	li	a4,0
/opt/riscv-gnu-toolchain/build-gcc-newlib-stage2/riscv32-vega-elf/libgcc/../../.././gcc/libgcc/soft-fp/divsf3.c:45 (discriminator 73)
   25974:	f6d644e3          	blt	a2,a3,258dc <__divsf3+0x220>
/opt/riscv-gnu-toolchain/build-gcc-newlib-stage2/riscv32-vega-elf/libgcc/../../.././gcc/libgcc/soft-fp/divsf3.c:45 (discriminator 79)
   25978:	09e48493          	addi	s1,s1,158
/opt/riscv-gnu-toolchain/build-gcc-newlib-stage2/riscv32-vega-elf/libgcc/../../.././gcc/libgcc/soft-fp/divsf3.c:45 (discriminator 74)
   2597c:	00d456b3          	srl	a3,s0,a3
/opt/riscv-gnu-toolchain/build-gcc-newlib-stage2/riscv32-vega-elf/libgcc/../../.././gcc/libgcc/soft-fp/divsf3.c:45 (discriminator 79)
   25980:	00941433          	sll	s0,s0,s1
   25984:	00803433          	snez	s0,s0
/opt/riscv-gnu-toolchain/build-gcc-newlib-stage2/riscv32-vega-elf/libgcc/../../.././gcc/libgcc/soft-fp/divsf3.c:45 (discriminator 81)
   25988:	0086e7b3          	or	a5,a3,s0
   2598c:	0077f713          	andi	a4,a5,7
   25990:	00070a63          	beqz	a4,259a4 <__divsf3+0x2e8>
/opt/riscv-gnu-toolchain/build-gcc-newlib-stage2/riscv32-vega-elf/libgcc/../../.././gcc/libgcc/soft-fp/divsf3.c:45 (discriminator 85)
   25994:	00f7f713          	andi	a4,a5,15
   25998:	00400693          	li	a3,4
   2599c:	00d70463          	beq	a4,a3,259a4 <__divsf3+0x2e8>
/opt/riscv-gnu-toolchain/build-gcc-newlib-stage2/riscv32-vega-elf/libgcc/../../.././gcc/libgcc/soft-fp/divsf3.c:45 (discriminator 89)
   259a0:	00d787b3          	add	a5,a5,a3
/opt/riscv-gnu-toolchain/build-gcc-newlib-stage2/riscv32-vega-elf/libgcc/../../.././gcc/libgcc/soft-fp/divsf3.c:45 (discriminator 92)
   259a4:	00579713          	slli	a4,a5,0x5
/opt/riscv-gnu-toolchain/build-gcc-newlib-stage2/riscv32-vega-elf/libgcc/../../.././gcc/libgcc/soft-fp/divsf3.c:45 (discriminator 104)
   259a8:	0037d793          	srli	a5,a5,0x3
/opt/riscv-gnu-toolchain/build-gcc-newlib-stage2/riscv32-vega-elf/libgcc/../../.././gcc/libgcc/soft-fp/divsf3.c:45 (discriminator 92)
   259ac:	f8075ce3          	bgez	a4,25944 <__divsf3+0x288>
/opt/riscv-gnu-toolchain/build-gcc-newlib-stage2/riscv32-vega-elf/libgcc/../../.././gcc/libgcc/soft-fp/divsf3.c:45 (discriminator 103)
   259b0:	00000793          	li	a5,0
   259b4:	00100713          	li	a4,1
   259b8:	f25ff06f          	j	258dc <__divsf3+0x220>
/opt/riscv-gnu-toolchain/build-gcc-newlib-stage2/riscv32-vega-elf/libgcc/../../.././gcc/libgcc/soft-fp/divsf3.c:45 (discriminator 136)
   259bc:	004007b7          	lui	a5,0x400
/opt/riscv-gnu-toolchain/build-gcc-newlib-stage2/riscv32-vega-elf/libgcc/../../.././gcc/libgcc/soft-fp/divsf3.c:45 (discriminator 5)
   259c0:	0ff00713          	li	a4,255
/opt/riscv-gnu-toolchain/build-gcc-newlib-stage2/riscv32-vega-elf/libgcc/../../.././gcc/libgcc/soft-fp/divsf3.c:45 (discriminator 136)
   259c4:	00000513          	li	a0,0
   259c8:	f15ff06f          	j	258dc <__divsf3+0x220>
   259cc:	00000793          	li	a5,0
   259d0:	0ff00713          	li	a4,255
   259d4:	f09ff06f          	j	258dc <__divsf3+0x220>

000259d8 <__mulsf3>:
__mulsf3():
/opt/riscv-gnu-toolchain/build-gcc-newlib-stage2/riscv32-vega-elf/libgcc/../../.././gcc/libgcc/soft-fp/mulsf3.c:34
   259d8:	fe010113          	addi	sp,sp,-32
   259dc:	01212823          	sw	s2,16(sp)
   259e0:	01755913          	srli	s2,a0,0x17
   259e4:	00912a23          	sw	s1,20(sp)
   259e8:	01312623          	sw	s3,12(sp)
   259ec:	01512223          	sw	s5,4(sp)
/opt/riscv-gnu-toolchain/build-gcc-newlib-stage2/riscv32-vega-elf/libgcc/../../.././gcc/libgcc/soft-fp/mulsf3.c:42
   259f0:	00951493          	slli	s1,a0,0x9
/opt/riscv-gnu-toolchain/build-gcc-newlib-stage2/riscv32-vega-elf/libgcc/../../.././gcc/libgcc/soft-fp/mulsf3.c:34
   259f4:	00112e23          	sw	ra,28(sp)
   259f8:	00812c23          	sw	s0,24(sp)
   259fc:	01412423          	sw	s4,8(sp)
   25a00:	0ff97913          	zext.b	s2,s2
   25a04:	00058a93          	mv	s5,a1
/opt/riscv-gnu-toolchain/build-gcc-newlib-stage2/riscv32-vega-elf/libgcc/../../.././gcc/libgcc/soft-fp/mulsf3.c:42
   25a08:	0094d493          	srli	s1,s1,0x9
   25a0c:	01f55993          	srli	s3,a0,0x1f
   25a10:	18090463          	beqz	s2,25b98 <__mulsf3+0x1c0>
   25a14:	0ff00793          	li	a5,255
   25a18:	1af90063          	beq	s2,a5,25bb8 <__mulsf3+0x1e0>
/opt/riscv-gnu-toolchain/build-gcc-newlib-stage2/riscv32-vega-elf/libgcc/../../.././gcc/libgcc/soft-fp/mulsf3.c:42 (discriminator 5)
   25a1c:	00349493          	slli	s1,s1,0x3
   25a20:	040007b7          	lui	a5,0x4000
   25a24:	00f4e4b3          	or	s1,s1,a5
/opt/riscv-gnu-toolchain/build-gcc-newlib-stage2/riscv32-vega-elf/libgcc/../../.././gcc/libgcc/soft-fp/mulsf3.c:42 (discriminator 7)
   25a28:	f8190913          	addi	s2,s2,-127
/opt/riscv-gnu-toolchain/build-gcc-newlib-stage2/riscv32-vega-elf/libgcc/../../.././gcc/libgcc/soft-fp/mulsf3.c:42 (discriminator 27)
   25a2c:	00000a13          	li	s4,0
/opt/riscv-gnu-toolchain/build-gcc-newlib-stage2/riscv32-vega-elf/libgcc/../../.././gcc/libgcc/soft-fp/mulsf3.c:43
   25a30:	017ad793          	srli	a5,s5,0x17
   25a34:	009a9413          	slli	s0,s5,0x9
   25a38:	0ff7f793          	zext.b	a5,a5
   25a3c:	00945413          	srli	s0,s0,0x9
   25a40:	01fada93          	srli	s5,s5,0x1f
   25a44:	18078863          	beqz	a5,25bd4 <__mulsf3+0x1fc>
   25a48:	0ff00713          	li	a4,255
   25a4c:	1ae78463          	beq	a5,a4,25bf4 <__mulsf3+0x21c>
/opt/riscv-gnu-toolchain/build-gcc-newlib-stage2/riscv32-vega-elf/libgcc/../../.././gcc/libgcc/soft-fp/mulsf3.c:43 (discriminator 5)
   25a50:	00341413          	slli	s0,s0,0x3
   25a54:	04000737          	lui	a4,0x4000
   25a58:	00e46433          	or	s0,s0,a4
/opt/riscv-gnu-toolchain/build-gcc-newlib-stage2/riscv32-vega-elf/libgcc/../../.././gcc/libgcc/soft-fp/mulsf3.c:43 (discriminator 7)
   25a5c:	f8178793          	addi	a5,a5,-127 # 3ffff81 <_heap_end+0x3fd6fc1>
/opt/riscv-gnu-toolchain/build-gcc-newlib-stage2/riscv32-vega-elf/libgcc/../../.././gcc/libgcc/soft-fp/mulsf3.c:43 (discriminator 27)
   25a60:	00000713          	li	a4,0
/opt/riscv-gnu-toolchain/build-gcc-newlib-stage2/riscv32-vega-elf/libgcc/../../.././gcc/libgcc/soft-fp/mulsf3.c:44
   25a64:	00f90933          	add	s2,s2,a5
   25a68:	002a1793          	slli	a5,s4,0x2
   25a6c:	00e7e7b3          	or	a5,a5,a4
   25a70:	00a00693          	li	a3,10
   25a74:	00190613          	addi	a2,s2,1
   25a78:	1cf6ce63          	blt	a3,a5,25c54 <__mulsf3+0x27c>
   25a7c:	00200593          	li	a1,2
   25a80:	0159c9b3          	xor	s3,s3,s5
   25a84:	00100693          	li	a3,1
   25a88:	18f5c463          	blt	a1,a5,25c10 <__mulsf3+0x238>
   25a8c:	fff78793          	addi	a5,a5,-1
   25a90:	1af6f063          	bgeu	a3,a5,25c30 <__mulsf3+0x258>
/opt/riscv-gnu-toolchain/build-gcc-newlib-stage2/riscv32-vega-elf/libgcc/../../.././gcc/libgcc/soft-fp/mulsf3.c:44 (discriminator 2)
   25a94:	0104d713          	srli	a4,s1,0x10
   25a98:	01045793          	srli	a5,s0,0x10
/opt/riscv-gnu-toolchain/build-gcc-newlib-stage2/riscv32-vega-elf/libgcc/../../.././gcc/libgcc/soft-fp/mulsf3.c:44
   25a9c:	01049493          	slli	s1,s1,0x10
   25aa0:	01041413          	slli	s0,s0,0x10
   25aa4:	0104d493          	srli	s1,s1,0x10
   25aa8:	01045413          	srli	s0,s0,0x10
/opt/riscv-gnu-toolchain/build-gcc-newlib-stage2/riscv32-vega-elf/libgcc/../../.././gcc/libgcc/soft-fp/mulsf3.c:44 (discriminator 2)
   25aac:	029405b3          	mul	a1,s0,s1
   25ab0:	02870433          	mul	s0,a4,s0
   25ab4:	02f70733          	mul	a4,a4,a5
   25ab8:	029787b3          	mul	a5,a5,s1
   25abc:	008786b3          	add	a3,a5,s0
   25ac0:	0105d793          	srli	a5,a1,0x10
   25ac4:	00d787b3          	add	a5,a5,a3
   25ac8:	0087f663          	bgeu	a5,s0,25ad4 <__mulsf3+0xfc>
/opt/riscv-gnu-toolchain/build-gcc-newlib-stage2/riscv32-vega-elf/libgcc/../../.././gcc/libgcc/soft-fp/mulsf3.c:44 (discriminator 9)
   25acc:	000106b7          	lui	a3,0x10
   25ad0:	00d70733          	add	a4,a4,a3
/opt/riscv-gnu-toolchain/build-gcc-newlib-stage2/riscv32-vega-elf/libgcc/../../.././gcc/libgcc/soft-fp/mulsf3.c:44 (discriminator 11)
   25ad4:	01059593          	slli	a1,a1,0x10
   25ad8:	01079693          	slli	a3,a5,0x10
   25adc:	0105d593          	srli	a1,a1,0x10
   25ae0:	00b686b3          	add	a3,a3,a1
   25ae4:	0107d793          	srli	a5,a5,0x10
   25ae8:	00669413          	slli	s0,a3,0x6
   25aec:	00e787b3          	add	a5,a5,a4
   25af0:	00679793          	slli	a5,a5,0x6
   25af4:	00803433          	snez	s0,s0
   25af8:	01a6d693          	srli	a3,a3,0x1a
   25afc:	00d46433          	or	s0,s0,a3
   25b00:	00479713          	slli	a4,a5,0x4
   25b04:	0087e433          	or	s0,a5,s0
   25b08:	16075463          	bgez	a4,25c70 <__mulsf3+0x298>
/opt/riscv-gnu-toolchain/build-gcc-newlib-stage2/riscv32-vega-elf/libgcc/../../.././gcc/libgcc/soft-fp/mulsf3.c:44 (discriminator 12)
   25b0c:	00145793          	srli	a5,s0,0x1
   25b10:	00147413          	andi	s0,s0,1
   25b14:	0087e433          	or	s0,a5,s0
/opt/riscv-gnu-toolchain/build-gcc-newlib-stage2/riscv32-vega-elf/libgcc/../../.././gcc/libgcc/soft-fp/mulsf3.c:45 (discriminator 2)
   25b18:	07f60713          	addi	a4,a2,127 # 400007f <_heap_end+0x3fd70bf>
   25b1c:	14e05e63          	blez	a4,25c78 <__mulsf3+0x2a0>
/opt/riscv-gnu-toolchain/build-gcc-newlib-stage2/riscv32-vega-elf/libgcc/../../.././gcc/libgcc/soft-fp/mulsf3.c:45 (discriminator 6)
   25b20:	00747793          	andi	a5,s0,7
   25b24:	00078a63          	beqz	a5,25b38 <__mulsf3+0x160>
/opt/riscv-gnu-toolchain/build-gcc-newlib-stage2/riscv32-vega-elf/libgcc/../../.././gcc/libgcc/soft-fp/mulsf3.c:45 (discriminator 11)
   25b28:	00f47793          	andi	a5,s0,15
   25b2c:	00400693          	li	a3,4
   25b30:	00d78463          	beq	a5,a3,25b38 <__mulsf3+0x160>
/opt/riscv-gnu-toolchain/build-gcc-newlib-stage2/riscv32-vega-elf/libgcc/../../.././gcc/libgcc/soft-fp/mulsf3.c:45 (discriminator 15)
   25b34:	00d40433          	add	s0,s0,a3
/opt/riscv-gnu-toolchain/build-gcc-newlib-stage2/riscv32-vega-elf/libgcc/../../.././gcc/libgcc/soft-fp/mulsf3.c:45 (discriminator 18)
   25b38:	00441793          	slli	a5,s0,0x4
   25b3c:	0007da63          	bgez	a5,25b50 <__mulsf3+0x178>
/opt/riscv-gnu-toolchain/build-gcc-newlib-stage2/riscv32-vega-elf/libgcc/../../.././gcc/libgcc/soft-fp/mulsf3.c:45 (discriminator 29)
   25b40:	f80007b7          	lui	a5,0xf8000
   25b44:	fff78793          	addi	a5,a5,-1 # f7ffffff <_heap_end+0xf7fd703f>
   25b48:	00f47433          	and	s0,s0,a5
   25b4c:	08060713          	addi	a4,a2,128
/opt/riscv-gnu-toolchain/build-gcc-newlib-stage2/riscv32-vega-elf/libgcc/../../.././gcc/libgcc/soft-fp/mulsf3.c:45 (discriminator 31)
   25b50:	0fe00793          	li	a5,254
   25b54:	18e7ca63          	blt	a5,a4,25ce8 <__mulsf3+0x310>
   25b58:	00345793          	srli	a5,s0,0x3
/opt/riscv-gnu-toolchain/build-gcc-newlib-stage2/riscv32-vega-elf/libgcc/../../.././gcc/libgcc/soft-fp/mulsf3.c:49
   25b5c:	01c12083          	lw	ra,28(sp)
   25b60:	01812403          	lw	s0,24(sp)
/opt/riscv-gnu-toolchain/build-gcc-newlib-stage2/riscv32-vega-elf/libgcc/../../.././gcc/libgcc/soft-fp/mulsf3.c:45 (discriminator 135)
   25b64:	00979793          	slli	a5,a5,0x9
   25b68:	01771713          	slli	a4,a4,0x17
   25b6c:	0097d793          	srli	a5,a5,0x9
   25b70:	01f99993          	slli	s3,s3,0x1f
   25b74:	00f76733          	or	a4,a4,a5
/opt/riscv-gnu-toolchain/build-gcc-newlib-stage2/riscv32-vega-elf/libgcc/../../.././gcc/libgcc/soft-fp/mulsf3.c:49
   25b78:	01412483          	lw	s1,20(sp)
   25b7c:	01012903          	lw	s2,16(sp)
   25b80:	00812a03          	lw	s4,8(sp)
   25b84:	00412a83          	lw	s5,4(sp)
   25b88:	01376533          	or	a0,a4,s3
   25b8c:	00c12983          	lw	s3,12(sp)
   25b90:	02010113          	addi	sp,sp,32
   25b94:	00008067          	ret
/opt/riscv-gnu-toolchain/build-gcc-newlib-stage2/riscv32-vega-elf/libgcc/../../.././gcc/libgcc/soft-fp/mulsf3.c:42 (discriminator 2)
   25b98:	02048863          	beqz	s1,25bc8 <__mulsf3+0x1f0>
/opt/riscv-gnu-toolchain/build-gcc-newlib-stage2/riscv32-vega-elf/libgcc/../../.././gcc/libgcc/soft-fp/mulsf3.c:42 (discriminator 15)
   25b9c:	00048513          	mv	a0,s1
   25ba0:	264000ef          	jal	25e04 <__clzsi2>
/opt/riscv-gnu-toolchain/build-gcc-newlib-stage2/riscv32-vega-elf/libgcc/../../.././gcc/libgcc/soft-fp/mulsf3.c:42 (discriminator 21)
   25ba4:	ffb50793          	addi	a5,a0,-5
/opt/riscv-gnu-toolchain/build-gcc-newlib-stage2/riscv32-vega-elf/libgcc/../../.././gcc/libgcc/soft-fp/mulsf3.c:42 (discriminator 27)
   25ba8:	f8a00913          	li	s2,-118
/opt/riscv-gnu-toolchain/build-gcc-newlib-stage2/riscv32-vega-elf/libgcc/../../.././gcc/libgcc/soft-fp/mulsf3.c:42 (discriminator 25)
   25bac:	00f494b3          	sll	s1,s1,a5
/opt/riscv-gnu-toolchain/build-gcc-newlib-stage2/riscv32-vega-elf/libgcc/../../.././gcc/libgcc/soft-fp/mulsf3.c:42 (discriminator 27)
   25bb0:	40a90933          	sub	s2,s2,a0
   25bb4:	e79ff06f          	j	25a2c <__mulsf3+0x54>
/opt/riscv-gnu-toolchain/build-gcc-newlib-stage2/riscv32-vega-elf/libgcc/../../.././gcc/libgcc/soft-fp/mulsf3.c:42 (discriminator 29)
   25bb8:	00200a13          	li	s4,2
/opt/riscv-gnu-toolchain/build-gcc-newlib-stage2/riscv32-vega-elf/libgcc/../../.././gcc/libgcc/soft-fp/mulsf3.c:42 (discriminator 3)
   25bbc:	e6048ae3          	beqz	s1,25a30 <__mulsf3+0x58>
/opt/riscv-gnu-toolchain/build-gcc-newlib-stage2/riscv32-vega-elf/libgcc/../../.././gcc/libgcc/soft-fp/mulsf3.c:42 (discriminator 30)
   25bc0:	00300a13          	li	s4,3
   25bc4:	e6dff06f          	j	25a30 <__mulsf3+0x58>
/opt/riscv-gnu-toolchain/build-gcc-newlib-stage2/riscv32-vega-elf/libgcc/../../.././gcc/libgcc/soft-fp/mulsf3.c:42
   25bc8:	00000913          	li	s2,0
/opt/riscv-gnu-toolchain/build-gcc-newlib-stage2/riscv32-vega-elf/libgcc/../../.././gcc/libgcc/soft-fp/mulsf3.c:42 (discriminator 9)
   25bcc:	00100a13          	li	s4,1
   25bd0:	e61ff06f          	j	25a30 <__mulsf3+0x58>
/opt/riscv-gnu-toolchain/build-gcc-newlib-stage2/riscv32-vega-elf/libgcc/../../.././gcc/libgcc/soft-fp/mulsf3.c:43 (discriminator 2)
   25bd4:	02040863          	beqz	s0,25c04 <__mulsf3+0x22c>
/opt/riscv-gnu-toolchain/build-gcc-newlib-stage2/riscv32-vega-elf/libgcc/../../.././gcc/libgcc/soft-fp/mulsf3.c:43 (discriminator 15)
   25bd8:	00040513          	mv	a0,s0
   25bdc:	228000ef          	jal	25e04 <__clzsi2>
/opt/riscv-gnu-toolchain/build-gcc-newlib-stage2/riscv32-vega-elf/libgcc/../../.././gcc/libgcc/soft-fp/mulsf3.c:43 (discriminator 21)
   25be0:	ffb50793          	addi	a5,a0,-5
/opt/riscv-gnu-toolchain/build-gcc-newlib-stage2/riscv32-vega-elf/libgcc/../../.././gcc/libgcc/soft-fp/mulsf3.c:43 (discriminator 25)
   25be4:	00f41433          	sll	s0,s0,a5
/opt/riscv-gnu-toolchain/build-gcc-newlib-stage2/riscv32-vega-elf/libgcc/../../.././gcc/libgcc/soft-fp/mulsf3.c:43 (discriminator 27)
   25be8:	f8a00793          	li	a5,-118
   25bec:	40a787b3          	sub	a5,a5,a0
   25bf0:	e71ff06f          	j	25a60 <__mulsf3+0x88>
/opt/riscv-gnu-toolchain/build-gcc-newlib-stage2/riscv32-vega-elf/libgcc/../../.././gcc/libgcc/soft-fp/mulsf3.c:43 (discriminator 29)
   25bf4:	00200713          	li	a4,2
/opt/riscv-gnu-toolchain/build-gcc-newlib-stage2/riscv32-vega-elf/libgcc/../../.././gcc/libgcc/soft-fp/mulsf3.c:43 (discriminator 3)
   25bf8:	e60406e3          	beqz	s0,25a64 <__mulsf3+0x8c>
/opt/riscv-gnu-toolchain/build-gcc-newlib-stage2/riscv32-vega-elf/libgcc/../../.././gcc/libgcc/soft-fp/mulsf3.c:43 (discriminator 30)
   25bfc:	00300713          	li	a4,3
   25c00:	e65ff06f          	j	25a64 <__mulsf3+0x8c>
/opt/riscv-gnu-toolchain/build-gcc-newlib-stage2/riscv32-vega-elf/libgcc/../../.././gcc/libgcc/soft-fp/mulsf3.c:43
   25c04:	00000793          	li	a5,0
/opt/riscv-gnu-toolchain/build-gcc-newlib-stage2/riscv32-vega-elf/libgcc/../../.././gcc/libgcc/soft-fp/mulsf3.c:43 (discriminator 9)
   25c08:	00100713          	li	a4,1
   25c0c:	e59ff06f          	j	25a64 <__mulsf3+0x8c>
   25c10:	00f697b3          	sll	a5,a3,a5
/opt/riscv-gnu-toolchain/build-gcc-newlib-stage2/riscv32-vega-elf/libgcc/../../.././gcc/libgcc/soft-fp/mulsf3.c:44
   25c14:	5307f693          	andi	a3,a5,1328
   25c18:	04069663          	bnez	a3,25c64 <__mulsf3+0x28c>
   25c1c:	2407f693          	andi	a3,a5,576
   25c20:	0a069c63          	bnez	a3,25cd8 <__mulsf3+0x300>
   25c24:	0887f793          	andi	a5,a5,136
   25c28:	e60786e3          	beqz	a5,25a94 <__mulsf3+0xbc>
/opt/riscv-gnu-toolchain/build-gcc-newlib-stage2/riscv32-vega-elf/libgcc/../../.././gcc/libgcc/soft-fp/mulsf3.c:43
   25c2c:	000a8993          	mv	s3,s5
/opt/riscv-gnu-toolchain/build-gcc-newlib-stage2/riscv32-vega-elf/libgcc/../../.././gcc/libgcc/soft-fp/mulsf3.c:45
   25c30:	00200793          	li	a5,2
   25c34:	0af70a63          	beq	a4,a5,25ce8 <__mulsf3+0x310>
   25c38:	00300793          	li	a5,3
   25c3c:	08f70e63          	beq	a4,a5,25cd8 <__mulsf3+0x300>
   25c40:	00100793          	li	a5,1
   25c44:	ecf71ae3          	bne	a4,a5,25b18 <__mulsf3+0x140>
/opt/riscv-gnu-toolchain/build-gcc-newlib-stage2/riscv32-vega-elf/libgcc/../../.././gcc/libgcc/soft-fp/mulsf3.c:45 (discriminator 3)
   25c48:	00000793          	li	a5,0
   25c4c:	00000713          	li	a4,0
   25c50:	f0dff06f          	j	25b5c <__mulsf3+0x184>
/opt/riscv-gnu-toolchain/build-gcc-newlib-stage2/riscv32-vega-elf/libgcc/../../.././gcc/libgcc/soft-fp/mulsf3.c:44
   25c54:	00f00693          	li	a3,15
   25c58:	08d78063          	beq	a5,a3,25cd8 <__mulsf3+0x300>
   25c5c:	00b00693          	li	a3,11
   25c60:	fcd786e3          	beq	a5,a3,25c2c <__mulsf3+0x254>
   25c64:	00048413          	mv	s0,s1
   25c68:	000a0713          	mv	a4,s4
   25c6c:	fc5ff06f          	j	25c30 <__mulsf3+0x258>
/opt/riscv-gnu-toolchain/build-gcc-newlib-stage2/riscv32-vega-elf/libgcc/../../.././gcc/libgcc/soft-fp/mulsf3.c:44 (discriminator 13)
   25c70:	00090613          	mv	a2,s2
   25c74:	ea5ff06f          	j	25b18 <__mulsf3+0x140>
/opt/riscv-gnu-toolchain/build-gcc-newlib-stage2/riscv32-vega-elf/libgcc/../../.././gcc/libgcc/soft-fp/mulsf3.c:45
   25c78:	00100693          	li	a3,1
/opt/riscv-gnu-toolchain/build-gcc-newlib-stage2/riscv32-vega-elf/libgcc/../../.././gcc/libgcc/soft-fp/mulsf3.c:45 (discriminator 7)
   25c7c:	00070c63          	beqz	a4,25c94 <__mulsf3+0x2bc>
/opt/riscv-gnu-toolchain/build-gcc-newlib-stage2/riscv32-vega-elf/libgcc/../../.././gcc/libgcc/soft-fp/mulsf3.c:45 (discriminator 73)
   25c80:	40e686b3          	sub	a3,a3,a4
   25c84:	01b00593          	li	a1,27
   25c88:	00000793          	li	a5,0
/opt/riscv-gnu-toolchain/build-gcc-newlib-stage2/riscv32-vega-elf/libgcc/../../.././gcc/libgcc/soft-fp/mulsf3.c:45 (discriminator 75)
   25c8c:	00000713          	li	a4,0
/opt/riscv-gnu-toolchain/build-gcc-newlib-stage2/riscv32-vega-elf/libgcc/../../.././gcc/libgcc/soft-fp/mulsf3.c:45 (discriminator 73)
   25c90:	ecd5c6e3          	blt	a1,a3,25b5c <__mulsf3+0x184>
/opt/riscv-gnu-toolchain/build-gcc-newlib-stage2/riscv32-vega-elf/libgcc/../../.././gcc/libgcc/soft-fp/mulsf3.c:45 (discriminator 79)
   25c94:	09e60613          	addi	a2,a2,158
/opt/riscv-gnu-toolchain/build-gcc-newlib-stage2/riscv32-vega-elf/libgcc/../../.././gcc/libgcc/soft-fp/mulsf3.c:45 (discriminator 74)
   25c98:	00d456b3          	srl	a3,s0,a3
/opt/riscv-gnu-toolchain/build-gcc-newlib-stage2/riscv32-vega-elf/libgcc/../../.././gcc/libgcc/soft-fp/mulsf3.c:45 (discriminator 79)
   25c9c:	00c41433          	sll	s0,s0,a2
   25ca0:	00803433          	snez	s0,s0
/opt/riscv-gnu-toolchain/build-gcc-newlib-stage2/riscv32-vega-elf/libgcc/../../.././gcc/libgcc/soft-fp/mulsf3.c:45 (discriminator 81)
   25ca4:	0086e7b3          	or	a5,a3,s0
   25ca8:	0077f713          	andi	a4,a5,7
   25cac:	00070a63          	beqz	a4,25cc0 <__mulsf3+0x2e8>
/opt/riscv-gnu-toolchain/build-gcc-newlib-stage2/riscv32-vega-elf/libgcc/../../.././gcc/libgcc/soft-fp/mulsf3.c:45 (discriminator 85)
   25cb0:	00f7f713          	andi	a4,a5,15
   25cb4:	00400693          	li	a3,4
   25cb8:	00d70463          	beq	a4,a3,25cc0 <__mulsf3+0x2e8>
/opt/riscv-gnu-toolchain/build-gcc-newlib-stage2/riscv32-vega-elf/libgcc/../../.././gcc/libgcc/soft-fp/mulsf3.c:45 (discriminator 89)
   25cbc:	00d787b3          	add	a5,a5,a3
/opt/riscv-gnu-toolchain/build-gcc-newlib-stage2/riscv32-vega-elf/libgcc/../../.././gcc/libgcc/soft-fp/mulsf3.c:45 (discriminator 92)
   25cc0:	00579713          	slli	a4,a5,0x5
/opt/riscv-gnu-toolchain/build-gcc-newlib-stage2/riscv32-vega-elf/libgcc/../../.././gcc/libgcc/soft-fp/mulsf3.c:45 (discriminator 104)
   25cc4:	0037d793          	srli	a5,a5,0x3
/opt/riscv-gnu-toolchain/build-gcc-newlib-stage2/riscv32-vega-elf/libgcc/../../.././gcc/libgcc/soft-fp/mulsf3.c:45 (discriminator 92)
   25cc8:	f80752e3          	bgez	a4,25c4c <__mulsf3+0x274>
/opt/riscv-gnu-toolchain/build-gcc-newlib-stage2/riscv32-vega-elf/libgcc/../../.././gcc/libgcc/soft-fp/mulsf3.c:45 (discriminator 103)
   25ccc:	00000793          	li	a5,0
   25cd0:	00100713          	li	a4,1
   25cd4:	e89ff06f          	j	25b5c <__mulsf3+0x184>
/opt/riscv-gnu-toolchain/build-gcc-newlib-stage2/riscv32-vega-elf/libgcc/../../.././gcc/libgcc/soft-fp/mulsf3.c:45 (discriminator 136)
   25cd8:	004007b7          	lui	a5,0x400
/opt/riscv-gnu-toolchain/build-gcc-newlib-stage2/riscv32-vega-elf/libgcc/../../.././gcc/libgcc/soft-fp/mulsf3.c:45 (discriminator 5)
   25cdc:	0ff00713          	li	a4,255
/opt/riscv-gnu-toolchain/build-gcc-newlib-stage2/riscv32-vega-elf/libgcc/../../.././gcc/libgcc/soft-fp/mulsf3.c:45 (discriminator 136)
   25ce0:	00000993          	li	s3,0
   25ce4:	e79ff06f          	j	25b5c <__mulsf3+0x184>
   25ce8:	00000793          	li	a5,0
   25cec:	0ff00713          	li	a4,255
   25cf0:	e6dff06f          	j	25b5c <__mulsf3+0x184>

00025cf4 <__floatsisf>:
__floatsisf():
/opt/riscv-gnu-toolchain/build-gcc-newlib-stage2/riscv32-vega-elf/libgcc/../../.././gcc/libgcc/soft-fp/floatsisf.c:34
   25cf4:	ff010113          	addi	sp,sp,-16
   25cf8:	00112623          	sw	ra,12(sp)
   25cfc:	00812423          	sw	s0,8(sp)
   25d00:	00912223          	sw	s1,4(sp)
   25d04:	00050793          	mv	a5,a0
/opt/riscv-gnu-toolchain/build-gcc-newlib-stage2/riscv32-vega-elf/libgcc/../../.././gcc/libgcc/soft-fp/floatsisf.c:40
   25d08:	0e050463          	beqz	a0,25df0 <__floatsisf+0xfc>
/opt/riscv-gnu-toolchain/build-gcc-newlib-stage2/riscv32-vega-elf/libgcc/../../.././gcc/libgcc/soft-fp/floatsisf.c:40 (discriminator 1)
   25d0c:	41f55713          	srai	a4,a0,0x1f
   25d10:	00a74433          	xor	s0,a4,a0
   25d14:	40e40433          	sub	s0,s0,a4
   25d18:	01f55493          	srli	s1,a0,0x1f
/opt/riscv-gnu-toolchain/build-gcc-newlib-stage2/riscv32-vega-elf/libgcc/../../.././gcc/libgcc/soft-fp/floatsisf.c:40 (discriminator 6)
   25d1c:	00040513          	mv	a0,s0
   25d20:	0e4000ef          	jal	25e04 <__clzsi2>
/opt/riscv-gnu-toolchain/build-gcc-newlib-stage2/riscv32-vega-elf/libgcc/../../.././gcc/libgcc/soft-fp/floatsisf.c:40 (discriminator 12)
   25d24:	09e00793          	li	a5,158
   25d28:	40a787b3          	sub	a5,a5,a0
/opt/riscv-gnu-toolchain/build-gcc-newlib-stage2/riscv32-vega-elf/libgcc/../../.././gcc/libgcc/soft-fp/floatsisf.c:40 (discriminator 14)
   25d2c:	09600713          	li	a4,150
   25d30:	04f74063          	blt	a4,a5,25d70 <__floatsisf+0x7c>
/opt/riscv-gnu-toolchain/build-gcc-newlib-stage2/riscv32-vega-elf/libgcc/../../.././gcc/libgcc/soft-fp/floatsisf.c:40 (discriminator 28)
   25d34:	00800693          	li	a3,8
   25d38:	0cd50263          	beq	a0,a3,25dfc <__floatsisf+0x108>
/opt/riscv-gnu-toolchain/build-gcc-newlib-stage2/riscv32-vega-elf/libgcc/../../.././gcc/libgcc/soft-fp/floatsisf.c:40 (discriminator 30)
   25d3c:	ff850513          	addi	a0,a0,-8
/opt/riscv-gnu-toolchain/build-gcc-newlib-stage2/riscv32-vega-elf/libgcc/../../.././gcc/libgcc/soft-fp/floatsisf.c:40 (discriminator 35)
   25d40:	00a41433          	sll	s0,s0,a0
/opt/riscv-gnu-toolchain/build-gcc-newlib-stage2/riscv32-vega-elf/libgcc/../../.././gcc/libgcc/soft-fp/floatsisf.c:41
   25d44:	00941413          	slli	s0,s0,0x9
   25d48:	00945413          	srli	s0,s0,0x9
   25d4c:	01779793          	slli	a5,a5,0x17
/opt/riscv-gnu-toolchain/build-gcc-newlib-stage2/riscv32-vega-elf/libgcc/../../.././gcc/libgcc/soft-fp/floatsisf.c:45
   25d50:	00c12083          	lw	ra,12(sp)
/opt/riscv-gnu-toolchain/build-gcc-newlib-stage2/riscv32-vega-elf/libgcc/../../.././gcc/libgcc/soft-fp/floatsisf.c:41
   25d54:	0087e7b3          	or	a5,a5,s0
/opt/riscv-gnu-toolchain/build-gcc-newlib-stage2/riscv32-vega-elf/libgcc/../../.././gcc/libgcc/soft-fp/floatsisf.c:45
   25d58:	00812403          	lw	s0,8(sp)
/opt/riscv-gnu-toolchain/build-gcc-newlib-stage2/riscv32-vega-elf/libgcc/../../.././gcc/libgcc/soft-fp/floatsisf.c:41
   25d5c:	01f49513          	slli	a0,s1,0x1f
/opt/riscv-gnu-toolchain/build-gcc-newlib-stage2/riscv32-vega-elf/libgcc/../../.././gcc/libgcc/soft-fp/floatsisf.c:45
   25d60:	00a7e533          	or	a0,a5,a0
   25d64:	00412483          	lw	s1,4(sp)
   25d68:	01010113          	addi	sp,sp,16
   25d6c:	00008067          	ret
/opt/riscv-gnu-toolchain/build-gcc-newlib-stage2/riscv32-vega-elf/libgcc/../../.././gcc/libgcc/soft-fp/floatsisf.c:40 (discriminator 29)
   25d70:	09900713          	li	a4,153
   25d74:	06f75463          	bge	a4,a5,25ddc <__floatsisf+0xe8>
/opt/riscv-gnu-toolchain/build-gcc-newlib-stage2/riscv32-vega-elf/libgcc/../../.././gcc/libgcc/soft-fp/floatsisf.c:40 (discriminator 38)
   25d78:	01b50713          	addi	a4,a0,27
   25d7c:	00500693          	li	a3,5
   25d80:	00e41733          	sll	a4,s0,a4
   25d84:	40a686b3          	sub	a3,a3,a0
   25d88:	00e03733          	snez	a4,a4
   25d8c:	00d45433          	srl	s0,s0,a3
   25d90:	00876733          	or	a4,a4,s0
/opt/riscv-gnu-toolchain/build-gcc-newlib-stage2/riscv32-vega-elf/libgcc/../../.././gcc/libgcc/soft-fp/floatsisf.c:40 (discriminator 48)
   25d94:	fc000437          	lui	s0,0xfc000
   25d98:	fff40413          	addi	s0,s0,-1 # fbffffff <_heap_end+0xfbfd703f>
/opt/riscv-gnu-toolchain/build-gcc-newlib-stage2/riscv32-vega-elf/libgcc/../../.././gcc/libgcc/soft-fp/floatsisf.c:40 (discriminator 85)
   25d9c:	00777693          	andi	a3,a4,7
/opt/riscv-gnu-toolchain/build-gcc-newlib-stage2/riscv32-vega-elf/libgcc/../../.././gcc/libgcc/soft-fp/floatsisf.c:40 (discriminator 48)
   25da0:	00877433          	and	s0,a4,s0
/opt/riscv-gnu-toolchain/build-gcc-newlib-stage2/riscv32-vega-elf/libgcc/../../.././gcc/libgcc/soft-fp/floatsisf.c:40 (discriminator 85)
   25da4:	04068263          	beqz	a3,25de8 <__floatsisf+0xf4>
/opt/riscv-gnu-toolchain/build-gcc-newlib-stage2/riscv32-vega-elf/libgcc/../../.././gcc/libgcc/soft-fp/floatsisf.c:40 (discriminator 89)
   25da8:	00f77713          	andi	a4,a4,15
   25dac:	00400693          	li	a3,4
   25db0:	02d70c63          	beq	a4,a3,25de8 <__floatsisf+0xf4>
/opt/riscv-gnu-toolchain/build-gcc-newlib-stage2/riscv32-vega-elf/libgcc/../../.././gcc/libgcc/soft-fp/floatsisf.c:40 (discriminator 93)
   25db4:	00d40433          	add	s0,s0,a3
/opt/riscv-gnu-toolchain/build-gcc-newlib-stage2/riscv32-vega-elf/libgcc/../../.././gcc/libgcc/soft-fp/floatsisf.c:40 (discriminator 111)
   25db8:	00541693          	slli	a3,s0,0x5
   25dbc:	00345713          	srli	a4,s0,0x3
   25dc0:	0206d463          	bgez	a3,25de8 <__floatsisf+0xf4>
/opt/riscv-gnu-toolchain/build-gcc-newlib-stage2/riscv32-vega-elf/libgcc/../../.././gcc/libgcc/soft-fp/floatsisf.c:40 (discriminator 128)
   25dc4:	1f800437          	lui	s0,0x1f800
/opt/riscv-gnu-toolchain/build-gcc-newlib-stage2/riscv32-vega-elf/libgcc/../../.././gcc/libgcc/soft-fp/floatsisf.c:40 (discriminator 112)
   25dc8:	09f00793          	li	a5,159
/opt/riscv-gnu-toolchain/build-gcc-newlib-stage2/riscv32-vega-elf/libgcc/../../.././gcc/libgcc/soft-fp/floatsisf.c:40 (discriminator 128)
   25dcc:	fff40413          	addi	s0,s0,-1 # 1f7fffff <_heap_end+0x1f7d703f>
/opt/riscv-gnu-toolchain/build-gcc-newlib-stage2/riscv32-vega-elf/libgcc/../../.././gcc/libgcc/soft-fp/floatsisf.c:40 (discriminator 112)
   25dd0:	40a787b3          	sub	a5,a5,a0
/opt/riscv-gnu-toolchain/build-gcc-newlib-stage2/riscv32-vega-elf/libgcc/../../.././gcc/libgcc/soft-fp/floatsisf.c:40 (discriminator 128)
   25dd4:	00877433          	and	s0,a4,s0
/opt/riscv-gnu-toolchain/build-gcc-newlib-stage2/riscv32-vega-elf/libgcc/../../.././gcc/libgcc/soft-fp/floatsisf.c:40
   25dd8:	f6dff06f          	j	25d44 <__floatsisf+0x50>
/opt/riscv-gnu-toolchain/build-gcc-newlib-stage2/riscv32-vega-elf/libgcc/../../.././gcc/libgcc/soft-fp/floatsisf.c:40 (discriminator 41)
   25ddc:	ffb50713          	addi	a4,a0,-5
/opt/riscv-gnu-toolchain/build-gcc-newlib-stage2/riscv32-vega-elf/libgcc/../../.././gcc/libgcc/soft-fp/floatsisf.c:40 (discriminator 46)
   25de0:	00e41733          	sll	a4,s0,a4
   25de4:	fb1ff06f          	j	25d94 <__floatsisf+0xa0>
/opt/riscv-gnu-toolchain/build-gcc-newlib-stage2/riscv32-vega-elf/libgcc/../../.././gcc/libgcc/soft-fp/floatsisf.c:40 (discriminator 128)
   25de8:	00345413          	srli	s0,s0,0x3
/opt/riscv-gnu-toolchain/build-gcc-newlib-stage2/riscv32-vega-elf/libgcc/../../.././gcc/libgcc/soft-fp/floatsisf.c:40
   25dec:	f59ff06f          	j	25d44 <__floatsisf+0x50>
   25df0:	00000493          	li	s1,0
/opt/riscv-gnu-toolchain/build-gcc-newlib-stage2/riscv32-vega-elf/libgcc/../../.././gcc/libgcc/soft-fp/floatsisf.c:40 (discriminator 2)
   25df4:	00000413          	li	s0,0
   25df8:	f4dff06f          	j	25d44 <__floatsisf+0x50>
/opt/riscv-gnu-toolchain/build-gcc-newlib-stage2/riscv32-vega-elf/libgcc/../../.././gcc/libgcc/soft-fp/floatsisf.c:40 (discriminator 12)
   25dfc:	00070793          	mv	a5,a4
   25e00:	f45ff06f          	j	25d44 <__floatsisf+0x50>

00025e04 <__clzsi2>:
__clzsi2():
/opt/riscv-gnu-toolchain/build-gcc-newlib-stage2/riscv32-vega-elf/libgcc/../../.././gcc/libgcc/libgcc2.c:690 (discriminator 1)
   25e04:	000107b7          	lui	a5,0x10
   25e08:	02f57a63          	bgeu	a0,a5,25e3c <__clzsi2+0x38>
/opt/riscv-gnu-toolchain/build-gcc-newlib-stage2/riscv32-vega-elf/libgcc/../../.././gcc/libgcc/libgcc2.c:690 (discriminator 3)
   25e0c:	10053793          	sltiu	a5,a0,256
   25e10:	0017b793          	seqz	a5,a5
   25e14:	00379793          	slli	a5,a5,0x3
/opt/riscv-gnu-toolchain/build-gcc-newlib-stage2/riscv32-vega-elf/libgcc/../../.././gcc/libgcc/libgcc2.c:690 (discriminator 21)
   25e18:	00027737          	lui	a4,0x27
   25e1c:	02000693          	li	a3,32
   25e20:	40f686b3          	sub	a3,a3,a5
   25e24:	00f55533          	srl	a0,a0,a5
   25e28:	c7870793          	addi	a5,a4,-904 # 26c78 <__clz_tab>
   25e2c:	00a787b3          	add	a5,a5,a0
   25e30:	0007c503          	lbu	a0,0(a5) # 10000 <__heap_size+0xe000>
/opt/riscv-gnu-toolchain/build-gcc-newlib-stage2/riscv32-vega-elf/libgcc/../../.././gcc/libgcc/libgcc2.c:693
   25e34:	40a68533          	sub	a0,a3,a0
   25e38:	00008067          	ret
/opt/riscv-gnu-toolchain/build-gcc-newlib-stage2/riscv32-vega-elf/libgcc/../../.././gcc/libgcc/libgcc2.c:690 (discriminator 4)
   25e3c:	01000737          	lui	a4,0x1000
/opt/riscv-gnu-toolchain/build-gcc-newlib-stage2/riscv32-vega-elf/libgcc/../../.././gcc/libgcc/libgcc2.c:690 (discriminator 11)
   25e40:	01800793          	li	a5,24
/opt/riscv-gnu-toolchain/build-gcc-newlib-stage2/riscv32-vega-elf/libgcc/../../.././gcc/libgcc/libgcc2.c:690 (discriminator 4)
   25e44:	fce57ae3          	bgeu	a0,a4,25e18 <__clzsi2+0x14>
/opt/riscv-gnu-toolchain/build-gcc-newlib-stage2/riscv32-vega-elf/libgcc/../../.././gcc/libgcc/libgcc2.c:690 (discriminator 10)
   25e48:	01000793          	li	a5,16
   25e4c:	fcdff06f          	j	25e18 <__clzsi2+0x14>

Disassembly of section .text.delay_loop:

00025e50 <delay_loop>:
delay_loop():
   25e50:	fd010113          	addi	sp,sp,-48
   25e54:	02112623          	sw	ra,44(sp)
   25e58:	02812423          	sw	s0,40(sp)
   25e5c:	03010413          	addi	s0,sp,48
   25e60:	fca42e23          	sw	a0,-36(s0)
   25e64:	fe042623          	sw	zero,-20(s0)
   25e68:	0100006f          	j	25e78 <delay_loop+0x28>
   25e6c:	fec42783          	lw	a5,-20(s0)
   25e70:	00178793          	addi	a5,a5,1
   25e74:	fef42623          	sw	a5,-20(s0)
   25e78:	fec42783          	lw	a5,-20(s0)
   25e7c:	fdc42703          	lw	a4,-36(s0)
   25e80:	fee7c6e3          	blt	a5,a4,25e6c <delay_loop+0x1c>
   25e84:	00000013          	nop
   25e88:	00000013          	nop
   25e8c:	02c12083          	lw	ra,44(sp)
   25e90:	02812403          	lw	s0,40(sp)
   25e94:	03010113          	addi	sp,sp,48
   25e98:	00008067          	ret

Disassembly of section .text.uart_init_safe:

00025e9c <uart_init_safe>:
uart_init_safe():
   25e9c:	ff010113          	addi	sp,sp,-16
   25ea0:	00112623          	sw	ra,12(sp)
   25ea4:	00812423          	sw	s0,8(sp)
   25ea8:	01010413          	addi	s0,sp,16
   25eac:	100017b7          	lui	a5,0x10001
   25eb0:	00478793          	addi	a5,a5,4 # 10001004 <_heap_end+0xffd8044>
   25eb4:	0007a023          	sw	zero,0(a5)
   25eb8:	00000013          	nop
   25ebc:	00c12083          	lw	ra,12(sp)
   25ec0:	00812403          	lw	s0,8(sp)
   25ec4:	01010113          	addi	sp,sp,16
   25ec8:	00008067          	ret

Disassembly of section .text.uart_read_safe:

00025ecc <uart_read_safe>:
uart_read_safe():
   25ecc:	ff010113          	addi	sp,sp,-16
   25ed0:	00112623          	sw	ra,12(sp)
   25ed4:	00812423          	sw	s0,8(sp)
   25ed8:	01010413          	addi	s0,sp,16
   25edc:	00000013          	nop
   25ee0:	100017b7          	lui	a5,0x10001
   25ee4:	01478793          	addi	a5,a5,20 # 10001014 <_heap_end+0xffd8054>
   25ee8:	0007a783          	lw	a5,0(a5)
   25eec:	0017f793          	andi	a5,a5,1
   25ef0:	fe0788e3          	beqz	a5,25ee0 <uart_read_safe+0x14>
   25ef4:	100017b7          	lui	a5,0x10001
   25ef8:	0007a783          	lw	a5,0(a5) # 10001000 <_heap_end+0xffd8040>
   25efc:	0ff7f793          	zext.b	a5,a5
   25f00:	00078513          	mv	a0,a5
   25f04:	00c12083          	lw	ra,12(sp)
   25f08:	00812403          	lw	s0,8(sp)
   25f0c:	01010113          	addi	sp,sp,16
   25f10:	00008067          	ret

Disassembly of section .text.uart_write_raw:

00025f14 <uart_write_raw>:
uart_write_raw():
   25f14:	fe010113          	addi	sp,sp,-32
   25f18:	00112e23          	sw	ra,28(sp)
   25f1c:	00812c23          	sw	s0,24(sp)
   25f20:	02010413          	addi	s0,sp,32
   25f24:	00050793          	mv	a5,a0
   25f28:	fef407a3          	sb	a5,-17(s0)
   25f2c:	00000013          	nop
   25f30:	100017b7          	lui	a5,0x10001
   25f34:	01478793          	addi	a5,a5,20 # 10001014 <_heap_end+0xffd8054>
   25f38:	0007a783          	lw	a5,0(a5)
   25f3c:	0207f793          	andi	a5,a5,32
   25f40:	fe0788e3          	beqz	a5,25f30 <uart_write_raw+0x1c>
   25f44:	100017b7          	lui	a5,0x10001
   25f48:	fef44703          	lbu	a4,-17(s0)
   25f4c:	00e7a023          	sw	a4,0(a5) # 10001000 <_heap_end+0xffd8040>
   25f50:	00000013          	nop
   25f54:	01c12083          	lw	ra,28(sp)
   25f58:	01812403          	lw	s0,24(sp)
   25f5c:	02010113          	addi	sp,sp,32
   25f60:	00008067          	ret

Disassembly of section .text.spi_init:

00025f64 <spi_init>:
spi_init():
   25f64:	ff010113          	addi	sp,sp,-16
   25f68:	00112623          	sw	ra,12(sp)
   25f6c:	00812423          	sw	s0,8(sp)
   25f70:	01010413          	addi	s0,sp,16
   25f74:	100027b7          	lui	a5,0x10002
   25f78:	04078793          	addi	a5,a5,64 # 10002040 <_heap_end+0xffd9080>
   25f7c:	00a00713          	li	a4,10
   25f80:	00e7a023          	sw	a4,0(a5)
   25f84:	000027b7          	lui	a5,0x2
   25f88:	71078513          	addi	a0,a5,1808 # 2710 <__heap_size+0x710>
   25f8c:	ec5ff0ef          	jal	25e50 <delay_loop>
   25f90:	100027b7          	lui	a5,0x10002
   25f94:	06078793          	addi	a5,a5,96 # 10002060 <_heap_end+0xffd90a0>
   25f98:	18600713          	li	a4,390
   25f9c:	00e7a023          	sw	a4,0(a5)
   25fa0:	100027b7          	lui	a5,0x10002
   25fa4:	07078793          	addi	a5,a5,112 # 10002070 <_heap_end+0xffd90b0>
   25fa8:	fff00713          	li	a4,-1
   25fac:	00e7a023          	sw	a4,0(a5)
   25fb0:	00000013          	nop
   25fb4:	00c12083          	lw	ra,12(sp)
   25fb8:	00812403          	lw	s0,8(sp)
   25fbc:	01010113          	addi	sp,sp,16
   25fc0:	00008067          	ret

Disassembly of section .text.spi_transfer:

00025fc4 <spi_transfer>:
spi_transfer():
   25fc4:	fe010113          	addi	sp,sp,-32
   25fc8:	00112e23          	sw	ra,28(sp)
   25fcc:	00812c23          	sw	s0,24(sp)
   25fd0:	02010413          	addi	s0,sp,32
   25fd4:	00050793          	mv	a5,a0
   25fd8:	fef407a3          	sb	a5,-17(s0)
   25fdc:	100027b7          	lui	a5,0x10002
   25fe0:	06878793          	addi	a5,a5,104 # 10002068 <_heap_end+0xffd90a8>
   25fe4:	fef44703          	lbu	a4,-17(s0)
   25fe8:	00e7a023          	sw	a4,0(a5)
   25fec:	100027b7          	lui	a5,0x10002
   25ff0:	06078793          	addi	a5,a5,96 # 10002060 <_heap_end+0xffd90a0>
   25ff4:	0007a703          	lw	a4,0(a5)
   25ff8:	100027b7          	lui	a5,0x10002
   25ffc:	06078793          	addi	a5,a5,96 # 10002060 <_heap_end+0xffd90a0>
   26000:	eff77713          	andi	a4,a4,-257
   26004:	00e7a023          	sw	a4,0(a5)
   26008:	00000013          	nop
   2600c:	100027b7          	lui	a5,0x10002
   26010:	06478793          	addi	a5,a5,100 # 10002064 <_heap_end+0xffd90a4>
   26014:	0007a783          	lw	a5,0(a5)
   26018:	0017f793          	andi	a5,a5,1
   2601c:	fe0798e3          	bnez	a5,2600c <spi_transfer+0x48>
   26020:	100027b7          	lui	a5,0x10002
   26024:	06c78793          	addi	a5,a5,108 # 1000206c <_heap_end+0xffd90ac>
   26028:	0007a783          	lw	a5,0(a5)
   2602c:	0ff7f793          	zext.b	a5,a5
   26030:	00078513          	mv	a0,a5
   26034:	01c12083          	lw	ra,28(sp)
   26038:	01812403          	lw	s0,24(sp)
   2603c:	02010113          	addi	sp,sp,32
   26040:	00008067          	ret

Disassembly of section .text.arducam_write_reg:

00026044 <arducam_write_reg>:
arducam_write_reg():
   26044:	fe010113          	addi	sp,sp,-32
   26048:	00112e23          	sw	ra,28(sp)
   2604c:	00812c23          	sw	s0,24(sp)
   26050:	02010413          	addi	s0,sp,32
   26054:	00050793          	mv	a5,a0
   26058:	00058713          	mv	a4,a1
   2605c:	fef407a3          	sb	a5,-17(s0)
   26060:	00070793          	mv	a5,a4
   26064:	fef40723          	sb	a5,-18(s0)
   26068:	100027b7          	lui	a5,0x10002
   2606c:	07078793          	addi	a5,a5,112 # 10002070 <_heap_end+0xffd90b0>
   26070:	ffe00713          	li	a4,-2
   26074:	00e7a023          	sw	a4,0(a5)
   26078:	fef44783          	lbu	a5,-17(s0)
   2607c:	f807e793          	ori	a5,a5,-128
   26080:	0ff7f793          	zext.b	a5,a5
   26084:	00078513          	mv	a0,a5
   26088:	f3dff0ef          	jal	25fc4 <spi_transfer>
   2608c:	fee44783          	lbu	a5,-18(s0)
   26090:	00078513          	mv	a0,a5
   26094:	f31ff0ef          	jal	25fc4 <spi_transfer>
   26098:	100027b7          	lui	a5,0x10002
   2609c:	07078793          	addi	a5,a5,112 # 10002070 <_heap_end+0xffd90b0>
   260a0:	fff00713          	li	a4,-1
   260a4:	00e7a023          	sw	a4,0(a5)
   260a8:	3e800513          	li	a0,1000
   260ac:	da5ff0ef          	jal	25e50 <delay_loop>
   260b0:	00000013          	nop
   260b4:	01c12083          	lw	ra,28(sp)
   260b8:	01812403          	lw	s0,24(sp)
   260bc:	02010113          	addi	sp,sp,32
   260c0:	00008067          	ret

Disassembly of section .text.arducam_read_reg:

000260c4 <arducam_read_reg>:
arducam_read_reg():
   260c4:	fd010113          	addi	sp,sp,-48
   260c8:	02112623          	sw	ra,44(sp)
   260cc:	02812423          	sw	s0,40(sp)
   260d0:	03010413          	addi	s0,sp,48
   260d4:	00050793          	mv	a5,a0
   260d8:	fcf40fa3          	sb	a5,-33(s0)
   260dc:	100027b7          	lui	a5,0x10002
   260e0:	07078793          	addi	a5,a5,112 # 10002070 <_heap_end+0xffd90b0>
   260e4:	ffe00713          	li	a4,-2
   260e8:	00e7a023          	sw	a4,0(a5)
   260ec:	fdf44783          	lbu	a5,-33(s0)
   260f0:	07f7f793          	andi	a5,a5,127
   260f4:	0ff7f793          	zext.b	a5,a5
   260f8:	00078513          	mv	a0,a5
   260fc:	ec9ff0ef          	jal	25fc4 <spi_transfer>
   26100:	00000513          	li	a0,0
   26104:	ec1ff0ef          	jal	25fc4 <spi_transfer>
   26108:	00050793          	mv	a5,a0
   2610c:	fef407a3          	sb	a5,-17(s0)
   26110:	100027b7          	lui	a5,0x10002
   26114:	07078793          	addi	a5,a5,112 # 10002070 <_heap_end+0xffd90b0>
   26118:	fff00713          	li	a4,-1
   2611c:	00e7a023          	sw	a4,0(a5)
   26120:	3e800513          	li	a0,1000
   26124:	d2dff0ef          	jal	25e50 <delay_loop>
   26128:	fef44783          	lbu	a5,-17(s0)
   2612c:	00078513          	mv	a0,a5
   26130:	02c12083          	lw	ra,44(sp)
   26134:	02812403          	lw	s0,40(sp)
   26138:	03010113          	addi	sp,sp,48
   2613c:	00008067          	ret

Disassembly of section .text.i2c_init:

00026140 <i2c_init>:
i2c_init():
   26140:	ff010113          	addi	sp,sp,-16
   26144:	00112623          	sw	ra,12(sp)
   26148:	00812423          	sw	s0,8(sp)
   2614c:	01010413          	addi	s0,sp,16
   26150:	100037b7          	lui	a5,0x10003
   26154:	04078793          	addi	a5,a5,64 # 10003040 <_heap_end+0xffda080>
   26158:	00a00713          	li	a4,10
   2615c:	00e7a023          	sw	a4,0(a5)
   26160:	3e800513          	li	a0,1000
   26164:	cedff0ef          	jal	25e50 <delay_loop>
   26168:	100037b7          	lui	a5,0x10003
   2616c:	10078793          	addi	a5,a5,256 # 10003100 <_heap_end+0xffda140>
   26170:	00100713          	li	a4,1
   26174:	00e7a023          	sw	a4,0(a5)
   26178:	00000013          	nop
   2617c:	00c12083          	lw	ra,12(sp)
   26180:	00812403          	lw	s0,8(sp)
   26184:	01010113          	addi	sp,sp,16
   26188:	00008067          	ret

Disassembly of section .text.i2c_write_reg:

0002618c <i2c_write_reg>:
i2c_write_reg():
   2618c:	fd010113          	addi	sp,sp,-48
   26190:	02112623          	sw	ra,44(sp)
   26194:	02812423          	sw	s0,40(sp)
   26198:	03010413          	addi	s0,sp,48
   2619c:	00050793          	mv	a5,a0
   261a0:	00058713          	mv	a4,a1
   261a4:	fcf40fa3          	sb	a5,-33(s0)
   261a8:	00070793          	mv	a5,a4
   261ac:	fcf40f23          	sb	a5,-34(s0)
   261b0:	100037b7          	lui	a5,0x10003
   261b4:	04078793          	addi	a5,a5,64 # 10003040 <_heap_end+0xffda080>
   261b8:	00a00713          	li	a4,10
   261bc:	00e7a023          	sw	a4,0(a5)
   261c0:	1f400513          	li	a0,500
   261c4:	c8dff0ef          	jal	25e50 <delay_loop>
   261c8:	100037b7          	lui	a5,0x10003
   261cc:	10078793          	addi	a5,a5,256 # 10003100 <_heap_end+0xffda140>
   261d0:	00100713          	li	a4,1
   261d4:	00e7a023          	sw	a4,0(a5)
   261d8:	100037b7          	lui	a5,0x10003
   261dc:	10878793          	addi	a5,a5,264 # 10003108 <_heap_end+0xffda148>
   261e0:	16000713          	li	a4,352
   261e4:	00e7a023          	sw	a4,0(a5)
   261e8:	100037b7          	lui	a5,0x10003
   261ec:	10878793          	addi	a5,a5,264 # 10003108 <_heap_end+0xffda148>
   261f0:	fdf44703          	lbu	a4,-33(s0)
   261f4:	00e7a023          	sw	a4,0(a5)
   261f8:	fde44783          	lbu	a5,-34(s0)
   261fc:	2007e713          	ori	a4,a5,512
   26200:	100037b7          	lui	a5,0x10003
   26204:	10878793          	addi	a5,a5,264 # 10003108 <_heap_end+0xffda148>
   26208:	00e7a023          	sw	a4,0(a5)
   2620c:	fe042623          	sw	zero,-20(s0)
   26210:	0300006f          	j	26240 <i2c_write_reg+0xb4>
   26214:	fec42783          	lw	a5,-20(s0)
   26218:	00178793          	addi	a5,a5,1
   2621c:	fef42623          	sw	a5,-20(s0)
   26220:	fec42703          	lw	a4,-20(s0)
   26224:	000f47b7          	lui	a5,0xf4
   26228:	24078793          	addi	a5,a5,576 # f4240 <_heap_end+0xcb280>
   2622c:	00e7da63          	bge	a5,a4,26240 <i2c_write_reg+0xb4>
   26230:	00000517          	auipc	a0,0x0
   26234:	6d050513          	addi	a0,a0,1744 # 26900 <__fpclassifyd+0x70>
   26238:	a80fc0ef          	jal	224b8 <printf>
   2623c:	0240006f          	j	26260 <i2c_write_reg+0xd4>
   26240:	100037b7          	lui	a5,0x10003
   26244:	10478793          	addi	a5,a5,260 # 10003104 <_heap_end+0xffda144>
   26248:	0007a783          	lw	a5,0(a5)
   2624c:	0807f793          	andi	a5,a5,128
   26250:	fc0782e3          	beqz	a5,26214 <i2c_write_reg+0x88>
   26254:	000017b7          	lui	a5,0x1
   26258:	38878513          	addi	a0,a5,904 # 1388 <_tbss_end+0x1388>
   2625c:	bf5ff0ef          	jal	25e50 <delay_loop>
   26260:	02c12083          	lw	ra,44(sp)
   26264:	02812403          	lw	s0,40(sp)
   26268:	03010113          	addi	sp,sp,48
   2626c:	00008067          	ret

Disassembly of section .text.sensor_write_array:

00026270 <sensor_write_array>:
sensor_write_array():
   26270:	fd010113          	addi	sp,sp,-48
   26274:	02112623          	sw	ra,44(sp)
   26278:	02812423          	sw	s0,40(sp)
   2627c:	03010413          	addi	s0,sp,48
   26280:	fca42e23          	sw	a0,-36(s0)
   26284:	fe042623          	sw	zero,-20(s0)
   26288:	fec42783          	lw	a5,-20(s0)
   2628c:	00179793          	slli	a5,a5,0x1
   26290:	fdc42703          	lw	a4,-36(s0)
   26294:	00f707b3          	add	a5,a4,a5
   26298:	0007c783          	lbu	a5,0(a5)
   2629c:	fef405a3          	sb	a5,-21(s0)
   262a0:	fec42783          	lw	a5,-20(s0)
   262a4:	00179793          	slli	a5,a5,0x1
   262a8:	fdc42703          	lw	a4,-36(s0)
   262ac:	00f707b3          	add	a5,a4,a5
   262b0:	0017c783          	lbu	a5,1(a5)
   262b4:	fef40523          	sb	a5,-22(s0)
   262b8:	feb44703          	lbu	a4,-21(s0)
   262bc:	0ff00793          	li	a5,255
   262c0:	00f71863          	bne	a4,a5,262d0 <sensor_write_array+0x60>
   262c4:	fea44703          	lbu	a4,-22(s0)
   262c8:	0ff00793          	li	a5,255
   262cc:	02f70463          	beq	a4,a5,262f4 <sensor_write_array+0x84>
   262d0:	fea44703          	lbu	a4,-22(s0)
   262d4:	feb44783          	lbu	a5,-21(s0)
   262d8:	00070593          	mv	a1,a4
   262dc:	00078513          	mv	a0,a5
   262e0:	eadff0ef          	jal	2618c <i2c_write_reg>
   262e4:	fec42783          	lw	a5,-20(s0)
   262e8:	00178793          	addi	a5,a5,1
   262ec:	fef42623          	sw	a5,-20(s0)
   262f0:	f99ff06f          	j	26288 <sensor_write_array+0x18>
   262f4:	00000013          	nop
   262f8:	00000013          	nop
   262fc:	02c12083          	lw	ra,44(sp)
   26300:	02812403          	lw	s0,40(sp)
   26304:	03010113          	addi	sp,sp,48
   26308:	00008067          	ret

Disassembly of section .text.main:

0002630c <main>:
main():
   2630c:	fd010113          	addi	sp,sp,-48
   26310:	02112623          	sw	ra,44(sp)
   26314:	02812423          	sw	s0,40(sp)
   26318:	03010413          	addi	s0,sp,48
   2631c:	b81ff0ef          	jal	25e9c <uart_init_safe>
   26320:	c45ff0ef          	jal	25f64 <spi_init>
   26324:	e1dff0ef          	jal	26140 <i2c_init>
   26328:	00000517          	auipc	a0,0x0
   2632c:	5ec50513          	addi	a0,a0,1516 # 26914 <__fpclassifyd+0x84>
   26330:	988fc0ef          	jal	224b8 <printf>
   26334:	00000517          	auipc	a0,0x0
   26338:	60050513          	addi	a0,a0,1536 # 26934 <__fpclassifyd+0xa4>
   2633c:	97cfc0ef          	jal	224b8 <printf>
   26340:	05500593          	li	a1,85
   26344:	00000513          	li	a0,0
   26348:	cfdff0ef          	jal	26044 <arducam_write_reg>
   2634c:	00000513          	li	a0,0
   26350:	d75ff0ef          	jal	260c4 <arducam_read_reg>
   26354:	00050793          	mv	a5,a0
   26358:	00078713          	mv	a4,a5
   2635c:	05500793          	li	a5,85
   26360:	06f71463          	bne	a4,a5,263c8 <main+0xbc>
   26364:	00000517          	auipc	a0,0x0
   26368:	5e450513          	addi	a0,a0,1508 # 26948 <__fpclassifyd+0xb8>
   2636c:	94cfc0ef          	jal	224b8 <printf>
   26370:	00000517          	auipc	a0,0x0
   26374:	5e850513          	addi	a0,a0,1512 # 26958 <__fpclassifyd+0xc8>
   26378:	940fc0ef          	jal	224b8 <printf>
   2637c:	00100593          	li	a1,1
   26380:	0ff00513          	li	a0,255
   26384:	e09ff0ef          	jal	2618c <i2c_write_reg>
   26388:	08000593          	li	a1,128
   2638c:	01200513          	li	a0,18
   26390:	dfdff0ef          	jal	2618c <i2c_write_reg>
   26394:	000187b7          	lui	a5,0x18
   26398:	6a078513          	addi	a0,a5,1696 # 186a0 <__heap_size+0x166a0>
   2639c:	ab5ff0ef          	jal	25e50 <delay_loop>
   263a0:	00001517          	auipc	a0,0x1
   263a4:	9d850513          	addi	a0,a0,-1576 # 26d78 <OV2640_JPEG_INIT>
   263a8:	ec9ff0ef          	jal	26270 <sensor_write_array>
   263ac:	00001517          	auipc	a0,0x1
   263b0:	b4c50513          	addi	a0,a0,-1204 # 26ef8 <OV2640_320x240_JPEG>
   263b4:	ebdff0ef          	jal	26270 <sensor_write_array>
   263b8:	00000517          	auipc	a0,0x0
   263bc:	5b450513          	addi	a0,a0,1460 # 2696c <__fpclassifyd+0xdc>
   263c0:	8f8fc0ef          	jal	224b8 <printf>
   263c4:	0180006f          	j	263dc <main+0xd0>
   263c8:	00000517          	auipc	a0,0x0
   263cc:	58850513          	addi	a0,a0,1416 # 26950 <__fpclassifyd+0xc0>
   263d0:	8e8fc0ef          	jal	224b8 <printf>
   263d4:	fff00793          	li	a5,-1
   263d8:	1940006f          	j	2656c <main+0x260>
   263dc:	00000517          	auipc	a0,0x0
   263e0:	59850513          	addi	a0,a0,1432 # 26974 <__fpclassifyd+0xe4>
   263e4:	8d4fc0ef          	jal	224b8 <printf>
   263e8:	ae5ff0ef          	jal	25ecc <uart_read_safe>
   263ec:	00050793          	mv	a5,a0
   263f0:	fef403a3          	sb	a5,-25(s0)
   263f4:	fe744703          	lbu	a4,-25(s0)
   263f8:	06300793          	li	a5,99
   263fc:	fef710e3          	bne	a4,a5,263dc <main+0xd0>
   26400:	00000517          	auipc	a0,0x0
   26404:	59450513          	addi	a0,a0,1428 # 26994 <__fpclassifyd+0x104>
   26408:	8b0fc0ef          	jal	224b8 <printf>
   2640c:	00100593          	li	a1,1
   26410:	00400513          	li	a0,4
   26414:	c31ff0ef          	jal	26044 <arducam_write_reg>
   26418:	00200593          	li	a1,2
   2641c:	00400513          	li	a0,4
   26420:	c25ff0ef          	jal	26044 <arducam_write_reg>
   26424:	fe042623          	sw	zero,-20(s0)
   26428:	0280006f          	j	26450 <main+0x144>
   2642c:	000187b7          	lui	a5,0x18
   26430:	6a078513          	addi	a0,a5,1696 # 186a0 <__heap_size+0x166a0>
   26434:	a1dff0ef          	jal	25e50 <delay_loop>
   26438:	fec42783          	lw	a5,-20(s0)
   2643c:	00178793          	addi	a5,a5,1
   26440:	fef42623          	sw	a5,-20(s0)
   26444:	fec42703          	lw	a4,-20(s0)
   26448:	1f400793          	li	a5,500
   2644c:	00e7ce63          	blt	a5,a4,26468 <main+0x15c>
   26450:	04100513          	li	a0,65
   26454:	c71ff0ef          	jal	260c4 <arducam_read_reg>
   26458:	00050793          	mv	a5,a0
   2645c:	0087f793          	andi	a5,a5,8
   26460:	fc0786e3          	beqz	a5,2642c <main+0x120>
   26464:	0080006f          	j	2646c <main+0x160>
   26468:	00000013          	nop
   2646c:	fec42703          	lw	a4,-20(s0)
   26470:	1f400793          	li	a5,500
   26474:	f6e7c4e3          	blt	a5,a4,263dc <main+0xd0>
   26478:	04200513          	li	a0,66
   2647c:	c49ff0ef          	jal	260c4 <arducam_read_reg>
   26480:	00050793          	mv	a5,a0
   26484:	fef42023          	sw	a5,-32(s0)
   26488:	04300513          	li	a0,67
   2648c:	c39ff0ef          	jal	260c4 <arducam_read_reg>
   26490:	00050793          	mv	a5,a0
   26494:	fcf42e23          	sw	a5,-36(s0)
   26498:	04400513          	li	a0,68
   2649c:	c29ff0ef          	jal	260c4 <arducam_read_reg>
   264a0:	00050793          	mv	a5,a0
   264a4:	07f7f793          	andi	a5,a5,127
   264a8:	fcf42c23          	sw	a5,-40(s0)
   264ac:	fd842783          	lw	a5,-40(s0)
   264b0:	01079713          	slli	a4,a5,0x10
   264b4:	fdc42783          	lw	a5,-36(s0)
   264b8:	00879793          	slli	a5,a5,0x8
   264bc:	00f76733          	or	a4,a4,a5
   264c0:	fe042783          	lw	a5,-32(s0)
   264c4:	00f76733          	or	a4,a4,a5
   264c8:	008007b7          	lui	a5,0x800
   264cc:	fff78793          	addi	a5,a5,-1 # 7fffff <_heap_end+0x7d703f>
   264d0:	00f777b3          	and	a5,a4,a5
   264d4:	fcf42a23          	sw	a5,-44(s0)
   264d8:	fd442783          	lw	a5,-44(s0)
   264dc:	00078593          	mv	a1,a5
   264e0:	00000517          	auipc	a0,0x0
   264e4:	4c450513          	addi	a0,a0,1220 # 269a4 <__fpclassifyd+0x114>
   264e8:	fd1fb0ef          	jal	224b8 <printf>
   264ec:	00000517          	auipc	a0,0x0
   264f0:	4c850513          	addi	a0,a0,1224 # 269b4 <__fpclassifyd+0x124>
   264f4:	fc5fb0ef          	jal	224b8 <printf>
   264f8:	100027b7          	lui	a5,0x10002
   264fc:	07078793          	addi	a5,a5,112 # 10002070 <_heap_end+0xffd90b0>
   26500:	ffe00713          	li	a4,-2
   26504:	00e7a023          	sw	a4,0(a5)
   26508:	03c00513          	li	a0,60
   2650c:	ab9ff0ef          	jal	25fc4 <spi_transfer>
   26510:	fe042423          	sw	zero,-24(s0)
   26514:	02c0006f          	j	26540 <main+0x234>
   26518:	00000513          	li	a0,0
   2651c:	aa9ff0ef          	jal	25fc4 <spi_transfer>
   26520:	00050793          	mv	a5,a0
   26524:	fcf409a3          	sb	a5,-45(s0)
   26528:	fd344783          	lbu	a5,-45(s0)
   2652c:	00078513          	mv	a0,a5
   26530:	9e5ff0ef          	jal	25f14 <uart_write_raw>
   26534:	fe842783          	lw	a5,-24(s0)
   26538:	00178793          	addi	a5,a5,1
   2653c:	fef42423          	sw	a5,-24(s0)
   26540:	fe842703          	lw	a4,-24(s0)
   26544:	fd442783          	lw	a5,-44(s0)
   26548:	fcf768e3          	bltu	a4,a5,26518 <main+0x20c>
   2654c:	100027b7          	lui	a5,0x10002
   26550:	07078793          	addi	a5,a5,112 # 10002070 <_heap_end+0xffd90b0>
   26554:	fff00713          	li	a4,-1
   26558:	00e7a023          	sw	a4,0(a5)
   2655c:	00000517          	auipc	a0,0x0
   26560:	46c50513          	addi	a0,a0,1132 # 269c8 <__fpclassifyd+0x138>
   26564:	f55fb0ef          	jal	224b8 <printf>
   26568:	e75ff06f          	j	263dc <main+0xd0>
   2656c:	00078513          	mv	a0,a5
   26570:	02c12083          	lw	ra,44(sp)
   26574:	02812403          	lw	s0,40(sp)
   26578:	03010113          	addi	sp,sp,48
   2657c:	00008067          	ret

Disassembly of section .text.strnlen:

00026580 <strnlen>:
strnlen():
   26580:	00b506b3          	add	a3,a0,a1
   26584:	00050793          	mv	a5,a0
   26588:	00059863          	bnez	a1,26598 <strnlen+0x18>
   2658c:	01c0006f          	j	265a8 <strnlen+0x28>
   26590:	00178793          	addi	a5,a5,1
   26594:	00d78663          	beq	a5,a3,265a0 <strnlen+0x20>
   26598:	0007c703          	lbu	a4,0(a5)
   2659c:	fe071ae3          	bnez	a4,26590 <strnlen+0x10>
   265a0:	40a78533          	sub	a0,a5,a0
   265a4:	00008067          	ret
   265a8:	00000513          	li	a0,0
   265ac:	00008067          	ret

Disassembly of section .text.memcpy:

000265b0 <memcpy>:
memcpy():
   265b0:	00a5c7b3          	xor	a5,a1,a0
   265b4:	0037f793          	andi	a5,a5,3
   265b8:	00c508b3          	add	a7,a0,a2
   265bc:	06079663          	bnez	a5,26628 <memcpy+0x78>
   265c0:	00300793          	li	a5,3
   265c4:	06c7f263          	bgeu	a5,a2,26628 <memcpy+0x78>
   265c8:	00357793          	andi	a5,a0,3
   265cc:	00050713          	mv	a4,a0
   265d0:	0c079a63          	bnez	a5,266a4 <memcpy+0xf4>
   265d4:	ffc8f613          	andi	a2,a7,-4
   265d8:	40e606b3          	sub	a3,a2,a4
   265dc:	02000793          	li	a5,32
   265e0:	06d7c463          	blt	a5,a3,26648 <memcpy+0x98>
   265e4:	00058693          	mv	a3,a1
   265e8:	00070793          	mv	a5,a4
   265ec:	02c77a63          	bgeu	a4,a2,26620 <memcpy+0x70>
   265f0:	0006a803          	lw	a6,0(a3) # 10000 <__heap_size+0xe000>
   265f4:	00478793          	addi	a5,a5,4
   265f8:	00468693          	addi	a3,a3,4
   265fc:	ff07ae23          	sw	a6,-4(a5)
   26600:	fec7e8e3          	bltu	a5,a2,265f0 <memcpy+0x40>
   26604:	fff60613          	addi	a2,a2,-1
   26608:	40e60633          	sub	a2,a2,a4
   2660c:	ffc67613          	andi	a2,a2,-4
   26610:	00458593          	addi	a1,a1,4
   26614:	00470713          	addi	a4,a4,4 # 1000004 <_heap_end+0xfd7044>
   26618:	00c585b3          	add	a1,a1,a2
   2661c:	00c70733          	add	a4,a4,a2
   26620:	01176863          	bltu	a4,a7,26630 <memcpy+0x80>
   26624:	00008067          	ret
   26628:	00050713          	mv	a4,a0
   2662c:	ff157ce3          	bgeu	a0,a7,26624 <memcpy+0x74>
   26630:	0005c783          	lbu	a5,0(a1)
   26634:	00170713          	addi	a4,a4,1
   26638:	00158593          	addi	a1,a1,1
   2663c:	fef70fa3          	sb	a5,-1(a4)
   26640:	fee898e3          	bne	a7,a4,26630 <memcpy+0x80>
   26644:	00008067          	ret
   26648:	0205a683          	lw	a3,32(a1)
   2664c:	0005a383          	lw	t2,0(a1)
   26650:	0045a283          	lw	t0,4(a1)
   26654:	0085af83          	lw	t6,8(a1)
   26658:	00c5af03          	lw	t5,12(a1)
   2665c:	0105ae83          	lw	t4,16(a1)
   26660:	0145ae03          	lw	t3,20(a1)
   26664:	0185a303          	lw	t1,24(a1)
   26668:	01c5a803          	lw	a6,28(a1)
   2666c:	02470713          	addi	a4,a4,36
   26670:	fed72e23          	sw	a3,-4(a4)
   26674:	fc772e23          	sw	t2,-36(a4)
   26678:	40e606b3          	sub	a3,a2,a4
   2667c:	fe572023          	sw	t0,-32(a4)
   26680:	fff72223          	sw	t6,-28(a4)
   26684:	ffe72423          	sw	t5,-24(a4)
   26688:	ffd72623          	sw	t4,-20(a4)
   2668c:	ffc72823          	sw	t3,-16(a4)
   26690:	fe672a23          	sw	t1,-12(a4)
   26694:	ff072c23          	sw	a6,-8(a4)
   26698:	02458593          	addi	a1,a1,36
   2669c:	fad7c6e3          	blt	a5,a3,26648 <memcpy+0x98>
   266a0:	f45ff06f          	j	265e4 <memcpy+0x34>
   266a4:	0005c683          	lbu	a3,0(a1)
   266a8:	00170713          	addi	a4,a4,1
   266ac:	00377793          	andi	a5,a4,3
   266b0:	fed70fa3          	sb	a3,-1(a4)
   266b4:	00158593          	addi	a1,a1,1
   266b8:	f0078ee3          	beqz	a5,265d4 <memcpy+0x24>
   266bc:	0005c683          	lbu	a3,0(a1)
   266c0:	00170713          	addi	a4,a4,1
   266c4:	00377793          	andi	a5,a4,3
   266c8:	fed70fa3          	sb	a3,-1(a4)
   266cc:	00158593          	addi	a1,a1,1
   266d0:	fc079ae3          	bnez	a5,266a4 <memcpy+0xf4>
   266d4:	f01ff06f          	j	265d4 <memcpy+0x24>

Disassembly of section .text.modf:

000266d8 <modf>:
modf():
   266d8:	4145d693          	srai	a3,a1,0x14
   266dc:	fb010113          	addi	sp,sp,-80
   266e0:	7ff6f693          	andi	a3,a3,2047
   266e4:	03812423          	sw	s8,40(sp)
   266e8:	03912223          	sw	s9,36(sp)
   266ec:	03a12023          	sw	s10,32(sp)
   266f0:	01b12e23          	sw	s11,28(sp)
   266f4:	04112623          	sw	ra,76(sp)
   266f8:	04812423          	sw	s0,72(sp)
   266fc:	04912223          	sw	s1,68(sp)
   26700:	c0168293          	addi	t0,a3,-1023
   26704:	01300d93          	li	s11,19
   26708:	00058c13          	mv	s8,a1
   2670c:	00060d13          	mv	s10,a2
   26710:	00050c93          	mv	s9,a0
   26714:	065dc663          	blt	s11,t0,26780 <modf+0xa8>
   26718:	1402c663          	bltz	t0,26864 <modf+0x18c>
   2671c:	001006b7          	lui	a3,0x100
   26720:	fff68693          	addi	a3,a3,-1 # fffff <_heap_end+0xd703f>
   26724:	4056d6b3          	sra	a3,a3,t0
   26728:	00b6f633          	and	a2,a3,a1
   2672c:	00a66633          	or	a2,a2,a0
   26730:	08060a63          	beqz	a2,267c4 <modf+0xec>
   26734:	fff6c693          	not	a3,a3
   26738:	00000e13          	li	t3,0
   2673c:	00b6f333          	and	t1,a3,a1
   26740:	000e0613          	mv	a2,t3
   26744:	00030693          	mv	a3,t1
   26748:	01cd2023          	sw	t3,0(s10)
   2674c:	006d2223          	sw	t1,4(s10)
   26750:	b2cfe0ef          	jal	24a7c <__subdf3>
   26754:	00058c13          	mv	s8,a1
   26758:	04c12083          	lw	ra,76(sp)
   2675c:	04812403          	lw	s0,72(sp)
   26760:	04412483          	lw	s1,68(sp)
   26764:	02412c83          	lw	s9,36(sp)
   26768:	02012d03          	lw	s10,32(sp)
   2676c:	01c12d83          	lw	s11,28(sp)
   26770:	000c0593          	mv	a1,s8
   26774:	02812c03          	lw	s8,40(sp)
   26778:	05010113          	addi	sp,sp,80
   2677c:	00008067          	ret
   26780:	03300793          	li	a5,51
   26784:	0657ce63          	blt	a5,t0,26800 <modf+0x128>
   26788:	bed68693          	addi	a3,a3,-1043
   2678c:	fff00793          	li	a5,-1
   26790:	00d7d7b3          	srl	a5,a5,a3
   26794:	00a7f733          	and	a4,a5,a0
   26798:	04071263          	bnez	a4,267dc <modf+0x104>
   2679c:	05212023          	sw	s2,64(sp)
   267a0:	03312e23          	sw	s3,60(sp)
   267a4:	800007b7          	lui	a5,0x80000
   267a8:	04012903          	lw	s2,64(sp)
   267ac:	03c12983          	lw	s3,60(sp)
   267b0:	00b7fc33          	and	s8,a5,a1
   267b4:	00000513          	li	a0,0
   267b8:	019d2023          	sw	s9,0(s10)
   267bc:	00bd2223          	sw	a1,4(s10)
   267c0:	f99ff06f          	j	26758 <modf+0x80>
   267c4:	800007b7          	lui	a5,0x80000
   267c8:	00b7fc33          	and	s8,a5,a1
   267cc:	00000513          	li	a0,0
   267d0:	019d2023          	sw	s9,0(s10)
   267d4:	00bd2223          	sw	a1,4(s10)
   267d8:	f81ff06f          	j	26758 <modf+0x80>
   267dc:	fff7c793          	not	a5,a5
   267e0:	00a7f7b3          	and	a5,a5,a0
   267e4:	00078613          	mv	a2,a5
   267e8:	00058693          	mv	a3,a1
   267ec:	00fd2023          	sw	a5,0(s10)
   267f0:	00bd2223          	sw	a1,4(s10)
   267f4:	a88fe0ef          	jal	24a7c <__subdf3>
   267f8:	00058c13          	mv	s8,a1
   267fc:	f5dff06f          	j	26758 <modf+0x80>
   26800:	03412c23          	sw	s4,56(sp)
   26804:	03512a23          	sw	s5,52(sp)
   26808:	00ad2023          	sw	a0,0(s10)
   2680c:	00bd2223          	sw	a1,4(s10)
   26810:	080000ef          	jal	26890 <__fpclassifyd>
   26814:	06051263          	bnez	a0,26878 <modf+0x1a0>
   26818:	01812223          	sw	s8,4(sp)
   2681c:	01812623          	sw	s8,12(sp)
   26820:	01912023          	sw	s9,0(sp)
   26824:	01912423          	sw	s9,8(sp)
   26828:	00012603          	lw	a2,0(sp)
   2682c:	00412683          	lw	a3,4(sp)
   26830:	00812503          	lw	a0,8(sp)
   26834:	00c12583          	lw	a1,12(sp)
   26838:	03612823          	sw	s6,48(sp)
   2683c:	03712623          	sw	s7,44(sp)
   26840:	be1fc0ef          	jal	23420 <__adddf3>
   26844:	00058c13          	mv	s8,a1
   26848:	03812a03          	lw	s4,56(sp)
   2684c:	03412a83          	lw	s5,52(sp)
   26850:	03012b03          	lw	s6,48(sp)
   26854:	02c12b83          	lw	s7,44(sp)
   26858:	00ad2023          	sw	a0,0(s10)
   2685c:	00bd2223          	sw	a1,4(s10)
   26860:	ef9ff06f          	j	26758 <modf+0x80>
   26864:	800007b7          	lui	a5,0x80000
   26868:	00b7f7b3          	and	a5,a5,a1
   2686c:	00062023          	sw	zero,0(a2)
   26870:	00f62223          	sw	a5,4(a2)
   26874:	ee5ff06f          	j	26758 <modf+0x80>
   26878:	800007b7          	lui	a5,0x80000
   2687c:	03812a03          	lw	s4,56(sp)
   26880:	03412a83          	lw	s5,52(sp)
   26884:	0187fc33          	and	s8,a5,s8
   26888:	00000513          	li	a0,0
   2688c:	ecdff06f          	j	26758 <modf+0x80>

Disassembly of section .text.__fpclassifyd:

00026890 <__fpclassifyd>:
__fpclassifyd():
   26890:	00b56733          	or	a4,a0,a1
   26894:	00050793          	mv	a5,a0
   26898:	04070c63          	beqz	a4,268f0 <__fpclassifyd+0x60>
   2689c:	80000737          	lui	a4,0x80000
   268a0:	04e58263          	beq	a1,a4,268e4 <__fpclassifyd+0x54>
   268a4:	fff70693          	addi	a3,a4,-1 # 7fffffff <_heap_end+0x7ffd703f>
   268a8:	00b6f6b3          	and	a3,a3,a1
   268ac:	fff00837          	lui	a6,0xfff00
   268b0:	01068833          	add	a6,a3,a6
   268b4:	7fe008b7          	lui	a7,0x7fe00
   268b8:	00400513          	li	a0,4
   268bc:	03186263          	bltu	a6,a7,268e0 <__fpclassifyd+0x50>
   268c0:	00100837          	lui	a6,0x100
   268c4:	00300513          	li	a0,3
   268c8:	0105ec63          	bltu	a1,a6,268e0 <__fpclassifyd+0x50>
   268cc:	00b70733          	add	a4,a4,a1
   268d0:	01076863          	bltu	a4,a6,268e0 <__fpclassifyd+0x50>
   268d4:	7ff00737          	lui	a4,0x7ff00
   268d8:	00000513          	li	a0,0
   268dc:	00e68e63          	beq	a3,a4,268f8 <__fpclassifyd+0x68>
   268e0:	00008067          	ret
   268e4:	00a03533          	snez	a0,a0
   268e8:	00250513          	addi	a0,a0,2
   268ec:	00008067          	ret
   268f0:	00200513          	li	a0,2
   268f4:	00008067          	ret
   268f8:	0017b513          	seqz	a0,a5
   268fc:	00008067          	ret
